 extractfuncs

 Timestamp is 5f3d8ac6 (Wed Aug 19 22:25:42 2020)

 Preferred load address is 00400000

 Start         Length     Name                   Class
 0001:00000000 000b7e50H .text$mn                CODE
 0001:000b7e50 00001217H .text$x                 CODE
 0002:00000000 00000104H .CRT$XCA                DATA
 0002:00000104 00000104H .CRT$XCAA               DATA
 0002:00000208 00000104H .CRT$XCZ                DATA
 0002:0000030c 00000104H .CRT$XIA                DATA
 0002:00000410 00000104H .CRT$XIAA               DATA
 0002:00000514 00000104H .CRT$XIAC               DATA
 0002:00000618 00000114H .CRT$XIC                DATA
 0002:0000072c 00000104H .CRT$XIZ                DATA
 0002:00000830 00000104H .CRT$XPA                DATA
 0002:00000934 0000010cH .CRT$XPX                DATA
 0002:00000a40 00000104H .CRT$XPXA               DATA
 0002:00000b44 00000104H .CRT$XPZ                DATA
 0002:00000c48 00000104H .CRT$XTA                DATA
 0002:00000d4c 00000104H .CRT$XTZ                DATA
 0002:00000e50 00024448H .rdata                  DATA
 0002:00025298 00000448H .rdata$r                DATA
 0002:000256e0 00000148H .rdata$sxdata           DATA
 0002:00025828 0000017cH .rdata$zzzdbg           DATA
 0002:000259a4 00000104H .rtc$IAA                DATA
 0002:00025aa8 00000104H .rtc$IZZ                DATA
 0002:00025bac 00000104H .rtc$TAA                DATA
 0002:00025cb0 00000108H .rtc$TZZ                DATA
 0002:00025db8 000011deH .xdata$x                DATA
 0002:00026f96 00000000H .edata                  DATA
 0003:00000000 00001128H .data                   DATA
 0003:00001128 00000258H .data$r                 DATA
 0003:00001380 000161e4H .bss                    DATA
 0004:00000000 000001d4H .idata$5                DATA
 0004:000001d4 00000014H .idata$2                DATA
 0004:000001e8 00000014H .idata$3                DATA
 0004:000001fc 000001d4H .idata$4                DATA
 0004:000003d0 0000082dH .idata$6                DATA
 0005:00000000 00000104H .00cfg                  DATA
 0006:00000000 00000170H .rsrc$01                DATA
 0006:00000170 000002ccH .rsrc$02                DATA

  Address         Publics by Value              Rva+Base       Lib:Object

 0000:00000000       ___enclave_config          00000000     <absolute>
 0000:00000000       ___volatile_metadata       00000000     <absolute>
 0000:00000000       ___hybrid_code_map_count   00000000     <absolute>
 0000:00000000       ___hybrid_code_map         00000000     <absolute>
 0000:00000000       ___guard_fids_table        00000000     <absolute>
 0000:00000000       ___guard_iat_count         00000000     <absolute>
 0000:00000000       ___guard_longjmp_table     00000000     <absolute>
 0000:00000000       ___guard_iat_table         00000000     <absolute>
 0000:00000000       ___hybrid_auxiliary_iat    00000000     <absolute>
 0000:00000000       ___guard_fids_count        00000000     <absolute>
 0000:00000000       ___dynamic_value_reloc_table 00000000     <absolute>
 0000:00000000       __except_list              00000000     <absolute>
 0000:00000000       ___guard_longjmp_count     00000000     <absolute>
 0000:0000000f       ___safe_se_handler_count   0000000f     <absolute>
 0000:00000100       ___guard_flags             00000100     <absolute>
 0000:00000000       ___ImageBase               00400000     <linker-defined>
 0001:00006c70       _AddFunctionName           00407c70 f   extractfuncs.obj
 0001:00006e50       _AddTokenToList            00407e50 f   extractfuncs.obj
 0001:00006ed0       _ConcatDec                 00407ed0 f   extractfuncs.obj
 0001:00006f40       _DumpReplaceFunctions      00407f40 f   extractfuncs.obj
 0001:00007750       _Error                     00408750 f   extractfuncs.obj
 0001:000077a0       _FindFunctionName          004087a0 f   extractfuncs.obj
 0001:00007800       _GetFunctionNamesFromFile  00408800 f   extractfuncs.obj
 0001:00007c50       _MayScrewUp                00408c50 f   extractfuncs.obj
 0001:00007cd0       _ScrewUpFile               00408cd0 f   extractfuncs.obj
 0001:00007ea0       _StripTokenList            00408ea0 f   extractfuncs.obj
 0001:00007f30       _WriteString               00408f30 f   extractfuncs.obj
 0001:00007f90       _WriteWhiteSpace           00408f90 f   extractfuncs.obj
 0001:00008000       ___local_stdio_printf_options 00409000 f i extractfuncs.obj
 0001:00008020       __vfprintf_l               00409020 f i extractfuncs.obj
 0001:00008070       __vsnprintf_l              00409070 f i extractfuncs.obj
 0001:000080e0       __vsprintf_l               004090e0 f i extractfuncs.obj
 0001:00008120       _main                      00409120 f   extractfuncs.obj
 0001:00008250       _printf                    00409250 f i extractfuncs.obj
 0001:000082a0       _sprintf                   004092a0 f i extractfuncs.obj
 0001:000082f0       _vprintf                   004092f0 f i extractfuncs.obj
 0001:00008330       _Log_Close                 00409330 f   l_log.obj
 0001:000083a0       _Log_FileStruct            004093a0 f   l_log.obj
 0001:000083c0       _Log_Flush                 004093c0 f   l_log.obj
 0001:000083f0       _Log_Open                  004093f0 f   l_log.obj
 0001:000084b0       _Log_Print                 004094b0 f   l_log.obj
 0001:00008540       _Log_Shutdown              00409540 f   l_log.obj
 0001:00008570       _Log_Write                 00409570 f   l_log.obj
 0001:000085d0       _Log_WriteTimeStamped      004095d0 f   l_log.obj
 0001:00008640       _vfprintf                  00409640 f i l_log.obj
 0001:00008670       _FreeMemory                00409670 f   l_memory.obj
 0001:000086b0       _GetClearedHunkMemory      004096b0 f   l_memory.obj
 0001:00008700       _GetClearedMemory          00409700 f   l_memory.obj
 0001:00008750       _GetHunkMemory             00409750 f   l_memory.obj
 0001:000087b0       _GetMemory                 004097b0 f   l_memory.obj
 0001:00008810       _PrintMemoryLabels         00409810 f   l_memory.obj
 0001:00008830       _PrintUsedMemorySize       00409830 f   l_memory.obj
 0001:00008850       _PC_Directive_include      00409850 f   l_precomp.obj
 0001:00008b60       _PC_Directive_undef        00409b60 f   l_precomp.obj
 0001:00008d70       _PC_Directive_define       00409d70 f   l_precomp.obj
 0001:000093e0       _PC_Directive_ifdef        0040a3e0 f   l_precomp.obj
 0001:00009410       _PC_Directive_ifndef       0040a410 f   l_precomp.obj
 0001:00009440       _PC_Directive_else         0040a440 f   l_precomp.obj
 0001:000094f0       _PC_Directive_endif        0040a4f0 f   l_precomp.obj
 0001:00009550       _PC_Directive_elif         0040a550 f   l_precomp.obj
 0001:00009610       _PC_Directive_if           0040a610 f   l_precomp.obj
 0001:00009690       _PC_Directive_line         0040a690 f   l_precomp.obj
 0001:000096c0       _PC_Directive_error        0040a6c0 f   l_precomp.obj
 0001:00009750       _PC_Directive_pragma       0040a750 f   l_precomp.obj
 0001:000097c0       _PC_Directive_eval         0040a7c0 f   l_precomp.obj
 0001:000098e0       _PC_Directive_evalfloat    0040a8e0 f   l_precomp.obj
 0001:00009a10       _PC_DollarDirective_evalint 0040aa10 f   l_precomp.obj
 0001:00009b40       _PC_DollarDirective_evalfloat 0040ab40 f   l_precomp.obj
 0001:00009c80       _FreeSource                0040ac80 f   l_precomp.obj
 0001:00009e40       _LoadSourceFile            0040ae40 f   l_precomp.obj
 0001:00009f60       _LoadSourceMemory          0040af60 f   l_precomp.obj
 0001:0000a080       _PC_AddBuiltinDefines      0040b080 f   l_precomp.obj
 0001:0000a1e0       _PC_AddDefine              0040b1e0 f   l_precomp.obj
 0001:0000a240       _PC_AddDefineToHash        0040b240 f   l_precomp.obj
 0001:0000a290       _PC_AddGlobalDefine        0040b290 f   l_precomp.obj
 0001:0000a2f0       _PC_AddGlobalDefinesToSource 0040b2f0 f   l_precomp.obj
 0001:0000a360       _PC_CheckTokenString       0040b360 f   l_precomp.obj
 0001:0000a400       _PC_CheckTokenType         0040b400 f   l_precomp.obj
 0001:0000a4b0       _PC_ClearTokenWhiteSpace   0040b4b0 f   l_precomp.obj
 0001:0000a500       _PC_ConvertPath            0040b500 f   l_precomp.obj
 0001:0000a5d0       _PC_CopyDefine             0040b5d0 f   l_precomp.obj
 0001:0000a790       _PC_CopyToken              0040b790 f   l_precomp.obj
 0001:0000a820       _PC_DefineFromString       0040b820 f   l_precomp.obj
 0001:0000aa20       _PC_Directive_if_def       0040ba20 f   l_precomp.obj
 0001:0000abb0       _PC_DollarEvaluate         0040bbb0 f   l_precomp.obj
 0001:0000b020       _PC_Evaluate               0040c020 f   l_precomp.obj
 0001:0000b3f0       _PC_EvaluateTokens         0040c3f0 f   l_precomp.obj
 0001:0000c7d0       _PC_ExpandBuiltinDefine    0040d7d0 f   l_precomp.obj
 0001:0000cb40       _PC_ExpandDefine           0040db40 f   l_precomp.obj
 0001:0000d140       _PC_ExpandDefineIntoSource 0040e140 f   l_precomp.obj
 0001:0000d1c0       _PC_ExpectAnyToken         0040e1c0 f   l_precomp.obj
 0001:0000d210       _PC_ExpectTokenString      0040e210 f   l_precomp.obj
 0001:0000d2d0       _PC_ExpectTokenType        0040e2d0 f   l_precomp.obj
 0001:0000d600       _PC_FindDefine             0040e600 f   l_precomp.obj
 0001:0000d660       _PC_FindDefineParm         0040e660 f   l_precomp.obj
 0001:0000d6e0       _PC_FindHashedDefine       0040e6e0 f   l_precomp.obj
 0001:0000d760       _PC_FreeDefine             0040e760 f   l_precomp.obj
 0001:0000d800       _PC_FreeToken              0040e800 f   l_precomp.obj
 0001:0000d840       _PC_InitTokenHeap          0040e840 f   l_precomp.obj
 0001:0000d860       _PC_MergeTokens            0040e860 f   l_precomp.obj
 0001:0000d920       _PC_NameHash               0040e920 f   l_precomp.obj
 0001:0000d9b0       _PC_OperatorPriority       0040e9b0 f   l_precomp.obj
 0001:0000db70       _PC_PopIndent              0040eb70 f   l_precomp.obj
 0001:0000dc40       _PC_PrintDefineHashTable   0040ec40 f   l_precomp.obj
 0001:0000dce0       _PC_PushIndent             0040ece0 f   l_precomp.obj
 0001:0000dd90       _PC_PushScript             0040ed90 f   l_precomp.obj
 0001:0000de30       _PC_ReadDefineParms        0040ee30 f   l_precomp.obj
 0001:0000e260       _PC_ReadDirective          0040f260 f   l_precomp.obj
 0001:0000e3b0       _PC_ReadDollarDirective    0040f3b0 f   l_precomp.obj
 0001:0000e520       _PC_ReadLine               0040f520 f   l_precomp.obj
 0001:0000e5b0       _PC_ReadSourceToken        0040f5b0 f   l_precomp.obj
 0001:0000e750       _PC_ReadToken              0040f750 f   l_precomp.obj
 0001:0000e8f0       _PC_RemoveAllGlobalDefines 0040f8f0 f   l_precomp.obj
 0001:0000e950       _PC_RemoveGlobalDefine     0040f950 f   l_precomp.obj
 0001:0000e9b0       _PC_SetIncludePath         0040f9b0 f   l_precomp.obj
 0001:0000ea60       _PC_SetPunctuations        0040fa60 f   l_precomp.obj
 0001:0000ea90       _PC_SkipUntilString        0040fa90 f   l_precomp.obj
 0001:0000eb10       _PC_StringizeTokens        0040fb10 f   l_precomp.obj
 0001:0000ec10       _PC_UnreadLastToken        0040fc10 f   l_precomp.obj
 0001:0000ec40       _PC_UnreadSourceToken      0040fc40 f   l_precomp.obj
 0001:0000eca0       _PC_UnreadToken            0040fca0 f   l_precomp.obj
 0001:0000ecd0       _PC_WhiteSpaceBeforeToken  0040fcd0 f   l_precomp.obj
 0001:0000ed20       _Q_stricmp                 0040fd20 f   l_precomp.obj
 0001:0000ed50       _Q_stricmpn                0040fd50 f   l_precomp.obj
 0001:0000ee30       _Q_strlwr                  0040fe30 f   l_precomp.obj
 0001:0000ee90       _Q_strncmp                 0040fe90 f   l_precomp.obj
 0001:0000ef30       _Q_strncpyz                0040ff30 f   l_precomp.obj
 0001:0000efa0       _Q_strupr                  0040ffa0 f   l_precomp.obj
 0001:0000f000       _SourceError               00410000 f   l_precomp.obj
 0001:0000f070       _SourceWarning             00410070 f   l_precomp.obj
 0001:0000f0e0       _UnreadSignToken           004100e0 f   l_precomp.obj
 0001:0000f200       _vsprintf                  00410200 f i l_precomp.obj
 0001:0000f240       _EndOfScript               00410240 f   l_script.obj
 0001:0000f290       _FileLength                00410290 f   l_script.obj
 0001:0000f300       _FreeScript                00410300 f   l_script.obj
 0001:0000f350       _GetScriptFlags            00410350 f   l_script.obj
 0001:0000f370       _LoadScriptFile            00410370 f   l_script.obj
 0001:0000f530       _LoadScriptMemory          00410530 f   l_script.obj
 0001:0000f680       _NumLinesCrossed           00410680 f   l_script.obj
 0001:0000f6b0       _NumberValue               004106b0 f   l_script.obj
 0001:0000fa60       _PS_CheckTokenString       00410a60 f   l_script.obj
 0001:0000fb00       _PS_CheckTokenType         00410b00 f   l_script.obj
 0001:0000fbb0       _PS_CreatePunctuationTable 00410bb0 f   l_script.obj
 0001:0000fd70       _PS_ExpectAnyToken         00410d70 f   l_script.obj
 0001:0000fdc0       _PS_ExpectTokenString      00410dc0 f   l_script.obj
 0001:0000fe80       _PS_ExpectTokenType        00410e80 f   l_script.obj
 0001:000101f0       _PS_NextWhiteSpaceChar     004111f0 f   l_script.obj
 0001:00010260       _PS_ReadEscapeCharacter    00411260 f   l_script.obj
 0001:00010680       _PS_ReadLiteral            00411680 f   l_script.obj
 0001:000108c0       _PS_ReadName               004118c0 f   l_script.obj
 0001:000109f0       _PS_ReadNumber             004119f0 f   l_script.obj
 0001:00011070       _PS_ReadPrimitive          00412070 f   l_script.obj
 0001:00011160       _PS_ReadPunctuation        00412160 f   l_script.obj
 0001:00011280       _PS_ReadString             00412280 f   l_script.obj
 0001:000115b0       _PS_ReadToken              004125b0 f   l_script.obj
 0001:00011930       _PS_ReadWhiteSpace         00412930 f   l_script.obj
 0001:00011c10       _PS_SkipUntilString        00412c10 f   l_script.obj
 0001:00011c90       _PS_UnreadLastToken        00412c90 f   l_script.obj
 0001:00011cc0       _PS_UnreadToken            00412cc0 f   l_script.obj
 0001:00011d10       _PunctuationFromNum        00412d10 f   l_script.obj
 0001:00011d90       _ReadSignedFloat           00412d90 f   l_script.obj
 0001:00011e90       _ReadSignedInt             00412e90 f   l_script.obj
 0001:00011f70       _ResetScript               00412f70 f   l_script.obj
 0001:00012020       _ScriptError               00413020 f   l_script.obj
 0001:000120a0       _ScriptSkipTo              004130a0 f   l_script.obj
 0001:00012160       _ScriptWarning             00413160 f   l_script.obj
 0001:000121e0       _SetScriptFlags            004131e0 f   l_script.obj
 0001:00012210       _SetScriptPunctuations     00413210 f   l_script.obj
 0001:00012280       _StripDoubleQuotes         00413280 f   l_script.obj
 0001:00012300       _StripSingleQuotes         00413300 f   l_script.obj
 0001:00012371       _FindFirstFileA@8          00413371 f   kernel32:KERNEL32.dll
 0001:00012377       _FindNextFileA@8           00413377 f   kernel32:KERNEL32.dll
 0001:00012380       @__security_check_cookie@4 00413380 f   LIBCMTD:secchk.obj
 0001:000123a0       __ftoui3                   004133a0 f   LIBCMTD:ftol3.obj
 0001:000123af       __ftoul3                   004133af f   LIBCMTD:ftol3.obj
 0001:000123be       __ftol3                    004133be f   LIBCMTD:ftol3.obj
 0001:000123cb       __ftol3_NaN                004133cb f   LIBCMTD:ftol3.obj
 0001:000123e3       __ftol3_work               004133e3 f   LIBCMTD:ftol3.obj
 0001:00012469       __ftol3_common             00413469 f   LIBCMTD:ftol3.obj
 0001:0001252b       __ftol3_arg_error          0041352b f   LIBCMTD:ftol3.obj
 0001:0001253d       __ftol3_except             0041353d f   LIBCMTD:ftol3.obj
 0001:00012581       __dtoui3                   00413581 f   LIBCMTD:ftol3.obj
 0001:00012590       __dtoul3                   00413590 f   LIBCMTD:ftol3.obj
 0001:0001259f       __dtol3                    0041359f f   LIBCMTD:ftol3.obj
 0001:000125ac       __dtol3_NaN                004135ac f   LIBCMTD:ftol3.obj
 0001:000125c9       __dtol3_work               004135c9 f   LIBCMTD:ftol3.obj
 0001:000126b0       __ultod3                   004136b0 f   LIBCMTD:ftol3.obj
 0001:000126f0       __ltod3                    004136f0 f   LIBCMTD:ftol3.obj
 0001:00012bd0       ?configure_argv@__scrt_narrow_argv_policy@@SAHXZ 00413bd0 f i LIBCMTD:exe_main.obj
 0001:00012bf0       ?initialize_environment@__scrt_narrow_environment_policy@@SAHXZ 00413bf0 f i LIBCMTD:exe_main.obj
 0001:00012c30       ?set_app_type@__scrt_main_policy@@SAXXZ 00413c30 f i LIBCMTD:exe_main.obj
 0001:00012c50       ?set_commode@__scrt_file_policy@@SAXXZ 00413c50 f i LIBCMTD:exe_main.obj
 0001:00012c70       ?set_fmode@__scrt_file_policy@@SAXXZ 00413c70 f i LIBCMTD:exe_main.obj
 0001:00012c90       _mainCRTStartup            00413c90 f   LIBCMTD:exe_main.obj
 0001:00012ca0       ___raise_securityfailure   00413ca0 f   LIBCMTD:gs_report.obj
 0001:00012ce0       ___report_gsfailure        00413ce0 f   LIBCMTD:gs_report.obj
 0001:00012e30       ___report_rangecheckfailure 00413e30 f   LIBCMTD:gs_report.obj
 0001:00012e40       ___report_securityfailure  00413e40 f   LIBCMTD:gs_report.obj
 0001:00012f50       ___report_securityfailureEx 00413f50 f   LIBCMTD:gs_report.obj
 0001:000130c0       ??$__crt_fast_decode_pointer@PAP6AXXZ@@YAPAP6AXXZQAP6AXXZ@Z 004140c0 f i LIBCMTD:utility.obj
 0001:000130f0       ??$__crt_fast_encode_pointer@PAP6AXXZ@@YAPAP6AXXZQAP6AXXZ@Z 004140f0 f i LIBCMTD:utility.obj
 0001:00013130       ?__crt_rotate_pointer_value@@YAIIH@Z 00414130 f i LIBCMTD:utility.obj
 0001:00013280       _NtCurrentTeb              00414280 f i LIBCMTD:utility.obj
 0001:00013290       ___scrt_acquire_startup_lock 00414290 f   LIBCMTD:utility.obj
 0001:000132f0       ___scrt_dllmain_after_initialize_c 004142f0 f   LIBCMTD:utility.obj
 0001:00013330       ___scrt_dllmain_before_initialize_c 00414330 f   LIBCMTD:utility.obj
 0001:00013360       ___scrt_dllmain_crt_thread_attach 00414360 f   LIBCMTD:utility.obj
 0001:000133a0       ___scrt_dllmain_crt_thread_detach 004143a0 f   LIBCMTD:utility.obj
 0001:000133c0       ___scrt_dllmain_exception_filter 004143c0 f   LIBCMTD:utility.obj
 0001:00013420       ___scrt_dllmain_uninitialize_c 00414420 f   LIBCMTD:utility.obj
 0001:00013460       ___scrt_dllmain_uninitialize_critical 00414460 f   LIBCMTD:utility.obj
 0001:00013480       ___scrt_initialize_crt     00414480 f   LIBCMTD:utility.obj
 0001:000134e0       ___scrt_initialize_onexit_tables 004144e0 f   LIBCMTD:utility.obj
 0001:00013600       ___scrt_is_nonwritable_in_current_image 00414600 f   LIBCMTD:utility.obj
 0001:00013780       ___scrt_release_startup_lock 00414780 f   LIBCMTD:utility.obj
 0001:000137b0       ___scrt_uninitialize_crt   004147b0 f   LIBCMTD:utility.obj
 0001:00013800       __onexit                   00414800 f   LIBCMTD:utility.obj
 0001:00013890       _at_quick_exit             00414890 f   LIBCMTD:utility.obj
 0001:000138f0       _atexit                    004148f0 f   LIBCMTD:utility.obj
 0001:000139c0       ___security_init_cookie    004149c0 f   LIBCMTD:gs_support.obj
 0001:00013a60       __matherr                  00414a60 f   LIBCMTD:matherr.obj
 0001:00013a70       __get_startup_argv_mode    00414a70 f   LIBCMTD:argv_mode.obj
 0001:00013a80       __get_startup_commit_mode  00414a80 f   LIBCMTD:commit_mode.obj
 0001:00013a90       __get_startup_file_mode    00414a90 f   LIBCMTD:file_mode.obj
 0001:00013aa0       __get_startup_new_mode     00414aa0 f   LIBCMTD:new_mode.obj
 0001:00013ab0       __get_startup_thread_locale_mode 00414ab0 f   LIBCMTD:thread_locale.obj
 0001:00013ac0       ?__scrt_initialize_type_info@@YAXXZ 00414ac0 f   LIBCMTD:tncleanup.obj
 0001:00013ae0       ?__scrt_uninitialize_type_info@@YAXXZ 00414ae0 f   LIBCMTD:tncleanup.obj
 0001:00013b00       __should_initialize_environment 00414b00 f   LIBCMTD:env_mode.obj
 0001:00013b10       __initialize_default_precision 00414b10 f   LIBCMTD:default_precision.obj
 0001:00013b40       __initialize_invalid_parameter_handler 00414b40 f   LIBCMTD:invalid_parameter_handler.obj
 0001:00013b50       __initialize_denormal_control 00414b50 f   LIBCMTD:denormal_control.obj
 0001:00013b60       ___local_stdio_scanf_options 00414b60 f i LIBCMTD:default_local_stdio_options.obj
 0001:00013b70       ___scrt_initialize_default_local_stdio_options 00414b70 f   LIBCMTD:default_local_stdio_options.obj
 0001:00013bc0       ___scrt_is_user_matherr_present 00414bc0 f   LIBCMTD:matherr_detection.obj
 0001:00013bf0       ___scrt_get_dyn_tls_init_callback 00414bf0 f   LIBCMTD:dyn_tls_init.obj
 0001:00013c00       ___scrt_get_dyn_tls_dtor_callback 00414c00 f   LIBCMTD:dyn_tls_dtor.obj
 0001:00013c10       ___scrt_fastfail           00414c10 f   LIBCMTD:utility_desktop.obj
 0001:00013da0       ___scrt_get_show_window_mode 00414da0 f   LIBCMTD:utility_desktop.obj
 0001:00013df0       ___scrt_initialize_mta     00414df0 f   LIBCMTD:utility_desktop.obj
 0001:00013e00       ___scrt_initialize_winrt   00414e00 f   LIBCMTD:utility_desktop.obj
 0001:00013e10       ___scrt_is_managed_app     00414e10 f   LIBCMTD:utility_desktop.obj
 0001:00013ec0       ___scrt_set_unhandled_exception_filter 00414ec0 f   LIBCMTD:utility_desktop.obj
 0001:00013ee0       ___scrt_stub_for_initialize_mta 00414ee0 f   LIBCMTD:utility_desktop.obj
 0001:00013ee0       ___scrt_exe_initialize_mta 00414ee0 f   LIBCMTD:utility_desktop.obj
 0001:00013ef0       ___scrt_unhandled_exception_filter@4 00414ef0 f   LIBCMTD:utility_desktop.obj
 0001:00013f70       __crt_debugger_hook        00414f70 f   LIBCMTD:utility_desktop.obj
 0001:00013f90       __RTC_Initialize           00414f90 f   LIBCMTD:initsect.obj
 0001:00013fd0       __RTC_Terminate            00414fd0 f   LIBCMTD:initsect.obj
 0001:00014010       @_guard_check_icall_nop@4  00415010 f i LIBCMTD:guard_support.obj
 0001:00014020       _ReadNoFence               00415020 f i LIBCMTD:guard_support.obj
 0001:00014040       _ReadPointerNoFence        00415040 f i LIBCMTD:guard_support.obj
 0001:00014060       __guard_icall_checks_enforced 00415060 f i LIBCMTD:guard_support.obj
 0001:000140a0       ___isa_available_init      004150a0 f   LIBCMTD:cpu_disp.obj
 0001:00014430       ___scrt_is_ucrt_dll_in_use 00415430 f   LIBCMTD:ucrt_detection.obj
 0001:00014460       _memcpy                    00415460 f   libvcruntimed:memcpy.obj
 0001:00014b40       _memset                    00415b40 f   libvcruntimed:memset.obj
 0001:00014d70       __except_handler4          00415d70 f   libvcruntimed:chandler4.obj
 0001:00014fc0       ___vcrt_initialize         00415fc0 f   libvcruntimed:initialization.obj
 0001:00015010       ___vcrt_thread_attach      00416010 f   libvcruntimed:initialization.obj
 0001:00015030       ___vcrt_thread_detach      00416030 f   libvcruntimed:initialization.obj
 0001:00015050       ___vcrt_uninitialize       00416050 f   libvcruntimed:initialization.obj
 0001:00015080       ___vcrt_uninitialize_critical 00416080 f   libvcruntimed:initialization.obj
 0001:000150e0       ??$?RD@__crt_internal_free_policy@@QBEXQBD@Z 004160e0 f i libvcruntimed:std_type_info.obj
 0001:00015110       ??$?RX@__crt_internal_free_policy@@QBEXQBX@Z 00416110 f i libvcruntimed:std_type_info.obj
 0001:00015140       ??$__crt_interlocked_compare_exchange_pointer@$$CBDPAD$$T@@YAPBDPDSBDQAD$$T@Z 00416140 f i libvcruntimed:std_type_info.obj
 0001:00015160       ??$__crt_interlocked_read_pointer@$$CBD@@YAPBDPDSBD@Z 00416160 f i libvcruntimed:std_type_info.obj
 0001:00015180       ??0?$__crt_unique_heap_ptr@DU__crt_internal_free_policy@@@@QAE@QAD@Z 00416180 f i libvcruntimed:std_type_info.obj
 0001:000151a0       ??0?$__crt_unique_heap_ptr@XU__crt_internal_free_policy@@@@QAE@QAX@Z 004161a0 f i libvcruntimed:std_type_info.obj
 0001:000151c0       ??1?$__crt_unique_heap_ptr@DU__crt_internal_free_policy@@@@QAE@XZ 004161c0 f i libvcruntimed:std_type_info.obj
 0001:000151e0       ??1?$__crt_unique_heap_ptr@XU__crt_internal_free_policy@@@@QAE@XZ 004161e0 f i libvcruntimed:std_type_info.obj
 0001:00015240       ??B?$__crt_unique_heap_ptr@DU__crt_internal_free_policy@@@@QBE_NXZ 00416240 f i libvcruntimed:std_type_info.obj
 0001:00015260       ??B?$__crt_unique_heap_ptr@XU__crt_internal_free_policy@@@@QBE_NXZ 00416260 f i libvcruntimed:std_type_info.obj
 0001:000152e0       ?__crt_interlocked_read_32@@YAHPDH@Z 004162e0 f i libvcruntimed:std_type_info.obj
 0001:00015300       ?detach@?$__crt_unique_heap_ptr@XU__crt_internal_free_policy@@@@QAEPAXXZ 00416300 f i libvcruntimed:std_type_info.obj
 0001:00015330       ?get@?$__crt_unique_heap_ptr@DU__crt_internal_free_policy@@@@QBEPADXZ 00416330 f i libvcruntimed:std_type_info.obj
 0001:00015350       ?get@?$__crt_unique_heap_ptr@XU__crt_internal_free_policy@@@@QBEPAXXZ 00416350 f i libvcruntimed:std_type_info.obj
 0001:00015370       ?is_valid@?$__crt_unique_heap_ptr@DU__crt_internal_free_policy@@@@QBE_NXZ 00416370 f i libvcruntimed:std_type_info.obj
 0001:000153b0       ?is_valid@?$__crt_unique_heap_ptr@XU__crt_internal_free_policy@@@@QBE_NXZ 004163b0 f i libvcruntimed:std_type_info.obj
 0001:000153f0       ?release@?$__crt_unique_heap_ptr@DU__crt_internal_free_policy@@@@QAEXXZ 004163f0 f i libvcruntimed:std_type_info.obj
 0001:00015420       ?release@?$__crt_unique_heap_ptr@XU__crt_internal_free_policy@@@@QAEXXZ 00416420 f i libvcruntimed:std_type_info.obj
 0001:00015450       ___std_type_info_compare   00416450 f   libvcruntimed:std_type_info.obj
 0001:00015480       ___std_type_info_destroy_list 00416480 f   libvcruntimed:std_type_info.obj
 0001:000154d0       ___std_type_info_hash      004164d0 f   libvcruntimed:std_type_info.obj
 0001:00015540       ___std_type_info_name      00416540 f   libvcruntimed:std_type_info.obj
 0001:000157a0       __local_unwind4            004167a0 f   libvcruntimed:exsup4.obj
 0001:00015878       __seh_longjmp_unwind4@4    00416878 f   libvcruntimed:exsup4.obj
 0001:000158a0       @_EH4_CallFilterFunc@8     004168a0 f   libvcruntimed:exsup4.obj
 0001:000158b8       @_EH4_TransferToHandler@8  004168b8 f   libvcruntimed:exsup4.obj
 0001:000158d4       @_EH4_GlobalUnwind2@8      004168d4 f   libvcruntimed:exsup4.obj
 0001:000158f0       @_EH4_LocalUnwind@16       004168f0 f   libvcruntimed:exsup4.obj
 0001:00015970       ___except_validate_context_record 00416970 f   libvcruntimed:jbcxrval.obj
 0001:000159d0       ___except_validate_jump_buffer 004169d0 f   libvcruntimed:jbcxrval.obj
 0001:000159f0       ___except_validate_jump_buffer_common 004169f0 f i libvcruntimed:jbcxrval.obj
 0001:00015a60       ??$?RU__vcrt_ptd@@@__crt_internal_free_policy@@QBEXQBU__vcrt_ptd@@@Z 00416a60 f i libvcruntimed:per_thread_data.obj
 0001:00015a90       ??0?$__crt_unique_heap_ptr@U__vcrt_ptd@@U__crt_internal_free_policy@@@@QAE@QAU__vcrt_ptd@@@Z 00416a90 f i libvcruntimed:per_thread_data.obj
 0001:00015ad0       ??1?$__crt_unique_heap_ptr@U__vcrt_ptd@@U__crt_internal_free_policy@@@@QAE@XZ 00416ad0 f i libvcruntimed:per_thread_data.obj
 0001:00015b10       ??B?$__crt_unique_heap_ptr@U__vcrt_ptd@@U__crt_internal_free_policy@@@@QBE_NXZ 00416b10 f i libvcruntimed:per_thread_data.obj
 0001:00015b30       ?detach@?$__crt_unique_heap_ptr@U__vcrt_ptd@@U__crt_internal_free_policy@@@@QAEPAU__vcrt_ptd@@XZ 00416b30 f i libvcruntimed:per_thread_data.obj
 0001:00015b60       ?get@?$__crt_unique_heap_ptr@U__vcrt_ptd@@U__crt_internal_free_policy@@@@QBEPAU__vcrt_ptd@@XZ 00416b60 f i libvcruntimed:per_thread_data.obj
 0001:00015b80       ?is_valid@?$__crt_unique_heap_ptr@U__vcrt_ptd@@U__crt_internal_free_policy@@@@QBE_NXZ 00416b80 f i libvcruntimed:per_thread_data.obj
 0001:00015bc0       ?release@?$__crt_unique_heap_ptr@U__vcrt_ptd@@U__crt_internal_free_policy@@@@QAEXXZ 00416bc0 f i libvcruntimed:per_thread_data.obj
 0001:00015c20       ___vcrt_freefls@4          00416c20 f   libvcruntimed:per_thread_data.obj
 0001:00015c50       ___vcrt_freeptd            00416c50 f   libvcruntimed:per_thread_data.obj
 0001:00015cc0       ___vcrt_getptd             00416cc0 f   libvcruntimed:per_thread_data.obj
 0001:00015cf0       ___vcrt_getptd_noexit      00416cf0 f   libvcruntimed:per_thread_data.obj
 0001:00015ea0       ___vcrt_getptd_noinit      00416ea0 f   libvcruntimed:per_thread_data.obj
 0001:00015f10       ___vcrt_initialize_ptd     00416f10 f   libvcruntimed:per_thread_data.obj
 0001:00015f70       ___vcrt_uninitialize_ptd   00416f70 f   libvcruntimed:per_thread_data.obj
 0001:00015fb0       ___vcrt_initialize_locks   00416fb0 f   libvcruntimed:locks.obj
 0001:00016020       ___vcrt_lock               00417020 f   libvcruntimed:locks.obj
 0001:00016040       ___vcrt_uninitialize_locks 00417040 f   libvcruntimed:locks.obj
 0001:000160a0       ___vcrt_unlock             004170a0 f   libvcruntimed:locks.obj
 0001:000160c0       ??$?BX@__crt_fast_encoded_nullptr_t@@QBEPAXXZ 004170c0 f i libvcruntimed:winapi_downlevel.obj
 0001:000160e0       ??$__crt_fast_decode_pointer@PAX@@YAPAXQAX@Z 004170e0 f i libvcruntimed:winapi_downlevel.obj
 0001:00016110       ??$__crt_fast_encode_pointer@PAX@@YAPAXQAX@Z 00417110 f i libvcruntimed:winapi_downlevel.obj
 0001:00016150       ??$__crt_interlocked_exchange_pointer@UHINSTANCE__@@PAU1@@@YAPAUHINSTANCE__@@PDSAU0@QAU0@@Z 00417150 f i libvcruntimed:winapi_downlevel.obj
 0001:00016160       ??$__crt_interlocked_exchange_pointer@UHINSTANCE__@@PAX@@YAPAUHINSTANCE__@@PDSAU0@QAX@Z 00417160 f i libvcruntimed:winapi_downlevel.obj
 0001:00016170       ??$__crt_interlocked_exchange_pointer@XPAX@@YAPAXPDSAXQAX@Z 00417170 f i libvcruntimed:winapi_downlevel.obj
 0001:00016180       ??$__crt_interlocked_read_pointer@UHINSTANCE__@@@@YAPAUHINSTANCE__@@PDSAU0@@Z 00417180 f i libvcruntimed:winapi_downlevel.obj
 0001:000161a0       ??$__crt_interlocked_read_pointer@X@@YAPAXPDSAX@Z 004171a0 f i libvcruntimed:winapi_downlevel.obj
 0001:000161c0       ?__crt_fast_encode_pointer@@YA?AU__crt_fast_encoded_nullptr_t@@$$T@Z 004171c0 f i libvcruntimed:winapi_downlevel.obj
 0001:000166c0       ___vcrt_FlsAlloc           004176c0 f   libvcruntimed:winapi_downlevel.obj
 0001:00016710       ___vcrt_FlsFree            00417710 f   libvcruntimed:winapi_downlevel.obj
 0001:00016760       ___vcrt_FlsGetValue        00417760 f   libvcruntimed:winapi_downlevel.obj
 0001:000167b0       ___vcrt_FlsSetValue        004177b0 f   libvcruntimed:winapi_downlevel.obj
 0001:00016810       ___vcrt_InitializeCriticalSectionEx 00417810 f   libvcruntimed:winapi_downlevel.obj
 0001:00016870       ___vcrt_initialize_winapi_thunks 00417870 f   libvcruntimed:winapi_downlevel.obj
 0001:000168f0       ___vcrt_uninitialize_winapi_thunks 004178f0 f   libvcruntimed:winapi_downlevel.obj
 0001:00016980       ??$?B$$A6AXXZ@__crt_fast_encoded_nullptr_t@@QBEP6AXXZXZ 00417980 f i libvcruntimed:purevirt_data.obj
 0001:000169a0       ??$__crt_fast_encode_pointer@P6AXXZ@@YAP6AXXZQ6AXXZ@Z 004179a0 f i libvcruntimed:purevirt_data.obj
 0001:000169e0       ___vcrt_initialize_pure_virtual_call_handler 004179e0 f   libvcruntimed:purevirt_data.obj
 0001:00016a10       ??0Block@_HeapManager@@QAE@XZ 00417a10 f i libvcruntimed:undname.obj
 0001:00016a30       ??0DName@@QAE@AAPBDD@Z     00417a30 f   libvcruntimed:undname.obj
 0001:00016ce0       ??0DName@@QAE@ABV0@@Z      00417ce0 f i libvcruntimed:undname.obj
 0001:00016d10       ??0DName@@QAE@D@Z          00417d10 f   libvcruntimed:undname.obj
 0001:00016d60       ??0DName@@QAE@PAV0@@Z      00417d60 f   libvcruntimed:undname.obj
 0001:00016e40       ??0DName@@QAE@PBD@Z        00417e40 f   libvcruntimed:undname.obj
 0001:00016eb0       ??0DName@@QAE@W4DNameStatus@@@Z 00417eb0 f   libvcruntimed:undname.obj
 0001:00016f70       ??0DName@@QAE@XZ           00417f70 f i libvcruntimed:undname.obj
 0001:00016fa0       ??0DName@@QAE@_J@Z         00417fa0 f   libvcruntimed:undname.obj
 0001:000170c0       ??0DName@@QAE@_K@Z         004180c0 f   libvcruntimed:undname.obj
 0001:00017190       ??0DNameNode@@IAE@XZ       00418190 f i libvcruntimed:undname.obj
 0001:000171b0       ??0Replicator@@QAE@XZ      004181b0 f i libvcruntimed:undname.obj
 0001:00017200       ??0UnDecorator@@QAE@PBDP6APADJ@ZK@Z 00418200 f i libvcruntimed:undname.obj
 0001:000172a0       ??0charNode@@QAE@D@Z       004182a0 f i libvcruntimed:undname.obj
 0001:000172e0       ??0pDNameNode@@QAE@PAVDName@@@Z 004182e0 f   libvcruntimed:undname.obj
 0001:00017360       ??0pairNode@@QAE@PBVDNameNode@@0@Z 00418360 f i libvcruntimed:undname.obj
 0001:000173b0       ??0pcharNode@@QAE@PBDH@Z   004183b0 f   libvcruntimed:undname.obj
 0001:00017490       ??2@YAPAXIAAV_HeapManager@@H@Z 00418490 f i libvcruntimed:undname.obj
 0001:000174b0       ??4DName@@QAEAAV0@ABV0@@Z  004184b0 f   libvcruntimed:undname.obj
 0001:000174e0       ??4DName@@QAEAAV0@D@Z      004184e0 f i libvcruntimed:undname.obj
 0001:00017530       ??4DName@@QAEAAV0@PAV0@@Z  00418530 f   libvcruntimed:undname.obj
 0001:000175f0       ??4DName@@QAEAAV0@PBD@Z    004185f0 f   libvcruntimed:undname.obj
 0001:00017640       ??4DName@@QAEAAV0@W4DNameStatus@@@Z 00418640 f   libvcruntimed:undname.obj
 0001:000176e0       ??AReplicator@@QBE?AVDName@@H@Z 004186e0 f   libvcruntimed:undname.obj
 0001:00017760       ??H@YA?AVDName@@DABV0@@Z   00418760 f i libvcruntimed:undname.obj
 0001:000177a0       ??H@YA?AVDName@@PBDABV0@@Z 004187a0 f i libvcruntimed:undname.obj
 0001:000177e0       ??H@YA?AVDName@@W4DNameStatus@@ABV0@@Z 004187e0 f i libvcruntimed:undname.obj
 0001:00017820       ??HDName@@QBE?AV0@ABV0@@Z  00418820 f   libvcruntimed:undname.obj
 0001:00017870       ??HDName@@QBE?AV0@D@Z      00418870 f   libvcruntimed:undname.obj
 0001:000178c0       ??HDName@@QBE?AV0@PAV0@@Z  004188c0 f   libvcruntimed:undname.obj
 0001:00017910       ??HDName@@QBE?AV0@PBD@Z    00418910 f   libvcruntimed:undname.obj
 0001:00017960       ??HDName@@QBE?AV0@W4DNameStatus@@@Z 00418960 f   libvcruntimed:undname.obj
 0001:000179b0       ??YDName@@QAEAAV0@ABV0@@Z  004189b0 f   libvcruntimed:undname.obj
 0001:00017a40       ??YDName@@QAEAAV0@D@Z      00418a40 f   libvcruntimed:undname.obj
 0001:00017ae0       ??YDName@@QAEAAV0@PAV0@@Z  00418ae0 f   libvcruntimed:undname.obj
 0001:00017bd0       ??YDName@@QAEAAV0@PBD@Z    00418bd0 f   libvcruntimed:undname.obj
 0001:00017c90       ??YDName@@QAEAAV0@W4DNameStatus@@@Z 00418c90 f   libvcruntimed:undname.obj
 0001:00017d10       ??YReplicator@@QAEAAV0@ABVDName@@@Z 00418d10 f   libvcruntimed:undname.obj
 0001:00017dc0       ??_5DName@@QAEAAV0@ABV0@@Z 00418dc0 f   libvcruntimed:undname.obj
 0001:00017e30       ?Constructor@_HeapManager@@QAEXP6APAXI@ZP6AXPAX@Z@Z 00418e30 f i libvcruntimed:undname.obj
 0001:00017e80       ?Destructor@_HeapManager@@QAEXXZ 00418e80 f i libvcruntimed:undname.obj
 0001:00017f00       ?UScore@UnDecorator@@SAPBDW4Tokens@@@Z 00418f00 f   libvcruntimed:undname.obj
 0001:00017f40       ?append@DName@@AAEXPBVDNameNode@@@Z 00418f40 f   libvcruntimed:undname.obj
 0001:00017ff0       ?composeDeclaration@UnDecorator@@CA?AVDName@@ABV2@@Z 00418ff0 f i libvcruntimed:undname.obj
 0001:0001a6e0       ?dbGetString@DName@@QBEPADXZ 0041b6e0 f   libvcruntimed:undname.obj
 0001:0001a710       ?doAccessSpecifiers@UnDecorator@@SAHXZ 0041b710 f i libvcruntimed:undname.obj
 0001:0001a740       ?doAllocationLanguage@UnDecorator@@SAHXZ 0041b740 f i libvcruntimed:undname.obj
 0001:0001a770       ?doAllocationModel@UnDecorator@@SAHXZ 0041b770 f i libvcruntimed:undname.obj
 0001:0001a7a0       ?doEcsu@UnDecorator@@SAHXZ 0041b7a0 f i libvcruntimed:undname.obj
 0001:0001a7d0       ?doEllipsis@UnDecorator@@SAHXZ 0041b7d0 f i libvcruntimed:undname.obj
 0001:0001a800       ?doFunctionReturns@UnDecorator@@SAHXZ 0041b800 f i libvcruntimed:undname.obj
 0001:0001a830       ?doMSKeywords@UnDecorator@@SAHXZ 0041b830 f i libvcruntimed:undname.obj
 0001:0001a860       ?doMemberTypes@UnDecorator@@SAHXZ 0041b860 f i libvcruntimed:undname.obj
 0001:0001a890       ?doNameOnly@UnDecorator@@SAHXZ 0041b890 f i libvcruntimed:undname.obj
 0001:0001a8b0       ?doNoIdentCharCheck@UnDecorator@@SAHXZ 0041b8b0 f i libvcruntimed:undname.obj
 0001:0001a8d0       ?doPchar@DName@@AAEXPBDH@Z 0041b8d0 f   libvcruntimed:undname.obj
 0001:0001aa60       ?doPtr64@UnDecorator@@SAHXZ 0041ba60 f i libvcruntimed:undname.obj
 0001:0001aa90       ?doRestrictionSpec@UnDecorator@@SAHXZ 0041ba90 f i libvcruntimed:undname.obj
 0001:0001aac0       ?doThisTypes@UnDecorator@@SAHXZ 0041bac0 f i libvcruntimed:undname.obj
 0001:0001ab00       ?doThrowTypes@UnDecorator@@SAHXZ 0041bb00 f i libvcruntimed:undname.obj
 0001:0001ab30       ?doTypeOnly@UnDecorator@@SAHXZ 0041bb30 f i libvcruntimed:undname.obj
 0001:0001ab50       ?doUnderScore@UnDecorator@@SAHXZ 0041bb50 f i libvcruntimed:undname.obj
 0001:0001ab80       ?getArgumentList@UnDecorator@@CA?AVDName@@XZ 0041bb80 f   libvcruntimed:undname.obj
 0001:0001ad20       ?getArgumentTypes@UnDecorator@@CA?AVDName@@XZ 0041bd20 f   libvcruntimed:undname.obj
 0001:0001aec0       ?getArrayType@UnDecorator@@CA?AVDName@@ABV2@@Z 0041bec0 f i libvcruntimed:undname.obj
 0001:0001b1e0       ?getBasedType@UnDecorator@@CA?AVDName@@XZ 0041c1e0 f   libvcruntimed:undname.obj
 0001:0001b2e0       ?getBasicDataType@UnDecorator@@CA?AVDName@@ABV2@@Z 0041c2e0 f   libvcruntimed:undname.obj
 0001:0001ba80       ?getCHPEName@UnDecorator@@QAEPADPADH@Z 0041ca80 f i libvcruntimed:undname.obj
 0001:0001bc40       ?getCallIndex@UnDecorator@@CA?AVDName@@XZ 0041cc40 f i libvcruntimed:undname.obj
 0001:0001bc60       ?getCallingConvention@UnDecorator@@CA?AVDName@@XZ 0041cc60 f   libvcruntimed:undname.obj
 0001:0001bf00       ?getDataIndirectType@UnDecorator@@CA?AVDName@@ABV2@PBD0H@Z 0041cf00 f   libvcruntimed:undname.obj
 0001:0001ca40       ?getDataIndirectType@UnDecorator@@CA?AVDName@@XZ 0041da40 f i libvcruntimed:undname.obj
 0001:0001ca90       ?getDataType@UnDecorator@@CA?AVDName@@PAV2@@Z 0041da90 f   libvcruntimed:undname.obj
 0001:0001cc00       ?getDecoratedName@UnDecorator@@CA?AVDName@@XZ 0041dc00 f   libvcruntimed:undname.obj
 0001:0001d130       ?getDimension@UnDecorator@@CA?AVDName@@_N@Z 0041e130 f   libvcruntimed:undname.obj
 0001:0001d490       ?getDispatchTarget@UnDecorator@@CA?AVDName@@XZ 0041e490 f   libvcruntimed:undname.obj
 0001:0001d560       ?getDisplacement@UnDecorator@@CA?AVDName@@XZ 0041e560 f i libvcruntimed:undname.obj
 0001:0001d580       ?getECSUDataType@UnDecorator@@CA?AVDName@@XZ 0041e580 f   libvcruntimed:undname.obj
 0001:0001d7d0       ?getECSUName@UnDecorator@@CA?AVDName@@XZ 0041e7d0 f i libvcruntimed:undname.obj
 0001:0001d7f0       ?getEnumType@UnDecorator@@CA?AVDName@@XZ 0041e7f0 f i libvcruntimed:undname.obj
 0001:0001d990       ?getExtendedDataIndirectType@UnDecorator@@CA?AVDName@@AAPBDAA_NH@Z 0041e990 f   libvcruntimed:undname.obj
 0001:0001dc80       ?getExternalDataType@UnDecorator@@CA?AVDName@@ABV2@@Z 0041ec80 f i libvcruntimed:undname.obj
 0001:0001dd50       ?getFunctionIndirectType@UnDecorator@@CA?AVDName@@ABV2@@Z 0041ed50 f   libvcruntimed:undname.obj
 0001:0001e3f0       ?getGuardNumber@UnDecorator@@CA?AVDName@@XZ 0041f3f0 f i libvcruntimed:undname.obj
 0001:0001e410       ?getLastChar@DName@@QBEDXZ 0041f410 f i libvcruntimed:undname.obj
 0001:0001e460       ?getLastChar@DNameStatusNode@@UBEDXZ 0041f460 f i libvcruntimed:undname.obj
 0001:0001e4a0       ?getLastChar@charNode@@UBEDXZ 0041f4a0 f i libvcruntimed:undname.obj
 0001:0001e4c0       ?getLastChar@pDNameNode@@UBEDXZ 0041f4c0 f i libvcruntimed:undname.obj
 0001:0001e500       ?getLastChar@pairNode@@UBEDXZ 0041f500 f i libvcruntimed:undname.obj
 0001:0001e580       ?getLastChar@pcharNode@@UBEDXZ 0041f580 f i libvcruntimed:undname.obj
 0001:0001e5c0       ?getLexicalFrame@UnDecorator@@CA?AVDName@@XZ 0041f5c0 f i libvcruntimed:undname.obj
 0001:0001e610       ?getMemory@_HeapManager@@QAEPAXIH@Z 0041f610 f   libvcruntimed:undname.obj
 0001:0001e780       ?getNoexcept@UnDecorator@@CA?AVDName@@XZ 0041f780 f   libvcruntimed:undname.obj
 0001:0001e800       ?getNumberOfDimensions@UnDecorator@@CAHXZ 0041f800 f   libvcruntimed:undname.obj
 0001:0001e940       ?getOperatorName@UnDecorator@@CA?AVDName@@_NPA_N@Z 0041f940 f i libvcruntimed:undname.obj
 0001:0001f6f0       ?getPointerType@UnDecorator@@CA?AVDName@@ABV2@0@Z 004206f0 f i libvcruntimed:undname.obj
 0001:0001f730       ?getPointerTypeArray@UnDecorator@@CA?AVDName@@ABV2@0@Z 00420730 f i libvcruntimed:undname.obj
 0001:0001f770       ?getPrimaryDataType@UnDecorator@@CA?AVDName@@ABV2@@Z 00420770 f   libvcruntimed:undname.obj
 0001:0001fc60       ?getPtrRefDataType@UnDecorator@@CA?AVDName@@ABV2@H@Z 00420c60 f   libvcruntimed:undname.obj
 0001:0001ff20       ?getPtrRefType@UnDecorator@@CA?AVDName@@ABV2@0PBD@Z 00420f20 f   libvcruntimed:undname.obj
 0001:000200f0       ?getReferenceType@UnDecorator@@CA?AVDName@@ABV2@0PBD@Z 004210f0 f i libvcruntimed:undname.obj
 0001:00020120       ?getRestrictionSpec@UnDecorator@@CA?AVDName@@XZ 00421120 f   libvcruntimed:undname.obj
 0001:000202f0       ?getReturnType@UnDecorator@@CA?AVDName@@PAV2@@Z 004212f0 f   libvcruntimed:undname.obj
 0001:00020350       ?getScope@UnDecorator@@CA?AVDName@@XZ 00421350 f   libvcruntimed:undname.obj
 0001:00020a50       ?getScopedName@UnDecorator@@CA?AVDName@@XZ 00421a50 f   libvcruntimed:undname.obj
 0001:00020be0       ?getSignedDimension@UnDecorator@@CA?AVDName@@XZ 00421be0 f   libvcruntimed:undname.obj
 0001:00020c80       ?getStorageConvention@UnDecorator@@CA?AVDName@@XZ 00421c80 f i libvcruntimed:undname.obj
 0001:00020ca0       ?getString@DName@@QBEPADPAD0@Z 00421ca0 f i libvcruntimed:undname.obj
 0001:00020d10       ?getString@DName@@QBEPADPADH@Z 00421d10 f i libvcruntimed:undname.obj
 0001:00020dc0       ?getString@DNameStatusNode@@UBEPADPAD0@Z 00421dc0 f i libvcruntimed:undname.obj
 0001:00020e00       ?getString@charNode@@UBEPADPAD0@Z 00421e00 f i libvcruntimed:undname.obj
 0001:00020e40       ?getString@pDNameNode@@UBEPADPAD0@Z 00421e40 f i libvcruntimed:undname.obj
 0001:00020e90       ?getString@pairNode@@UBEPADPAD0@Z 00421e90 f i libvcruntimed:undname.obj
 0001:00020f40       ?getString@pcharNode@@UBEPADPAD0@Z 00421f40 f i libvcruntimed:undname.obj
 0001:00020f80       ?getStringEncoding@UnDecorator@@CA?AVDName@@PBDH@Z 00421f80 f   libvcruntimed:undname.obj
 0001:000210d0       ?getStringHelper@@YAPADPADPBD1H@Z 004220d0 f i libvcruntimed:undname.obj
 0001:00021120       ?getSymbolName@UnDecorator@@CA?AVDName@@XZ 00422120 f i libvcruntimed:undname.obj
 0001:000211d0       ?getTemplateArgumentList@UnDecorator@@CA?AVDName@@XZ 004221d0 f   libvcruntimed:undname.obj
 0001:000216f0       ?getTemplateConstant@UnDecorator@@CA?AVDName@@XZ 004226f0 f   libvcruntimed:undname.obj
 0001:00021ea0       ?getTemplateName@UnDecorator@@CA?AVDName@@_N@Z 00422ea0 f   libvcruntimed:undname.obj
 0001:000220f0       ?getThisType@UnDecorator@@CA?AVDName@@XZ 004230f0 f i libvcruntimed:undname.obj
 0001:00022140       ?getThrowTypes@UnDecorator@@CA?AVDName@@XZ 00423140 f   libvcruntimed:undname.obj
 0001:00022190       ?getTypeEncoding@UnDecorator@@CAHXZ 00423190 f i libvcruntimed:undname.obj
 0001:00022ec0       ?getUndecoratedName@UnDecorator@@QAEPADPADH@Z 00423ec0 f i libvcruntimed:undname.obj
 0001:00023060       ?getVCallThunkType@UnDecorator@@CA?AVDName@@XZ 00424060 f i libvcruntimed:undname.obj
 0001:000230e0       ?getVbTableType@UnDecorator@@CA?AVDName@@ABV2@@Z 004240e0 f i libvcruntimed:undname.obj
 0001:00023100       ?getVdispMapType@UnDecorator@@CA?AVDName@@ABV2@@Z 00424100 f i libvcruntimed:undname.obj
 0001:00023190       ?getVfTableType@UnDecorator@@CA?AVDName@@ABV2@@Z 00424190 f i libvcruntimed:undname.obj
 0001:000233f0       ?getZName@UnDecorator@@CA?AVDName@@_N0@Z 004243f0 f   libvcruntimed:undname.obj
 0001:000237b0       ?haveTemplateParameters@UnDecorator@@SAHXZ 004247b0 f i libvcruntimed:undname.obj
 0001:000237d0       ?isArray@DName@@QBEHXZ     004247d0 f i libvcruntimed:undname.obj
 0001:000237f0       ?isComArray@DName@@QBEHXZ  004247f0 f i libvcruntimed:undname.obj
 0001:00023810       ?isEmpty@DName@@QBEHXZ     00424810 f i libvcruntimed:undname.obj
 0001:00023850       ?isFull@Replicator@@QBEHXZ 00424850 f i libvcruntimed:undname.obj
 0001:00023890       ?isNoTE@DName@@QBEHXZ      00424890 f i libvcruntimed:undname.obj
 0001:000238b0       ?isPinPtr@DName@@QBEHXZ    004248b0 f i libvcruntimed:undname.obj
 0001:000238d0       ?isPtrRef@DName@@QBEHXZ    004248d0 f i libvcruntimed:undname.obj
 0001:000238f0       ?isUDC@DName@@QBEHXZ       004248f0 f i libvcruntimed:undname.obj
 0001:00023940       ?isUDTThunk@DName@@QBEHXZ  00424940 f i libvcruntimed:undname.obj
 0001:00023990       ?isVCallThunk@DName@@QBEHXZ 00424990 f i libvcruntimed:undname.obj
 0001:000239b0       ?isValid@DName@@QBEHXZ     004249b0 f i libvcruntimed:undname.obj
 0001:000239f0       ?length@DName@@QBEHXZ      004249f0 f i libvcruntimed:undname.obj
 0001:00023a40       ?length@DNameStatusNode@@UBEHXZ 00424a40 f i libvcruntimed:undname.obj
 0001:00023a60       ?length@charNode@@UBEHXZ   00424a60 f i libvcruntimed:undname.obj
 0001:00023a80       ?length@pDNameNode@@UBEHXZ 00424a80 f i libvcruntimed:undname.obj
 0001:00023ac0       ?length@pairNode@@UBEHXZ   00424ac0 f i libvcruntimed:undname.obj
 0001:00023b50       ?length@pcharNode@@UBEHXZ  00424b50 f i libvcruntimed:undname.obj
 0001:00023b70       ?make@DNameStatusNode@@SAPBV1@W4DNameStatus@@@Z 00424b70 f i libvcruntimed:undname.obj
 0001:00023bb0       ?parseDecoratedName@UnDecorator@@CA?AVDName@@XZ 00424bb0 f   libvcruntimed:undname.obj
 0001:00023da0       ?setIsArray@DName@@QAEXXZ  00424da0 f i libvcruntimed:undname.obj
 0001:00023dd0       ?setIsComArray@DName@@QAEXXZ 00424dd0 f i libvcruntimed:undname.obj
 0001:00023e00       ?setIsNoTE@DName@@QAEXXZ   00424e00 f i libvcruntimed:undname.obj
 0001:00023e30       ?setIsPinPtr@DName@@QAEXXZ 00424e30 f i libvcruntimed:undname.obj
 0001:00023e60       ?setIsUDC@DName@@QAEXXZ    00424e60 f i libvcruntimed:undname.obj
 0001:00023ea0       ?setIsVCallThunk@DName@@QAEXXZ 00424ea0 f i libvcruntimed:undname.obj
 0001:00023ed0       ?setPtrRef@DName@@QAEAAV1@XZ 00424ed0 f i libvcruntimed:undname.obj
 0001:00023f00       ?status@DName@@QBE?AW4DNameStatus@@XZ 00424f00 f i libvcruntimed:undname.obj
 0001:00024020       ___unDName                 00425020 f   libvcruntimed:undname.obj
 0001:00024060       ___unDNameEx               00425060 f   libvcruntimed:undname.obj
 0001:00024160       __vsprintf_s_l             00425160 f i libvcruntimed:undname.obj
 0001:000241c0       _sprintf_s                 004251c0 f i libvcruntimed:undname.obj
 0001:00024210       _unDNameGenerateCHPE       00425210 f   libvcruntimed:undname.obj
 0001:00024290       __global_unwind2           00425290 f   libvcruntimed:exsup.obj
 0001:000242f6       __local_unwind2            004252f6 f   libvcruntimed:exsup.obj
 0001:0002437a       __abnormal_termination     0042537a f   libvcruntimed:exsup.obj
 0001:000243a0       __NLG_Notify1              004253a0 f   libvcruntimed:exsup.obj
 0001:000243ac       __NLG_Notify               004253ac f   libvcruntimed:exsup.obj
 0001:000243c3       __NLG_Dispatch             004253c3     libvcruntimed:exsup.obj
 0001:000243c3       __NLG_Dispatch2            004253c3     libvcruntimed:exsup.obj
 0001:000243cb       __NLG_Call                 004253cb f   libvcruntimed:exsup.obj
 0001:000243cd       __NLG_Return2              004253cd     libvcruntimed:exsup.obj
 0001:00024420       ??$__crt_fast_decode_pointer@P6AXXZ@@YAP6AXXZQ6AXXZ@Z 00425420 f i libvcruntimed:purevirt.obj
 0001:00024450       ??$__crt_interlocked_exchange_pointer@$$A6AXXZP6AXXZ@@YAP6AXXZPDS6AXXZQ6AXXZ@Z 00425450 f i libvcruntimed:purevirt.obj
 0001:00024460       ??$__crt_interlocked_read_pointer@$$A6AXXZ@@YAP6AXXZPDS6AXXZ@Z 00425460 f i libvcruntimed:purevirt.obj
 0001:00024480       __get_purecall_handler     00425480 f   libvcruntimed:purevirt.obj
 0001:000244b0       __purecall                 004254b0 f   libvcruntimed:purevirt.obj
 0001:000244f0       __set_purecall_handler     004254f0 f   libvcruntimed:purevirt.obj
 0001:00024530       ??$?0AAViterator@TryBlockMap@__FrameHandler3@@AAV012@$0A@@?$pair@Viterator@TryBlockMap@__FrameHandler3@@V123@@std@@QAE@AAViterator@TryBlockMap@__FrameHandler3@@0@Z 00425530 f i libvcruntimed:trnsctrl.obj
 0001:00024590       ??$forward@AAViterator@TryBlockMap@__FrameHandler3@@@std@@YAAAViterator@TryBlockMap@__FrameHandler3@@AAV123@@Z 00425590 f i libvcruntimed:trnsctrl.obj
 0001:000245a0       ??0iterator@TryBlockMap@__FrameHandler3@@QAE@AAV12@I@Z 004255a0 f i libvcruntimed:trnsctrl.obj
 0001:000245d0       ?GetRangeOfTrysToCheck@__FrameHandler3@@SA?AU?$pair@Viterator@TryBlockMap@__FrameHandler3@@V123@@std@@AAVTryBlockMap@1@HH@Z 004255d0 f   libvcruntimed:trnsctrl.obj
 0001:00024700       ?_CallCatchBlock2@@YAPAXPAUEHRegistrationNode@@PBU_s_FuncInfo@@PAXHK@Z 00425700 f   libvcruntimed:trnsctrl.obj
 0001:00024790       ?_CallSETranslator@@YAHPAUEHExceptionRecord@@PAUEHRegistrationNode@@PAX2PBU_s_FuncInfo@@H1@Z 00425790 f   libvcruntimed:trnsctrl.obj
 0001:000248c0       ?_JumpToContinuation@@YGXPAXPAUEHRegistrationNode@@@Z 004258c0 f   libvcruntimed:trnsctrl.obj
 0001:00024900       ?_UnwindNestedFrames@@YGXPAUEHRegistrationNode@@PAUEHExceptionRecord@@@Z 00425900 f   libvcruntimed:trnsctrl.obj
 0001:00024970       ?getFuncInfo@TryBlockMap@__FrameHandler3@@QAEPBU_s_FuncInfo@@XZ 00425970 f i libvcruntimed:trnsctrl.obj
 0001:00024990       __CatchGuardHandler        00425990 f   libvcruntimed:trnsctrl.obj
 0001:000249f0       __CreateFrameInfo          004259f0 f   libvcruntimed:trnsctrl.obj
 0001:00024a30       __FindAndUnlinkFrame       00425a30 f   libvcruntimed:trnsctrl.obj
 0001:00024ac0       __TranslatorGuardHandler   00425ac0 f   libvcruntimed:trnsctrl.obj
 0001:00024ba0       ___CxxFrameHandler         00425ba0 f   libvcruntimed:trnsctrl.obj
 0001:00024bf0       ___CxxFrameHandler2        00425bf0 f   libvcruntimed:trnsctrl.obj
 0001:00024c40       ___CxxFrameHandler3        00425c40 f   libvcruntimed:trnsctrl.obj
 0001:00024c90       ___CxxLongjmpUnwind@4      00425c90 f   libvcruntimed:trnsctrl.obj
 0001:00025b80       ??$TypeMatchHelper@V__FrameHandler3@@@@YAHPBU_s_HandlerType@@PBU_s_CatchableType@@PBU_s_ThrowInfo@@@Z 00426b80 f i libvcruntimed:frame.obj
 0001:00025c90       ??$__InternalCxxFrameHandler@V__FrameHandler3@@@@YA?AW4_EXCEPTION_DISPOSITION@@PAUEHExceptionRecord@@PAUEHRegistrationNode@@PAU_CONTEXT@@PAXPBU_s_FuncInfo@@H1E@Z 00426c90 f i libvcruntimed:frame.obj
 0001:00025ee0       ??0HandlerMap@__FrameHandler3@@QAE@PBU_s_TryBlockMapEntry@@PAX@Z 00426ee0 f i libvcruntimed:frame.obj
 0001:00025f10       ??0TryBlockMap@__FrameHandler3@@QAE@PBU_s_FuncInfo@@PAX@Z 00426f10 f i libvcruntimed:frame.obj
 0001:00025f40       ??0bad_exception@std@@QAE@ABV01@@Z 00426f40 f i libvcruntimed:frame.obj
 0001:00025f70       ??0bad_exception@std@@QAE@XZ 00426f70 f i libvcruntimed:frame.obj
 0001:00025fa0       ??0exception@std@@QAE@ABV01@@Z 00426fa0 f i libvcruntimed:frame.obj
 0001:00025ff0       ??0exception@std@@QAE@QBDH@Z 00426ff0 f i libvcruntimed:frame.obj
 0001:00026030       ??0iterator@HandlerMap@__FrameHandler3@@QAE@AAV12@I@Z 00427030 f i libvcruntimed:frame.obj
 0001:00026060       ??1bad_exception@std@@UAE@XZ 00427060 f i libvcruntimed:frame.obj
 0001:00026080       ??1exception@std@@UAE@XZ   00427080 f i libvcruntimed:frame.obj
 0001:000260b0       ??8iterator@HandlerMap@__FrameHandler3@@QBE_NABV012@@Z 004270b0 f i libvcruntimed:frame.obj
 0001:000260f0       ??8type_info@@QBE_NABV0@@Z 004270f0 f i libvcruntimed:frame.obj
 0001:00026140       ??9iterator@HandlerMap@__FrameHandler3@@QBE_NABV012@@Z 00427140 f i libvcruntimed:frame.obj
 0001:00026190       ??Diterator@HandlerMap@__FrameHandler3@@QAEPBU_s_HandlerType@@XZ 00427190 f i libvcruntimed:frame.obj
 0001:000261c0       ??Diterator@TryBlockMap@__FrameHandler3@@QAEPBU_s_TryBlockMapEntry@@XZ 004271c0 f i libvcruntimed:frame.obj
 0001:000261f0       ??Eiterator@HandlerMap@__FrameHandler3@@QAEAAV012@XZ 004271f0 f i libvcruntimed:frame.obj
 0001:00026220       ??Eiterator@TryBlockMap@__FrameHandler3@@QAEAAV012@XZ 00427220 f i libvcruntimed:frame.obj
 0001:00026250       ??Miterator@TryBlockMap@__FrameHandler3@@QBE_NABV012@@Z 00427250 f i libvcruntimed:frame.obj
 0001:00026290       ??_Gbad_exception@std@@UAEPAXI@Z 00427290 f i libvcruntimed:frame.obj
 0001:00026290       ??_Ebad_exception@std@@UAEPAXI@Z 00427290 f i libvcruntimed:frame.obj
 0001:000262d0       ??_Gexception@std@@UAEPAXI@Z 004272d0 f i libvcruntimed:frame.obj
 0001:000262d0       ??_Eexception@std@@UAEPAXI@Z 004272d0 f i libvcruntimed:frame.obj
 0001:00026310       ?BuildCatchObject@__FrameHandler3@@SAXPAUEHExceptionRecord@@PAXPBU_s_HandlerType@@PBU_s_CatchableType@@@Z 00427310 f   libvcruntimed:frame.obj
 0001:00026340       ?BuildCatchObjectHelper@__FrameHandler3@@SAHPAUEHExceptionRecord@@PAXPBU_s_HandlerType@@PBU_s_CatchableType@@@Z 00427340 f   libvcruntimed:frame.obj
 0001:000267c0       ?FrameUnwindToEmptyState@__FrameHandler3@@SAXPAUEHRegistrationNode@@PAXPBU_s_FuncInfo@@@Z 004277c0 f   libvcruntimed:frame.obj
 0001:000267f0       ?FrameUnwindToState@__FrameHandler3@@SAXPAUEHRegistrationNode@@PAXPBU_s_FuncInfo@@H@Z 004277f0 f   libvcruntimed:frame.obj
 0001:000269d0       ?GetMaxState@__FrameHandler3@@SAHPAXPBU_s_FuncInfo@@@Z 004279d0 f i libvcruntimed:frame.obj
 0001:00026b30       ?TypeMatch@__FrameHandler3@@SAHPBU_s_HandlerType@@PBU_s_CatchableType@@PBU_s_ThrowInfo@@@Z 00427b30 f   libvcruntimed:frame.obj
 0001:00026b50       ?_CallMemberFunction1@@YGXQAX00@Z 00427b50 f i libvcruntimed:frame.obj
 0001:00026b70       ?_CallMemberFunction2@@YGXQAX00H@Z 00427b70 f i libvcruntimed:frame.obj
 0001:00026ba0       ?_ValidateExecute@@YA_NP6GHXZ@Z 00427ba0 f i libvcruntimed:frame.obj
 0001:00026bc0       ?_ValidateRead@@YA_NPBXI@Z 00427bc0 f i libvcruntimed:frame.obj
 0001:00026be0       ?_ValidateWrite@@YA_NPAXI@Z 00427be0 f i libvcruntimed:frame.obj
 0001:00026c00       ?begin@HandlerMap@__FrameHandler3@@QAE?AViterator@12@XZ 00427c00 f i libvcruntimed:frame.obj
 0001:00026c30       ?end@HandlerMap@__FrameHandler3@@QAE?AViterator@12@XZ 00427c30 f i libvcruntimed:frame.obj
 0001:00026c60       ?getESTypes@__FrameHandler3@@SAPBU_s_ESTypeList@@PBU_s_FuncInfo@@@Z 00427c60 f i libvcruntimed:frame.obj
 0001:00026c70       ?getLastEntry@HandlerMap@__FrameHandler3@@QAEPBU_s_HandlerType@@XZ 00427c70 f i libvcruntimed:frame.obj
 0001:00026ca0       ?getMagicNum@__FrameHandler3@@SAIPBU_s_FuncInfo@@@Z 00427ca0 f i libvcruntimed:frame.obj
 0001:00026cc0       ?getNumTryBlocks@TryBlockMap@__FrameHandler3@@QAEIXZ 00427cc0 f i libvcruntimed:frame.obj
 0001:00026ce0       ?isEHs@__FrameHandler3@@SA_NPBU_s_FuncInfo@@@Z 00427ce0 f i libvcruntimed:frame.obj
 0001:00026d10       ?isNoExcept@__FrameHandler3@@SA_NPBU_s_FuncInfo@@@Z 00427d10 f i libvcruntimed:frame.obj
 0001:00026d40       ?what@exception@std@@UBEPBDXZ 00427d40 f i libvcruntimed:frame.obj
 0001:00026d80       ___BuildCatchObject        00427d80 f   libvcruntimed:frame.obj
 0001:00026db0       ___BuildCatchObjectHelper  00427db0 f   libvcruntimed:frame.obj
 0001:00026de0       ___TypeMatch               00427de0 f   libvcruntimed:frame.obj
 0001:00026e00       ___vcrt_EncodePointer      00427e00 f i libvcruntimed:frame.obj
 0001:00026e20       __CallSettingFrame@12      00427e20 f   libvcruntimed:lowhelpr.obj
 0001:00026e47       __NLG_Return               00427e47     libvcruntimed:lowhelpr.obj
 0001:00026eb0       __get_unexpected           00427eb0 f   libvcruntimed:unexpected.obj
 0001:00026ed0       _set_unexpected            00427ed0 f   libvcruntimed:unexpected.obj
 0001:00026f10       _unexpected                00427f10 f   libvcruntimed:unexpected.obj
 0001:00026f50       _memmove                   00427f50 f   libvcruntimed:memmove.obj
 0001:00027630       ?GetCurrentState@__FrameHandler3@@SAHPAUEHRegistrationNode@@PAXPBU_s_FuncInfo@@@Z 00428630 f   libvcruntimed:ehstate.obj
 0001:00027670       ?SetState@__FrameHandler3@@SAXPAUEHRegistrationNode@@PBU_s_FuncInfo@@H@Z 00428670 f   libvcruntimed:ehstate.obj
 0001:00027690       ___DestructExceptionObject 00428690 f   libvcruntimed:ehhelpers.obj
 0001:00027810       ?_CallMemberFunction0@@YGXQAX0@Z 00428810 f i libvcruntimed:ehhelpers.obj
 0001:00027830       ?raw_name@type_info@@QBEPBDXZ 00428830 f i libvcruntimed:ehhelpers.obj
 0001:00027850       __IsExceptionObjectToBeDestroyed 00428850 f   libvcruntimed:ehhelpers.obj
 0001:000278a0       __SetWinRTOutOfMemoryExceptionCallback 004288a0 f   libvcruntimed:ehhelpers.obj
 0001:000278b0       ___AdjustPointer           004288b0 f   libvcruntimed:ehhelpers.obj
 0001:00027910       ___FrameUnwindFilter       00428910 f   libvcruntimed:ehhelpers.obj
 0001:000279a0       ___GetPlatformExceptionInfo 004289a0 f   libvcruntimed:ehhelpers.obj
 0001:00027a40       ___current_exception       00428a40 f   libvcruntimed:ehhelpers.obj
 0001:00027a50       ___current_exception_context 00428a50 f   libvcruntimed:ehhelpers.obj
 0001:00027a60       ___processing_throw        00428a60 f   libvcruntimed:ehhelpers.obj
 0001:00027a70       ___std_terminate           00428a70 f   libvcruntimed:ehhelpers.obj
 0001:00027a80       __is_exception_typeof      00428a80 f   libvcruntimed:ehhelpers.obj
 0001:00027b90       ??$?RD@__crt_public_free_policy@@QBEXQBD@Z 00428b90 f i libvcruntimed:std_exception.obj
 0001:00027bb0       ??0?$__crt_unique_heap_ptr@DU__crt_public_free_policy@@@@QAE@QAD@Z 00428bb0 f i libvcruntimed:std_exception.obj
 0001:00027bd0       ??1?$__crt_unique_heap_ptr@DU__crt_public_free_policy@@@@QAE@XZ 00428bd0 f i libvcruntimed:std_exception.obj
 0001:00027bf0       ??B?$__crt_unique_heap_ptr@DU__crt_public_free_policy@@@@QBE_NXZ 00428bf0 f i libvcruntimed:std_exception.obj
 0001:00027c10       ?detach@?$__crt_unique_heap_ptr@DU__crt_public_free_policy@@@@QAEPADXZ 00428c10 f i libvcruntimed:std_exception.obj
 0001:00027c40       ?get@?$__crt_unique_heap_ptr@DU__crt_public_free_policy@@@@QBEPADXZ 00428c40 f i libvcruntimed:std_exception.obj
 0001:00027c60       ?is_valid@?$__crt_unique_heap_ptr@DU__crt_public_free_policy@@@@QBE_NXZ 00428c60 f i libvcruntimed:std_exception.obj
 0001:00027ca0       ?release@?$__crt_unique_heap_ptr@DU__crt_public_free_policy@@@@QAEXXZ 00428ca0 f i libvcruntimed:std_exception.obj
 0001:00027cd0       ___std_exception_copy      00428cd0 f   libvcruntimed:std_exception.obj
 0001:00027df0       ___std_exception_destroy   00428df0 f   libvcruntimed:std_exception.obj
 0001:00027e30       __CxxThrowException@8      00428e30 f   libvcruntimed:throw.obj
 0001:00027f10       ??$?RPAU__crt_stdio_stream_data@@@__crt_internal_free_policy@@QBEXQBQAU__crt_stdio_stream_data@@@Z 00428f10 f i libucrtd:_file.obj
 0001:00027f40       ??0?$__crt_unique_heap_ptr@PAU__crt_stdio_stream_data@@U__crt_internal_free_policy@@@@QAE@QAPAU__crt_stdio_stream_data@@@Z 00428f40 f i libucrtd:_file.obj
 0001:00027f60       ??0__crt_stdio_stream@@QAE@QAU_iobuf@@@Z 00428f60 f i libucrtd:_file.obj
 0001:00027f80       ??1?$__crt_unique_heap_ptr@PAU__crt_stdio_stream_data@@U__crt_internal_free_policy@@@@QAE@XZ 00428f80 f i libucrtd:_file.obj
 0001:00027fa0       ??C__crt_stdio_stream@@QBEPAU__crt_stdio_stream_data@@XZ 00428fa0 f i libucrtd:_file.obj
 0001:00027fc0       ?detach@?$__crt_unique_heap_ptr@PAU__crt_stdio_stream_data@@U__crt_internal_free_policy@@@@QAEPAPAU__crt_stdio_stream_data@@XZ 00428fc0 f i libucrtd:_file.obj
 0001:00027ff0       ?release@?$__crt_unique_heap_ptr@PAU__crt_stdio_stream_data@@U__crt_internal_free_policy@@@@QAEXXZ 00428ff0 f i libucrtd:_file.obj
 0001:00028020       ___acrt_initialize_stdio   00429020 f   libucrtd:_file.obj
 0001:000281f0       ___acrt_iob_func           004291f0 f   libucrtd:_file.obj
 0001:00028210       ___acrt_uninitialize_stdio 00429210 f   libucrtd:_file.obj
 0001:000282b0       __get_stream_buffer_pointers 004292b0 f   libucrtd:_file.obj
 0001:000283c0       __lock_file                004293c0 f   libucrtd:_file.obj
 0001:000283f0       __unlock_file              004293f0 f   libucrtd:_file.obj
 0001:00028420       ??$__crt_interlocked_read@J@@YAJPDJ@Z 00429420 f i libucrtd:fclose.obj
 0001:00028440       ?get_flags@__crt_stdio_stream@@QBEJXZ 00429440 f i libucrtd:fclose.obj
 0001:00028470       ?is_in_use@__crt_stdio_stream@@QBE_NXZ 00429470 f i libucrtd:fclose.obj
 0001:000284b0       ?is_string_backed@__crt_stdio_stream@@QBE_NXZ 004294b0 f i libucrtd:fclose.obj
 0001:000284f0       ?public_stream@__crt_stdio_stream@@QBEPAU_iobuf@@XZ 004294f0 f i libucrtd:fclose.obj
 0001:00028510       ?valid@__crt_stdio_stream@@QBE_NXZ 00429510 f i libucrtd:fclose.obj
 0001:00028550       __fclose_nolock            00429550 f   libucrtd:fclose.obj
 0001:000286e0       _fclose                    004296e0 f   libucrtd:fclose.obj
 0001:00029020       ??$open_file@ABQBDABQBDABHPAU_iobuf@@@?$__crt_char_traits@D@@SAPAU_iobuf@@ABQBD0ABH$$QAPAU1@@Z 0042a020 f i libucrtd:fopen.obj
 0001:00029050       ??$open_file@ABQB_WABQB_WABHPAU_iobuf@@@?$__crt_char_traits@_W@@SAPAU_iobuf@@ABQB_W0ABH$$QAPAU1@@Z 0042a050 f i libucrtd:fopen.obj
 0001:00029080       ?unlock@__crt_stdio_stream@@QBEXXZ 0042a080 f i libucrtd:fopen.obj
 0001:000290b0       __fsopen                   0042a0b0 f   libucrtd:fopen.obj
 0001:000290e0       __wfopen                   0042a0e0 f   libucrtd:fopen.obj
 0001:00029100       __wfopen_s                 0042a100 f   libucrtd:fopen.obj
 0001:00029130       __wfsopen                  0042a130 f   libucrtd:fopen.obj
 0001:00029160       _fopen                     0042a160 f   libucrtd:fopen.obj
 0001:00029180       _fopen_s                   0042a180 f   libucrtd:fopen.obj
 0001:000291b0       __fputc_nolock             0042a1b0 f   libucrtd:fputc.obj
 0001:00029260       __fputchar                 0042a260 f   libucrtd:fputc.obj
 0001:00029290       __putc_nolock              0042a290 f   libucrtd:fputc.obj
 0001:000292b0       _fputc                     0042a2b0 f   libucrtd:fputc.obj
 0001:00029580       _putc                      0042a580 f   libucrtd:fputc.obj
 0001:000295a0       _putchar                   0042a5a0 f   libucrtd:fputc.obj
 0001:000295c0       ?__acrt_stdio_reset_buffer@@YAXV__crt_stdio_stream@@@Z 0042a5c0 f i libucrtd:fread.obj
 0001:00029600       ?has_any_buffer@__crt_stdio_stream@@QBE_NXZ 0042a600 f i libucrtd:fread.obj
 0001:00029620       ?has_any_of@__crt_stdio_stream@@QBE_NJ@Z 0042a620 f i libucrtd:fread.obj
 0001:00029660       ?set_flags@__crt_stdio_stream@@QBE_NJ@Z 0042a660 f i libucrtd:fread.obj
 0001:000296c0       __fread_nolock             0042a6c0 f   libucrtd:fread.obj
 0001:000296f0       __fread_nolock_s           0042a6f0 f   libucrtd:fread.obj
 0001:00029f10       _fread                     0042af10 f   libucrtd:fread.obj
 0001:00029f40       _fread_s                   0042af40 f   libucrtd:fread.obj
 0001:0002a230       ?LongLongSub@@YAJ_J0PA_J@Z 0042b230 f i libucrtd:fseek.obj
 0001:0002a930       ?has_all_of@__crt_stdio_stream@@QBE_NJ@Z 0042b930 f i libucrtd:fseek.obj
 0001:0002a980       ?lowio_handle@__crt_stdio_stream@@QBEHXZ 0042b980 f i libucrtd:fseek.obj
 0001:0002a9b0       ?unset_flags@__crt_stdio_stream@@QBE_NJ@Z 0042b9b0 f i libucrtd:fseek.obj
 0001:0002aa10       __fseek_nolock             0042ba10 f   libucrtd:fseek.obj
 0001:0002aa50       __fseeki64                 0042ba50 f   libucrtd:fseek.obj
 0001:0002aa90       __fseeki64_nolock          0042ba90 f   libucrtd:fseek.obj
 0001:0002aad0       _fseek                     0042bad0 f   libucrtd:fseek.obj
 0001:0002bb40       ?ctrl_z@__crt_stdio_stream@@QBE_NXZ 0042cb40 f i libucrtd:ftell.obj
 0001:0002bb60       ?has_big_buffer@__crt_stdio_stream@@QBE_NXZ 0042cb60 f i libucrtd:ftell.obj
 0001:0002bb80       ?has_crt_buffer@__crt_stdio_stream@@QBE_NXZ 0042cb80 f i libucrtd:ftell.obj
 0001:0002bba0       ?has_setvbuf_buffer@__crt_stdio_stream@@QBE_NXZ 0042cba0 f i libucrtd:ftell.obj
 0001:0002bbc0       __ftell_nolock             0042cbc0 f   libucrtd:ftell.obj
 0001:0002bbf0       __ftelli64                 0042cbf0 f   libucrtd:ftell.obj
 0001:0002bc20       __ftelli64_nolock          0042cc20 f   libucrtd:ftell.obj
 0001:0002bc50       __utf8_no_of_trailbytes    0042cc50 f i libucrtd:ftell.obj
 0001:0002bc70       _ftell                     0042cc70 f   libucrtd:ftell.obj
 0001:0002be20       ??$__acrt_mbs_to_wcs_cp@U__crt_win32_buffer_internal_dynamic_resizing@@@@YAHQBDAAV?$__crt_win32_buffer@_WU__crt_win32_buffer_internal_dynamic_resizing@@@@I@Z 0042ce20 f i libucrtd:unlink.obj
 0001:0002be50       ??0?$__crt_win32_buffer@_WU__crt_win32_buffer_internal_dynamic_resizing@@@@QAE@XZ 0042ce50 f i libucrtd:unlink.obj
 0001:0002beb0       ??0_LocaleUpdate@@QAE@QAU__crt_locale_pointers@@@Z 0042ceb0 f i libucrtd:unlink.obj
 0001:0002bfd0       ??1?$__crt_win32_buffer@_WU__crt_win32_buffer_internal_dynamic_resizing@@@@QAE@XZ 0042cfd0 f i libucrtd:unlink.obj
 0001:0002c020       ??1_LocaleUpdate@@QAE@XZ   0042d020 f i libucrtd:unlink.obj
 0001:0002c0a0       ?GetLocaleT@_LocaleUpdate@@QAEPAU__crt_locale_pointers@@XZ 0042d0a0 f i libucrtd:unlink.obj
 0001:0002c0c0       ?__acrt_get_utf8_acp_compatibility_codepage@@YAIXZ 0042d0c0 f i libucrtd:unlink.obj
 0001:0002c170       ?_deallocate@?$__crt_win32_buffer@_WU__crt_win32_buffer_internal_dynamic_resizing@@@@AAEXXZ 0042d170 f i libucrtd:unlink.obj
 0001:0002c1c0       ?allocate@?$__crt_win32_buffer@_WU__crt_win32_buffer_internal_dynamic_resizing@@@@QAEHI@Z 0042d1c0 f i libucrtd:unlink.obj
 0001:0002c250       ?allocate@__crt_win32_buffer_internal_dynamic_resizing@@SAHQAPAXIABV__crt_win32_buffer_empty_debug_info@@@Z 0042d250 f i libucrtd:unlink.obj
 0001:0002c2a0       ?capacity@?$__crt_win32_buffer@_WU__crt_win32_buffer_internal_dynamic_resizing@@@@QBEIXZ 0042d2a0 f i libucrtd:unlink.obj
 0001:0002c2c0       ?data@?$__crt_win32_buffer@_WU__crt_win32_buffer_internal_dynamic_resizing@@@@QAEPA_WXZ 0042d2c0 f i libucrtd:unlink.obj
 0001:0002c2e0       ?deallocate@__crt_win32_buffer_internal_dynamic_resizing@@SAXQAXABV__crt_win32_buffer_empty_debug_info@@@Z 0042d2e0 f i libucrtd:unlink.obj
 0001:0002c300       ?debug_info@?$__crt_win32_buffer@_WU__crt_win32_buffer_internal_dynamic_resizing@@@@QBEABV__crt_win32_buffer_empty_debug_info@@XZ 0042d300 f i libucrtd:unlink.obj
 0001:0002c320       ?set_to_nullptr@?$__crt_win32_buffer@_WU__crt_win32_buffer_internal_dynamic_resizing@@@@QAEXXZ 0042d320 f i libucrtd:unlink.obj
 0001:0002c360       ?size@?$__crt_win32_buffer@_WU__crt_win32_buffer_internal_dynamic_resizing@@@@QAEXI@Z 0042d360 f i libucrtd:unlink.obj
 0001:0002c380       ___acrt_locale_changed     0042d380 f i libucrtd:unlink.obj
 0001:0002c3b0       __unlink                   0042d3b0 f   libucrtd:unlink.obj
 0001:0002c3d0       _remove                    0042d3d0 f   libucrtd:unlink.obj
 0001:0002c630       _rename                    0042d630 f   libucrtd:rename.obj
 0001:0002c740       ??$?0ABV?$stream_output_adapter@D@__crt_stdio_output@@AB_KABQBDABQAU__crt_locale_pointers@@ABQAD@?$format_validation_base@DV?$stream_output_adapter@D@__crt_stdio_output@@@__crt_stdio_output@@IAE@ABV?$stream_output_adapter@D@1@AB_KABQBDABQAU__crt_locale_pointers@@ABQAD@Z 0042d740 f i libucrtd:output.obj
 0001:0002c780       ??$?0ABV?$stream_output_adapter@D@__crt_stdio_output@@AB_KABQBDABQAU__crt_locale_pointers@@ABQAD@?$positional_parameter_base@DV?$stream_output_adapter@D@__crt_stdio_output@@@__crt_stdio_output@@IAE@ABV?$stream_output_adapter@D@1@AB_KABQBDABQAU__crt_locale_pointers@@ABQAD@Z 0042d780 f i libucrtd:output.obj
 0001:0002c810       ??$?0ABV?$stream_output_adapter@D@__crt_stdio_output@@AB_KABQBDABQAU__crt_locale_pointers@@ABQAD@?$standard_base@DV?$stream_output_adapter@D@__crt_stdio_output@@@__crt_stdio_output@@IAE@ABV?$stream_output_adapter@D@1@AB_KABQBDABQAU__crt_locale_pointers@@ABQAD@Z 0042d810 f i libucrtd:output.obj
 0001:0002c870       ??$?0ABV?$stream_output_adapter@_W@__crt_stdio_output@@AB_KABQB_WABQAU__crt_locale_pointers@@ABQAD@?$format_validation_base@_WV?$stream_output_adapter@_W@__crt_stdio_output@@@__crt_stdio_output@@IAE@ABV?$stream_output_adapter@_W@1@AB_KABQB_WABQAU__crt_locale_pointers@@ABQAD@Z 0042d870 f i libucrtd:output.obj
 0001:0002c8b0       ??$?0ABV?$stream_output_adapter@_W@__crt_stdio_output@@AB_KABQB_WABQAU__crt_locale_pointers@@ABQAD@?$positional_parameter_base@_WV?$stream_output_adapter@_W@__crt_stdio_output@@@__crt_stdio_output@@IAE@ABV?$stream_output_adapter@_W@1@AB_KABQB_WABQAU__crt_locale_pointers@@ABQAD@Z 0042d8b0 f i libucrtd:output.obj
 0001:0002c940       ??$?0ABV?$stream_output_adapter@_W@__crt_stdio_output@@AB_KABQB_WABQAU__crt_locale_pointers@@ABQAD@?$standard_base@_WV?$stream_output_adapter@_W@__crt_stdio_output@@@__crt_stdio_output@@IAE@ABV?$stream_output_adapter@_W@1@AB_KABQB_WABQAU__crt_locale_pointers@@ABQAD@Z 0042d940 f i libucrtd:output.obj
 0001:0002c9a0       ??$?0ABV?$string_output_adapter@D@__crt_stdio_output@@AB_KABQBDABQAU__crt_locale_pointers@@ABQAD@?$format_validation_base@DV?$string_output_adapter@D@__crt_stdio_output@@@__crt_stdio_output@@IAE@ABV?$string_output_adapter@D@1@AB_KABQBDABQAU__crt_locale_pointers@@ABQAD@Z 0042d9a0 f i libucrtd:output.obj
 0001:0002c9e0       ??$?0ABV?$string_output_adapter@D@__crt_stdio_output@@AB_KABQBDABQAU__crt_locale_pointers@@ABQAD@?$positional_parameter_base@DV?$string_output_adapter@D@__crt_stdio_output@@@__crt_stdio_output@@IAE@ABV?$string_output_adapter@D@1@AB_KABQBDABQAU__crt_locale_pointers@@ABQAD@Z 0042d9e0 f i libucrtd:output.obj
 0001:0002ca70       ??$?0ABV?$string_output_adapter@D@__crt_stdio_output@@AB_KABQBDABQAU__crt_locale_pointers@@ABQAD@?$standard_base@DV?$string_output_adapter@D@__crt_stdio_output@@@__crt_stdio_output@@IAE@ABV?$string_output_adapter@D@1@AB_KABQBDABQAU__crt_locale_pointers@@ABQAD@Z 0042da70 f i libucrtd:output.obj
 0001:0002cad0       ??$?0ABV?$string_output_adapter@_W@__crt_stdio_output@@AB_KABQB_WABQAU__crt_locale_pointers@@ABQAD@?$format_validation_base@_WV?$string_output_adapter@_W@__crt_stdio_output@@@__crt_stdio_output@@IAE@ABV?$string_output_adapter@_W@1@AB_KABQB_WABQAU__crt_locale_pointers@@ABQAD@Z 0042dad0 f i libucrtd:output.obj
 0001:0002cb10       ??$?0ABV?$string_output_adapter@_W@__crt_stdio_output@@AB_KABQB_WABQAU__crt_locale_pointers@@ABQAD@?$positional_parameter_base@_WV?$string_output_adapter@_W@__crt_stdio_output@@@__crt_stdio_output@@IAE@ABV?$string_output_adapter@_W@1@AB_KABQB_WABQAU__crt_locale_pointers@@ABQAD@Z 0042db10 f i libucrtd:output.obj
 0001:0002cba0       ??$?0ABV?$string_output_adapter@_W@__crt_stdio_output@@AB_KABQB_WABQAU__crt_locale_pointers@@ABQAD@?$standard_base@_WV?$string_output_adapter@_W@__crt_stdio_output@@@__crt_stdio_output@@IAE@ABV?$string_output_adapter@_W@1@AB_KABQB_WABQAU__crt_locale_pointers@@ABQAD@Z 0042dba0 f i libucrtd:output.obj
 0001:00030a20       ??$count@D@formatting_buffer@__crt_stdio_output@@QBEIXZ 00431a20 f i libucrtd:output.obj
 0001:00030a70       ??$count@_W@formatting_buffer@__crt_stdio_output@@QBEIXZ 00431a70 f i libucrtd:output.obj
 0001:00030ac0       ??$data@D@formatting_buffer@__crt_stdio_output@@QAEPADXZ 00431ac0 f i libucrtd:output.obj
 0001:00030b10       ??$data@_W@formatting_buffer@__crt_stdio_output@@QAEPA_WXZ 00431b10 f i libucrtd:output.obj
 0001:00030b60       ??$ensure_buffer_is_big_enough@D@formatting_buffer@__crt_stdio_output@@QAE_NI@Z 00431b60 f i libucrtd:output.obj
 0001:00030c80       ??$ensure_buffer_is_big_enough@_W@formatting_buffer@__crt_stdio_output@@QAE_NI@Z 00431c80 f i libucrtd:output.obj
 0001:00030da0       ??$extract_argument_from_va_list@C_J@?$positional_parameter_base@DV?$stream_output_adapter@D@__crt_stdio_output@@@__crt_stdio_output@@IAE_NAA_J@Z 00431da0 f i libucrtd:output.obj
 0001:00030f20       ??$extract_argument_from_va_list@C_J@?$positional_parameter_base@DV?$string_output_adapter@D@__crt_stdio_output@@@__crt_stdio_output@@IAE_NAA_J@Z 00431f20 f i libucrtd:output.obj
 0001:000310a0       ??$extract_argument_from_va_list@C_J@?$positional_parameter_base@_WV?$stream_output_adapter@_W@__crt_stdio_output@@@__crt_stdio_output@@IAE_NAA_J@Z 004320a0 f i libucrtd:output.obj
 0001:00031220       ??$extract_argument_from_va_list@C_J@?$positional_parameter_base@_WV?$string_output_adapter@_W@__crt_stdio_output@@@__crt_stdio_output@@IAE_NAA_J@Z 00432220 f i libucrtd:output.obj
 0001:000313a0       ??$extract_argument_from_va_list@C_J@?$standard_base@DV?$stream_output_adapter@D@__crt_stdio_output@@@__crt_stdio_output@@IAE_NAA_J@Z 004323a0 f i libucrtd:output.obj
 0001:000313e0       ??$extract_argument_from_va_list@C_J@?$standard_base@DV?$string_output_adapter@D@__crt_stdio_output@@@__crt_stdio_output@@IAE_NAA_J@Z 004323e0 f i libucrtd:output.obj
 0001:00031420       ??$extract_argument_from_va_list@C_J@?$standard_base@_WV?$stream_output_adapter@_W@__crt_stdio_output@@@__crt_stdio_output@@IAE_NAA_J@Z 00432420 f i libucrtd:output.obj
 0001:00031460       ??$extract_argument_from_va_list@C_J@?$standard_base@_WV?$string_output_adapter@_W@__crt_stdio_output@@@__crt_stdio_output@@IAE_NAA_J@Z 00432460 f i libucrtd:output.obj
 0001:000314a0       ??$extract_argument_from_va_list@E_J@?$positional_parameter_base@DV?$stream_output_adapter@D@__crt_stdio_output@@@__crt_stdio_output@@IAE_NAA_J@Z 004324a0 f i libucrtd:output.obj
 0001:00031620       ??$extract_argument_from_va_list@E_J@?$positional_parameter_base@DV?$string_output_adapter@D@__crt_stdio_output@@@__crt_stdio_output@@IAE_NAA_J@Z 00432620 f i libucrtd:output.obj
 0001:000317a0       ??$extract_argument_from_va_list@E_J@?$positional_parameter_base@_WV?$stream_output_adapter@_W@__crt_stdio_output@@@__crt_stdio_output@@IAE_NAA_J@Z 004327a0 f i libucrtd:output.obj
 0001:00031920       ??$extract_argument_from_va_list@E_J@?$positional_parameter_base@_WV?$string_output_adapter@_W@__crt_stdio_output@@@__crt_stdio_output@@IAE_NAA_J@Z 00432920 f i libucrtd:output.obj
 0001:00031aa0       ??$extract_argument_from_va_list@E_J@?$standard_base@DV?$stream_output_adapter@D@__crt_stdio_output@@@__crt_stdio_output@@IAE_NAA_J@Z 00432aa0 f i libucrtd:output.obj
 0001:00031ae0       ??$extract_argument_from_va_list@E_J@?$standard_base@DV?$string_output_adapter@D@__crt_stdio_output@@@__crt_stdio_output@@IAE_NAA_J@Z 00432ae0 f i libucrtd:output.obj
 0001:00031b20       ??$extract_argument_from_va_list@E_J@?$standard_base@_WV?$stream_output_adapter@_W@__crt_stdio_output@@@__crt_stdio_output@@IAE_NAA_J@Z 00432b20 f i libucrtd:output.obj
 0001:00031b60       ??$extract_argument_from_va_list@E_J@?$standard_base@_WV?$string_output_adapter@_W@__crt_stdio_output@@@__crt_stdio_output@@IAE_NAA_J@Z 00432b60 f i libucrtd:output.obj
 0001:00031ba0       ??$extract_argument_from_va_list@F_J@?$positional_parameter_base@DV?$stream_output_adapter@D@__crt_stdio_output@@@__crt_stdio_output@@IAE_NAA_J@Z 00432ba0 f i libucrtd:output.obj
 0001:00031d20       ??$extract_argument_from_va_list@F_J@?$positional_parameter_base@DV?$string_output_adapter@D@__crt_stdio_output@@@__crt_stdio_output@@IAE_NAA_J@Z 00432d20 f i libucrtd:output.obj
 0001:00031ea0       ??$extract_argument_from_va_list@F_J@?$positional_parameter_base@_WV?$stream_output_adapter@_W@__crt_stdio_output@@@__crt_stdio_output@@IAE_NAA_J@Z 00432ea0 f i libucrtd:output.obj
 0001:00032020       ??$extract_argument_from_va_list@F_J@?$positional_parameter_base@_WV?$string_output_adapter@_W@__crt_stdio_output@@@__crt_stdio_output@@IAE_NAA_J@Z 00433020 f i libucrtd:output.obj
 0001:000321a0       ??$extract_argument_from_va_list@F_J@?$standard_base@DV?$stream_output_adapter@D@__crt_stdio_output@@@__crt_stdio_output@@IAE_NAA_J@Z 004331a0 f i libucrtd:output.obj
 0001:000321e0       ??$extract_argument_from_va_list@F_J@?$standard_base@DV?$string_output_adapter@D@__crt_stdio_output@@@__crt_stdio_output@@IAE_NAA_J@Z 004331e0 f i libucrtd:output.obj
 0001:00032220       ??$extract_argument_from_va_list@F_J@?$standard_base@_WV?$stream_output_adapter@_W@__crt_stdio_output@@@__crt_stdio_output@@IAE_NAA_J@Z 00433220 f i libucrtd:output.obj
 0001:00032260       ??$extract_argument_from_va_list@F_J@?$standard_base@_WV?$string_output_adapter@_W@__crt_stdio_output@@@__crt_stdio_output@@IAE_NAA_J@Z 00433260 f i libucrtd:output.obj
 0001:000322a0       ??$extract_argument_from_va_list@GD@?$positional_parameter_base@DV?$stream_output_adapter@D@__crt_stdio_output@@@__crt_stdio_output@@IAE_NAAD@Z 004332a0 f i libucrtd:output.obj
 0001:00032420       ??$extract_argument_from_va_list@GD@?$positional_parameter_base@DV?$string_output_adapter@D@__crt_stdio_output@@@__crt_stdio_output@@IAE_NAAD@Z 00433420 f i libucrtd:output.obj
 0001:000325a0       ??$extract_argument_from_va_list@GD@?$standard_base@DV?$stream_output_adapter@D@__crt_stdio_output@@@__crt_stdio_output@@IAE_NAAD@Z 004335a0 f i libucrtd:output.obj
 0001:000325d0       ??$extract_argument_from_va_list@GD@?$standard_base@DV?$string_output_adapter@D@__crt_stdio_output@@@__crt_stdio_output@@IAE_NAAD@Z 004335d0 f i libucrtd:output.obj
 0001:00032600       ??$extract_argument_from_va_list@G_J@?$positional_parameter_base@DV?$stream_output_adapter@D@__crt_stdio_output@@@__crt_stdio_output@@IAE_NAA_J@Z 00433600 f i libucrtd:output.obj
 0001:00032780       ??$extract_argument_from_va_list@G_J@?$positional_parameter_base@DV?$string_output_adapter@D@__crt_stdio_output@@@__crt_stdio_output@@IAE_NAA_J@Z 00433780 f i libucrtd:output.obj
 0001:00032900       ??$extract_argument_from_va_list@G_J@?$positional_parameter_base@_WV?$stream_output_adapter@_W@__crt_stdio_output@@@__crt_stdio_output@@IAE_NAA_J@Z 00433900 f i libucrtd:output.obj
 0001:00032a80       ??$extract_argument_from_va_list@G_J@?$positional_parameter_base@_WV?$string_output_adapter@_W@__crt_stdio_output@@@__crt_stdio_output@@IAE_NAA_J@Z 00433a80 f i libucrtd:output.obj
 0001:00032c00       ??$extract_argument_from_va_list@G_J@?$standard_base@DV?$stream_output_adapter@D@__crt_stdio_output@@@__crt_stdio_output@@IAE_NAA_J@Z 00433c00 f i libucrtd:output.obj
 0001:00032c40       ??$extract_argument_from_va_list@G_J@?$standard_base@DV?$string_output_adapter@D@__crt_stdio_output@@@__crt_stdio_output@@IAE_NAA_J@Z 00433c40 f i libucrtd:output.obj
 0001:00032c80       ??$extract_argument_from_va_list@G_J@?$standard_base@_WV?$stream_output_adapter@_W@__crt_stdio_output@@@__crt_stdio_output@@IAE_NAA_J@Z 00433c80 f i libucrtd:output.obj
 0001:00032cc0       ??$extract_argument_from_va_list@G_J@?$standard_base@_WV?$string_output_adapter@_W@__crt_stdio_output@@@__crt_stdio_output@@IAE_NAA_J@Z 00433cc0 f i libucrtd:output.obj
 0001:00032d00       ??$extract_argument_from_va_list@H_J@?$positional_parameter_base@DV?$stream_output_adapter@D@__crt_stdio_output@@@__crt_stdio_output@@IAE_NAA_J@Z 00433d00 f i libucrtd:output.obj
 0001:00032e80       ??$extract_argument_from_va_list@H_J@?$positional_parameter_base@DV?$string_output_adapter@D@__crt_stdio_output@@@__crt_stdio_output@@IAE_NAA_J@Z 00433e80 f i libucrtd:output.obj
 0001:00033000       ??$extract_argument_from_va_list@H_J@?$positional_parameter_base@_WV?$stream_output_adapter@_W@__crt_stdio_output@@@__crt_stdio_output@@IAE_NAA_J@Z 00434000 f i libucrtd:output.obj
 0001:00033180       ??$extract_argument_from_va_list@H_J@?$positional_parameter_base@_WV?$string_output_adapter@_W@__crt_stdio_output@@@__crt_stdio_output@@IAE_NAA_J@Z 00434180 f i libucrtd:output.obj
 0001:00033300       ??$extract_argument_from_va_list@H_J@?$standard_base@DV?$stream_output_adapter@D@__crt_stdio_output@@@__crt_stdio_output@@IAE_NAA_J@Z 00434300 f i libucrtd:output.obj
 0001:00033340       ??$extract_argument_from_va_list@H_J@?$standard_base@DV?$string_output_adapter@D@__crt_stdio_output@@@__crt_stdio_output@@IAE_NAA_J@Z 00434340 f i libucrtd:output.obj
 0001:00033380       ??$extract_argument_from_va_list@H_J@?$standard_base@_WV?$stream_output_adapter@_W@__crt_stdio_output@@@__crt_stdio_output@@IAE_NAA_J@Z 00434380 f i libucrtd:output.obj
 0001:000333c0       ??$extract_argument_from_va_list@H_J@?$standard_base@_WV?$string_output_adapter@_W@__crt_stdio_output@@@__crt_stdio_output@@IAE_NAA_J@Z 004343c0 f i libucrtd:output.obj
 0001:00033400       ??$extract_argument_from_va_list@I_J@?$positional_parameter_base@DV?$stream_output_adapter@D@__crt_stdio_output@@@__crt_stdio_output@@IAE_NAA_J@Z 00434400 f i libucrtd:output.obj
 0001:00033580       ??$extract_argument_from_va_list@I_J@?$positional_parameter_base@DV?$string_output_adapter@D@__crt_stdio_output@@@__crt_stdio_output@@IAE_NAA_J@Z 00434580 f i libucrtd:output.obj
 0001:00033700       ??$extract_argument_from_va_list@I_J@?$positional_parameter_base@_WV?$stream_output_adapter@_W@__crt_stdio_output@@@__crt_stdio_output@@IAE_NAA_J@Z 00434700 f i libucrtd:output.obj
 0001:00033880       ??$extract_argument_from_va_list@I_J@?$positional_parameter_base@_WV?$string_output_adapter@_W@__crt_stdio_output@@@__crt_stdio_output@@IAE_NAA_J@Z 00434880 f i libucrtd:output.obj
 0001:00033a00       ??$extract_argument_from_va_list@I_J@?$standard_base@DV?$stream_output_adapter@D@__crt_stdio_output@@@__crt_stdio_output@@IAE_NAA_J@Z 00434a00 f i libucrtd:output.obj
 0001:00033a40       ??$extract_argument_from_va_list@I_J@?$standard_base@DV?$string_output_adapter@D@__crt_stdio_output@@@__crt_stdio_output@@IAE_NAA_J@Z 00434a40 f i libucrtd:output.obj
 0001:00033a80       ??$extract_argument_from_va_list@I_J@?$standard_base@_WV?$stream_output_adapter@_W@__crt_stdio_output@@@__crt_stdio_output@@IAE_NAA_J@Z 00434a80 f i libucrtd:output.obj
 0001:00033ac0       ??$extract_argument_from_va_list@I_J@?$standard_base@_WV?$string_output_adapter@_W@__crt_stdio_output@@@__crt_stdio_output@@IAE_NAA_J@Z 00434ac0 f i libucrtd:output.obj
 0001:00033b00       ??$extract_argument_from_va_list@PADPAD@?$positional_parameter_base@DV?$stream_output_adapter@D@__crt_stdio_output@@@__crt_stdio_output@@IAE_NAAPAD@Z 00434b00 f i libucrtd:output.obj
 0001:00033c80       ??$extract_argument_from_va_list@PADPAD@?$positional_parameter_base@DV?$string_output_adapter@D@__crt_stdio_output@@@__crt_stdio_output@@IAE_NAAPAD@Z 00434c80 f i libucrtd:output.obj
 0001:00033e00       ??$extract_argument_from_va_list@PADPAD@?$positional_parameter_base@_WV?$stream_output_adapter@_W@__crt_stdio_output@@@__crt_stdio_output@@IAE_NAAPAD@Z 00434e00 f i libucrtd:output.obj
 0001:00033f80       ??$extract_argument_from_va_list@PADPAD@?$positional_parameter_base@_WV?$string_output_adapter@_W@__crt_stdio_output@@@__crt_stdio_output@@IAE_NAAPAD@Z 00434f80 f i libucrtd:output.obj
 0001:00034100       ??$extract_argument_from_va_list@PADPAD@?$standard_base@DV?$stream_output_adapter@D@__crt_stdio_output@@@__crt_stdio_output@@IAE_NAAPAD@Z 00435100 f i libucrtd:output.obj
 0001:00034130       ??$extract_argument_from_va_list@PADPAD@?$standard_base@DV?$string_output_adapter@D@__crt_stdio_output@@@__crt_stdio_output@@IAE_NAAPAD@Z 00435130 f i libucrtd:output.obj
 0001:00034160       ??$extract_argument_from_va_list@PADPAD@?$standard_base@_WV?$stream_output_adapter@_W@__crt_stdio_output@@@__crt_stdio_output@@IAE_NAAPAD@Z 00435160 f i libucrtd:output.obj
 0001:00034190       ??$extract_argument_from_va_list@PADPAD@?$standard_base@_WV?$string_output_adapter@_W@__crt_stdio_output@@@__crt_stdio_output@@IAE_NAAPAD@Z 00435190 f i libucrtd:output.obj
 0001:00034a00       ??$extract_argument_from_va_list@PAXPAX@?$positional_parameter_base@DV?$stream_output_adapter@D@__crt_stdio_output@@@__crt_stdio_output@@IAE_NAAPAX@Z 00435a00 f i libucrtd:output.obj
 0001:00034b80       ??$extract_argument_from_va_list@PAXPAX@?$positional_parameter_base@DV?$string_output_adapter@D@__crt_stdio_output@@@__crt_stdio_output@@IAE_NAAPAX@Z 00435b80 f i libucrtd:output.obj
 0001:00034d00       ??$extract_argument_from_va_list@PAXPAX@?$positional_parameter_base@_WV?$stream_output_adapter@_W@__crt_stdio_output@@@__crt_stdio_output@@IAE_NAAPAX@Z 00435d00 f i libucrtd:output.obj
 0001:00034e80       ??$extract_argument_from_va_list@PAXPAX@?$positional_parameter_base@_WV?$string_output_adapter@_W@__crt_stdio_output@@@__crt_stdio_output@@IAE_NAAPAX@Z 00435e80 f i libucrtd:output.obj
 0001:00035000       ??$extract_argument_from_va_list@PAXPAX@?$standard_base@DV?$stream_output_adapter@D@__crt_stdio_output@@@__crt_stdio_output@@IAE_NAAPAX@Z 00436000 f i libucrtd:output.obj
 0001:00035030       ??$extract_argument_from_va_list@PAXPAX@?$standard_base@DV?$string_output_adapter@D@__crt_stdio_output@@@__crt_stdio_output@@IAE_NAAPAX@Z 00436030 f i libucrtd:output.obj
 0001:00035060       ??$extract_argument_from_va_list@PAXPAX@?$standard_base@_WV?$stream_output_adapter@_W@__crt_stdio_output@@@__crt_stdio_output@@IAE_NAAPAX@Z 00436060 f i libucrtd:output.obj
 0001:00035090       ??$extract_argument_from_va_list@PAXPAX@?$standard_base@_WV?$string_output_adapter@_W@__crt_stdio_output@@@__crt_stdio_output@@IAE_NAAPAX@Z 00436090 f i libucrtd:output.obj
 0001:000350c0       ??$extract_argument_from_va_list@U_CRT_DOUBLE@@U1@@?$positional_parameter_base@DV?$stream_output_adapter@D@__crt_stdio_output@@@__crt_stdio_output@@IAE_NAAU_CRT_DOUBLE@@@Z 004360c0 f i libucrtd:output.obj
 0001:00035270       ??$extract_argument_from_va_list@U_CRT_DOUBLE@@U1@@?$positional_parameter_base@DV?$string_output_adapter@D@__crt_stdio_output@@@__crt_stdio_output@@IAE_NAAU_CRT_DOUBLE@@@Z 00436270 f i libucrtd:output.obj
 0001:00035420       ??$extract_argument_from_va_list@U_CRT_DOUBLE@@U1@@?$positional_parameter_base@_WV?$stream_output_adapter@_W@__crt_stdio_output@@@__crt_stdio_output@@IAE_NAAU_CRT_DOUBLE@@@Z 00436420 f i libucrtd:output.obj
 0001:000355d0       ??$extract_argument_from_va_list@U_CRT_DOUBLE@@U1@@?$positional_parameter_base@_WV?$string_output_adapter@_W@__crt_stdio_output@@@__crt_stdio_output@@IAE_NAAU_CRT_DOUBLE@@@Z 004365d0 f i libucrtd:output.obj
 0001:00035780       ??$extract_argument_from_va_list@U_CRT_DOUBLE@@U1@@?$standard_base@DV?$stream_output_adapter@D@__crt_stdio_output@@@__crt_stdio_output@@IAE_NAAU_CRT_DOUBLE@@@Z 00436780 f i libucrtd:output.obj
 0001:000357e0       ??$extract_argument_from_va_list@U_CRT_DOUBLE@@U1@@?$standard_base@DV?$string_output_adapter@D@__crt_stdio_output@@@__crt_stdio_output@@IAE_NAAU_CRT_DOUBLE@@@Z 004367e0 f i libucrtd:output.obj
 0001:00035840       ??$extract_argument_from_va_list@U_CRT_DOUBLE@@U1@@?$standard_base@_WV?$stream_output_adapter@_W@__crt_stdio_output@@@__crt_stdio_output@@IAE_NAAU_CRT_DOUBLE@@@Z 00436840 f i libucrtd:output.obj
 0001:000358a0       ??$extract_argument_from_va_list@U_CRT_DOUBLE@@U1@@?$standard_base@_WV?$string_output_adapter@_W@__crt_stdio_output@@@__crt_stdio_output@@IAE_NAAU_CRT_DOUBLE@@@Z 004368a0 f i libucrtd:output.obj
 0001:00035900       ??$extract_argument_from_va_list@_J_J@?$positional_parameter_base@DV?$stream_output_adapter@D@__crt_stdio_output@@@__crt_stdio_output@@IAE_NAA_J@Z 00436900 f i libucrtd:output.obj
 0001:00035a80       ??$extract_argument_from_va_list@_J_J@?$positional_parameter_base@DV?$string_output_adapter@D@__crt_stdio_output@@@__crt_stdio_output@@IAE_NAA_J@Z 00436a80 f i libucrtd:output.obj
 0001:00035c00       ??$extract_argument_from_va_list@_J_J@?$positional_parameter_base@_WV?$stream_output_adapter@_W@__crt_stdio_output@@@__crt_stdio_output@@IAE_NAA_J@Z 00436c00 f i libucrtd:output.obj
 0001:00035d80       ??$extract_argument_from_va_list@_J_J@?$positional_parameter_base@_WV?$string_output_adapter@_W@__crt_stdio_output@@@__crt_stdio_output@@IAE_NAA_J@Z 00436d80 f i libucrtd:output.obj
 0001:00035f00       ??$extract_argument_from_va_list@_J_J@?$standard_base@DV?$stream_output_adapter@D@__crt_stdio_output@@@__crt_stdio_output@@IAE_NAA_J@Z 00436f00 f i libucrtd:output.obj
 0001:00035f40       ??$extract_argument_from_va_list@_J_J@?$standard_base@DV?$string_output_adapter@D@__crt_stdio_output@@@__crt_stdio_output@@IAE_NAA_J@Z 00436f40 f i libucrtd:output.obj
 0001:00035f80       ??$extract_argument_from_va_list@_J_J@?$standard_base@_WV?$stream_output_adapter@_W@__crt_stdio_output@@@__crt_stdio_output@@IAE_NAA_J@Z 00436f80 f i libucrtd:output.obj
 0001:00035fc0       ??$extract_argument_from_va_list@_J_J@?$standard_base@_WV?$string_output_adapter@_W@__crt_stdio_output@@@__crt_stdio_output@@IAE_NAA_J@Z 00436fc0 f i libucrtd:output.obj
 0001:00036000       ??$extract_argument_from_va_list@_K_J@?$positional_parameter_base@DV?$stream_output_adapter@D@__crt_stdio_output@@@__crt_stdio_output@@IAE_NAA_J@Z 00437000 f i libucrtd:output.obj
 0001:00036180       ??$extract_argument_from_va_list@_K_J@?$positional_parameter_base@DV?$string_output_adapter@D@__crt_stdio_output@@@__crt_stdio_output@@IAE_NAA_J@Z 00437180 f i libucrtd:output.obj
 0001:00036300       ??$extract_argument_from_va_list@_K_J@?$positional_parameter_base@_WV?$stream_output_adapter@_W@__crt_stdio_output@@@__crt_stdio_output@@IAE_NAA_J@Z 00437300 f i libucrtd:output.obj
 0001:00036480       ??$extract_argument_from_va_list@_K_J@?$positional_parameter_base@_WV?$string_output_adapter@_W@__crt_stdio_output@@@__crt_stdio_output@@IAE_NAA_J@Z 00437480 f i libucrtd:output.obj
 0001:00036600       ??$extract_argument_from_va_list@_K_J@?$standard_base@DV?$stream_output_adapter@D@__crt_stdio_output@@@__crt_stdio_output@@IAE_NAA_J@Z 00437600 f i libucrtd:output.obj
 0001:00036640       ??$extract_argument_from_va_list@_K_J@?$standard_base@DV?$string_output_adapter@D@__crt_stdio_output@@@__crt_stdio_output@@IAE_NAA_J@Z 00437640 f i libucrtd:output.obj
 0001:00036680       ??$extract_argument_from_va_list@_K_J@?$standard_base@_WV?$stream_output_adapter@_W@__crt_stdio_output@@@__crt_stdio_output@@IAE_NAA_J@Z 00437680 f i libucrtd:output.obj
 0001:000366c0       ??$extract_argument_from_va_list@_K_J@?$standard_base@_WV?$string_output_adapter@_W@__crt_stdio_output@@@__crt_stdio_output@@IAE_NAA_J@Z 004376c0 f i libucrtd:output.obj
 0001:00036700       ??$extract_argument_from_va_list@_W_W@?$positional_parameter_base@DV?$stream_output_adapter@D@__crt_stdio_output@@@__crt_stdio_output@@IAE_NAA_W@Z 00437700 f i libucrtd:output.obj
 0001:00036880       ??$extract_argument_from_va_list@_W_W@?$positional_parameter_base@DV?$string_output_adapter@D@__crt_stdio_output@@@__crt_stdio_output@@IAE_NAA_W@Z 00437880 f i libucrtd:output.obj
 0001:00036a00       ??$extract_argument_from_va_list@_W_W@?$positional_parameter_base@_WV?$stream_output_adapter@_W@__crt_stdio_output@@@__crt_stdio_output@@IAE_NAA_W@Z 00437a00 f i libucrtd:output.obj
 0001:00036b80       ??$extract_argument_from_va_list@_W_W@?$positional_parameter_base@_WV?$string_output_adapter@_W@__crt_stdio_output@@@__crt_stdio_output@@IAE_NAA_W@Z 00437b80 f i libucrtd:output.obj
 0001:00036d00       ??$extract_argument_from_va_list@_W_W@?$standard_base@DV?$stream_output_adapter@D@__crt_stdio_output@@@__crt_stdio_output@@IAE_NAA_W@Z 00437d00 f i libucrtd:output.obj
 0001:00036d30       ??$extract_argument_from_va_list@_W_W@?$standard_base@DV?$string_output_adapter@D@__crt_stdio_output@@@__crt_stdio_output@@IAE_NAA_W@Z 00437d30 f i libucrtd:output.obj
 0001:00036d60       ??$extract_argument_from_va_list@_W_W@?$standard_base@_WV?$stream_output_adapter@_W@__crt_stdio_output@@@__crt_stdio_output@@IAE_NAA_W@Z 00437d60 f i libucrtd:output.obj
 0001:00036d90       ??$extract_argument_from_va_list@_W_W@?$standard_base@_WV?$string_output_adapter@_W@__crt_stdio_output@@@__crt_stdio_output@@IAE_NAA_W@Z 00437d90 f i libucrtd:output.obj
 0001:00036dc0       ??$get_parameter_type@D@?$positional_parameter_base@DV?$stream_output_adapter@D@__crt_stdio_output@@@__crt_stdio_output@@CA?AW4parameter_type@01@PAD@Z 00437dc0 f i libucrtd:output.obj
 0001:00036dd0       ??$get_parameter_type@D@?$positional_parameter_base@DV?$string_output_adapter@D@__crt_stdio_output@@@__crt_stdio_output@@CA?AW4parameter_type@01@PAD@Z 00437dd0 f i libucrtd:output.obj
 0001:00036de0       ??$get_parameter_type@D@?$positional_parameter_base@_WV?$stream_output_adapter@_W@__crt_stdio_output@@@__crt_stdio_output@@CA?AW4parameter_type@01@PAD@Z 00437de0 f i libucrtd:output.obj
 0001:00036df0       ??$get_parameter_type@D@?$positional_parameter_base@_WV?$string_output_adapter@_W@__crt_stdio_output@@@__crt_stdio_output@@CA?AW4parameter_type@01@PAD@Z 00437df0 f i libucrtd:output.obj
 0001:00036e40       ??$get_parameter_type@X@?$positional_parameter_base@DV?$stream_output_adapter@D@__crt_stdio_output@@@__crt_stdio_output@@CA?AW4parameter_type@01@PAX@Z 00437e40 f i libucrtd:output.obj
 0001:00036e50       ??$get_parameter_type@X@?$positional_parameter_base@DV?$string_output_adapter@D@__crt_stdio_output@@@__crt_stdio_output@@CA?AW4parameter_type@01@PAX@Z 00437e50 f i libucrtd:output.obj
 0001:00036e60       ??$get_parameter_type@X@?$positional_parameter_base@_WV?$stream_output_adapter@_W@__crt_stdio_output@@@__crt_stdio_output@@CA?AW4parameter_type@01@PAX@Z 00437e60 f i libucrtd:output.obj
 0001:00036e70       ??$get_parameter_type@X@?$positional_parameter_base@_WV?$string_output_adapter@_W@__crt_stdio_output@@@__crt_stdio_output@@CA?AW4parameter_type@01@PAX@Z 00437e70 f i libucrtd:output.obj
 0001:00036e80       ??$is_character_specifier@D@?$positional_parameter_base@DV?$stream_output_adapter@D@__crt_stdio_output@@@__crt_stdio_output@@CA_ND@Z 00437e80 f i libucrtd:output.obj
 0001:00036ec0       ??$is_character_specifier@D@?$positional_parameter_base@DV?$string_output_adapter@D@__crt_stdio_output@@@__crt_stdio_output@@CA_ND@Z 00437ec0 f i libucrtd:output.obj
 0001:00036f00       ??$is_character_specifier@_W@?$positional_parameter_base@_WV?$stream_output_adapter@_W@__crt_stdio_output@@@__crt_stdio_output@@CA_N_W@Z 00437f00 f i libucrtd:output.obj
 0001:00036f40       ??$is_character_specifier@_W@?$positional_parameter_base@_WV?$string_output_adapter@_W@__crt_stdio_output@@@__crt_stdio_output@@CA_N_W@Z 00437f40 f i libucrtd:output.obj
 0001:00036f80       ??$is_integral_specifier@D@?$positional_parameter_base@DV?$stream_output_adapter@D@__crt_stdio_output@@@__crt_stdio_output@@CA_ND@Z 00437f80 f i libucrtd:output.obj
 0001:00037000       ??$is_integral_specifier@D@?$positional_parameter_base@DV?$string_output_adapter@D@__crt_stdio_output@@@__crt_stdio_output@@CA_ND@Z 00438000 f i libucrtd:output.obj
 0001:00037080       ??$is_integral_specifier@_W@?$positional_parameter_base@_WV?$stream_output_adapter@_W@__crt_stdio_output@@@__crt_stdio_output@@CA_N_W@Z 00438080 f i libucrtd:output.obj
 0001:00037100       ??$is_integral_specifier@_W@?$positional_parameter_base@_WV?$string_output_adapter@_W@__crt_stdio_output@@@__crt_stdio_output@@CA_N_W@Z 00438100 f i libucrtd:output.obj
 0001:00037180       ??$is_pointer_specifier@D@?$positional_parameter_base@DV?$stream_output_adapter@D@__crt_stdio_output@@@__crt_stdio_output@@CA_ND@Z 00438180 f i libucrtd:output.obj
 0001:000371b0       ??$is_pointer_specifier@D@?$positional_parameter_base@DV?$string_output_adapter@D@__crt_stdio_output@@@__crt_stdio_output@@CA_ND@Z 004381b0 f i libucrtd:output.obj
 0001:000371e0       ??$is_pointer_specifier@_W@?$positional_parameter_base@_WV?$stream_output_adapter@_W@__crt_stdio_output@@@__crt_stdio_output@@CA_N_W@Z 004381e0 f i libucrtd:output.obj
 0001:00037210       ??$is_pointer_specifier@_W@?$positional_parameter_base@_WV?$string_output_adapter@_W@__crt_stdio_output@@@__crt_stdio_output@@CA_N_W@Z 00438210 f i libucrtd:output.obj
 0001:00037240       ??$is_string_specifier@D@?$positional_parameter_base@DV?$stream_output_adapter@D@__crt_stdio_output@@@__crt_stdio_output@@CA_ND@Z 00438240 f i libucrtd:output.obj
 0001:00037280       ??$is_string_specifier@D@?$positional_parameter_base@DV?$string_output_adapter@D@__crt_stdio_output@@@__crt_stdio_output@@CA_ND@Z 00438280 f i libucrtd:output.obj
 0001:000372c0       ??$is_string_specifier@_W@?$positional_parameter_base@_WV?$stream_output_adapter@_W@__crt_stdio_output@@@__crt_stdio_output@@CA_N_W@Z 004382c0 f i libucrtd:output.obj
 0001:00037300       ??$is_string_specifier@_W@?$positional_parameter_base@_WV?$string_output_adapter@_W@__crt_stdio_output@@@__crt_stdio_output@@CA_N_W@Z 00438300 f i libucrtd:output.obj
 0001:00037340       ??$is_wide_character_specifier@D@__crt_stdio_output@@YA_N_KDW4length_modifier@0@@Z 00438340 f i libucrtd:output.obj
 0001:000373e0       ??$is_wide_character_specifier@_W@__crt_stdio_output@@YA_N_K_WW4length_modifier@0@@Z 004383e0 f i libucrtd:output.obj
 0001:000374d0       ??$peek_va_arg@C@__crt_stdio_output@@YACPAD@Z 004384d0 f i libucrtd:output.obj
 0001:000374f0       ??$peek_va_arg@E@__crt_stdio_output@@YAEPAD@Z 004384f0 f i libucrtd:output.obj
 0001:00037510       ??$peek_va_arg@F@__crt_stdio_output@@YAFPAD@Z 00438510 f i libucrtd:output.obj
 0001:00037530       ??$peek_va_arg@G@__crt_stdio_output@@YAGPAD@Z 00438530 f i libucrtd:output.obj
 0001:00037550       ??$peek_va_arg@H@__crt_stdio_output@@YAHPAD@Z 00438550 f i libucrtd:output.obj
 0001:00037570       ??$peek_va_arg@I@__crt_stdio_output@@YAIPAD@Z 00438570 f i libucrtd:output.obj
 0001:00037590       ??$peek_va_arg@PAD@__crt_stdio_output@@YAPADPAD@Z 00438590 f i libucrtd:output.obj
 0001:00037630       ??$peek_va_arg@PAX@__crt_stdio_output@@YAPAXPAD@Z 00438630 f i libucrtd:output.obj
 0001:00037650       ??$peek_va_arg@U_CRT_DOUBLE@@@__crt_stdio_output@@YA?AU_CRT_DOUBLE@@PAD@Z 00438650 f i libucrtd:output.obj
 0001:00037670       ??$peek_va_arg@_J@__crt_stdio_output@@YA_JPAD@Z 00438670 f i libucrtd:output.obj
 0001:00037690       ??$peek_va_arg@_K@__crt_stdio_output@@YA_KPAD@Z 00438690 f i libucrtd:output.obj
 0001:000376b0       ??$peek_va_arg@_W@__crt_stdio_output@@YA_WPAD@Z 004386b0 f i libucrtd:output.obj
 0001:000376d0       ??$puttc_nolock@ABDPAU_iobuf@@@?$__crt_char_traits@D@@SAHABD$$QAPAU_iobuf@@@Z 004386d0 f i libucrtd:output.obj
 0001:00037700       ??$puttc_nolock@AB_WPAU_iobuf@@@?$__crt_char_traits@_W@@SAGAB_W$$QAPAU_iobuf@@@Z 00438700 f i libucrtd:output.obj
 0001:00037730       ??$read_va_arg@C@__crt_stdio_output@@YACAAPAD@Z 00438730 f i libucrtd:output.obj
 0001:00037760       ??$read_va_arg@E@__crt_stdio_output@@YAEAAPAD@Z 00438760 f i libucrtd:output.obj
 0001:00037790       ??$read_va_arg@F@__crt_stdio_output@@YAFAAPAD@Z 00438790 f i libucrtd:output.obj
 0001:000377c0       ??$read_va_arg@G@__crt_stdio_output@@YAGAAPAD@Z 004387c0 f i libucrtd:output.obj
 0001:000377f0       ??$read_va_arg@H@__crt_stdio_output@@YAHAAPAD@Z 004387f0 f i libucrtd:output.obj
 0001:00037820       ??$read_va_arg@I@__crt_stdio_output@@YAIAAPAD@Z 00438820 f i libucrtd:output.obj
 0001:00037850       ??$read_va_arg@PAD@__crt_stdio_output@@YAPADAAPAD@Z 00438850 f i libucrtd:output.obj
 0001:00037ac0       ??$read_va_arg@PAX@__crt_stdio_output@@YAPAXAAPAD@Z 00438ac0 f i libucrtd:output.obj
 0001:00037af0       ??$read_va_arg@U_CRT_DOUBLE@@@__crt_stdio_output@@YA?AU_CRT_DOUBLE@@AAPAD@Z 00438af0 f i libucrtd:output.obj
 0001:00037b20       ??$read_va_arg@_J@__crt_stdio_output@@YA_JAAPAD@Z 00438b20 f i libucrtd:output.obj
 0001:00037b50       ??$read_va_arg@_K@__crt_stdio_output@@YA_KAAPAD@Z 00438b50 f i libucrtd:output.obj
 0001:00037b80       ??$read_va_arg@_W@__crt_stdio_output@@YA_WAAPAD@Z 00438b80 f i libucrtd:output.obj
 0001:00037bb0       ??$scratch_count@D@formatting_buffer@__crt_stdio_output@@QBEIXZ 00438bb0 f i libucrtd:output.obj
 0001:00037bd0       ??$scratch_data@D@formatting_buffer@__crt_stdio_output@@QAEPADXZ 00438bd0 f i libucrtd:output.obj
 0001:00037c30       ??$tcstol@AAPBDPAPADH@?$__crt_char_traits@D@@SAJAAPBD$$QAPAPAD$$QAH@Z 00438c30 f i libucrtd:output.obj
 0001:00037c60       ??$tcstol@AAPB_WPAPA_WH@?$__crt_char_traits@_W@@SAJAAPB_W$$QAPAPA_W$$QAH@Z 00438c60 f i libucrtd:output.obj
 0001:00037c90       ??$tcstol@PBDPAPADH@?$__crt_char_traits@D@@SAJ$$QAPBD$$QAPAPAD$$QAH@Z 00438c90 f i libucrtd:output.obj
 0001:00037cc0       ??$tcstol@PB_WPAPA_WH@?$__crt_char_traits@_W@@SAJ$$QAPB_W$$QAPAPA_W$$QAH@Z 00438cc0 f i libucrtd:output.obj
 0001:00037cf0       ??$type_case_integer_parse_into_buffer@I@?$output_processor@DV?$stream_output_adapter@D@__crt_stdio_output@@V?$format_validation_base@DV?$stream_output_adapter@D@__crt_stdio_output@@@2@@__crt_stdio_output@@AAEXII_N@Z 00438cf0 f i libucrtd:output.obj
 0001:00037e00       ??$type_case_integer_parse_into_buffer@I@?$output_processor@DV?$stream_output_adapter@D@__crt_stdio_output@@V?$positional_parameter_base@DV?$stream_output_adapter@D@__crt_stdio_output@@@2@@__crt_stdio_output@@AAEXII_N@Z 00438e00 f i libucrtd:output.obj
 0001:00037f10       ??$type_case_integer_parse_into_buffer@I@?$output_processor@DV?$stream_output_adapter@D@__crt_stdio_output@@V?$standard_base@DV?$stream_output_adapter@D@__crt_stdio_output@@@2@@__crt_stdio_output@@AAEXII_N@Z 00438f10 f i libucrtd:output.obj
 0001:00038020       ??$type_case_integer_parse_into_buffer@I@?$output_processor@DV?$string_output_adapter@D@__crt_stdio_output@@V?$format_validation_base@DV?$string_output_adapter@D@__crt_stdio_output@@@2@@__crt_stdio_output@@AAEXII_N@Z 00439020 f i libucrtd:output.obj
 0001:00038130       ??$type_case_integer_parse_into_buffer@I@?$output_processor@DV?$string_output_adapter@D@__crt_stdio_output@@V?$positional_parameter_base@DV?$string_output_adapter@D@__crt_stdio_output@@@2@@__crt_stdio_output@@AAEXII_N@Z 00439130 f i libucrtd:output.obj
 0001:00038240       ??$type_case_integer_parse_into_buffer@I@?$output_processor@DV?$string_output_adapter@D@__crt_stdio_output@@V?$standard_base@DV?$string_output_adapter@D@__crt_stdio_output@@@2@@__crt_stdio_output@@AAEXII_N@Z 00439240 f i libucrtd:output.obj
 0001:00038350       ??$type_case_integer_parse_into_buffer@I@?$output_processor@_WV?$stream_output_adapter@_W@__crt_stdio_output@@V?$format_validation_base@_WV?$stream_output_adapter@_W@__crt_stdio_output@@@2@@__crt_stdio_output@@AAEXII_N@Z 00439350 f i libucrtd:output.obj
 0001:00038460       ??$type_case_integer_parse_into_buffer@I@?$output_processor@_WV?$stream_output_adapter@_W@__crt_stdio_output@@V?$positional_parameter_base@_WV?$stream_output_adapter@_W@__crt_stdio_output@@@2@@__crt_stdio_output@@AAEXII_N@Z 00439460 f i libucrtd:output.obj
 0001:00038570       ??$type_case_integer_parse_into_buffer@I@?$output_processor@_WV?$stream_output_adapter@_W@__crt_stdio_output@@V?$standard_base@_WV?$stream_output_adapter@_W@__crt_stdio_output@@@2@@__crt_stdio_output@@AAEXII_N@Z 00439570 f i libucrtd:output.obj
 0001:00038680       ??$type_case_integer_parse_into_buffer@I@?$output_processor@_WV?$string_output_adapter@_W@__crt_stdio_output@@V?$format_validation_base@_WV?$string_output_adapter@_W@__crt_stdio_output@@@2@@__crt_stdio_output@@AAEXII_N@Z 00439680 f i libucrtd:output.obj
 0001:00038790       ??$type_case_integer_parse_into_buffer@I@?$output_processor@_WV?$string_output_adapter@_W@__crt_stdio_output@@V?$positional_parameter_base@_WV?$string_output_adapter@_W@__crt_stdio_output@@@2@@__crt_stdio_output@@AAEXII_N@Z 00439790 f i libucrtd:output.obj
 0001:000388a0       ??$type_case_integer_parse_into_buffer@I@?$output_processor@_WV?$string_output_adapter@_W@__crt_stdio_output@@V?$standard_base@_WV?$string_output_adapter@_W@__crt_stdio_output@@@2@@__crt_stdio_output@@AAEXII_N@Z 004398a0 f i libucrtd:output.obj
 0001:000389b0       ??$type_case_integer_parse_into_buffer@_K@?$output_processor@DV?$stream_output_adapter@D@__crt_stdio_output@@V?$format_validation_base@DV?$stream_output_adapter@D@__crt_stdio_output@@@2@@__crt_stdio_output@@AAEX_KI_N@Z 004399b0 f i libucrtd:output.obj
 0001:00038af0       ??$type_case_integer_parse_into_buffer@_K@?$output_processor@DV?$stream_output_adapter@D@__crt_stdio_output@@V?$positional_parameter_base@DV?$stream_output_adapter@D@__crt_stdio_output@@@2@@__crt_stdio_output@@AAEX_KI_N@Z 00439af0 f i libucrtd:output.obj
 0001:00038c30       ??$type_case_integer_parse_into_buffer@_K@?$output_processor@DV?$stream_output_adapter@D@__crt_stdio_output@@V?$standard_base@DV?$stream_output_adapter@D@__crt_stdio_output@@@2@@__crt_stdio_output@@AAEX_KI_N@Z 00439c30 f i libucrtd:output.obj
 0001:00038d70       ??$type_case_integer_parse_into_buffer@_K@?$output_processor@DV?$string_output_adapter@D@__crt_stdio_output@@V?$format_validation_base@DV?$string_output_adapter@D@__crt_stdio_output@@@2@@__crt_stdio_output@@AAEX_KI_N@Z 00439d70 f i libucrtd:output.obj
 0001:00038eb0       ??$type_case_integer_parse_into_buffer@_K@?$output_processor@DV?$string_output_adapter@D@__crt_stdio_output@@V?$positional_parameter_base@DV?$string_output_adapter@D@__crt_stdio_output@@@2@@__crt_stdio_output@@AAEX_KI_N@Z 00439eb0 f i libucrtd:output.obj
 0001:00038ff0       ??$type_case_integer_parse_into_buffer@_K@?$output_processor@DV?$string_output_adapter@D@__crt_stdio_output@@V?$standard_base@DV?$string_output_adapter@D@__crt_stdio_output@@@2@@__crt_stdio_output@@AAEX_KI_N@Z 00439ff0 f i libucrtd:output.obj
 0001:00039130       ??$type_case_integer_parse_into_buffer@_K@?$output_processor@_WV?$stream_output_adapter@_W@__crt_stdio_output@@V?$format_validation_base@_WV?$stream_output_adapter@_W@__crt_stdio_output@@@2@@__crt_stdio_output@@AAEX_KI_N@Z 0043a130 f i libucrtd:output.obj
 0001:00039270       ??$type_case_integer_parse_into_buffer@_K@?$output_processor@_WV?$stream_output_adapter@_W@__crt_stdio_output@@V?$positional_parameter_base@_WV?$stream_output_adapter@_W@__crt_stdio_output@@@2@@__crt_stdio_output@@AAEX_KI_N@Z 0043a270 f i libucrtd:output.obj
 0001:000393b0       ??$type_case_integer_parse_into_buffer@_K@?$output_processor@_WV?$stream_output_adapter@_W@__crt_stdio_output@@V?$standard_base@_WV?$stream_output_adapter@_W@__crt_stdio_output@@@2@@__crt_stdio_output@@AAEX_KI_N@Z 0043a3b0 f i libucrtd:output.obj
 0001:000394f0       ??$type_case_integer_parse_into_buffer@_K@?$output_processor@_WV?$string_output_adapter@_W@__crt_stdio_output@@V?$format_validation_base@_WV?$string_output_adapter@_W@__crt_stdio_output@@@2@@__crt_stdio_output@@AAEX_KI_N@Z 0043a4f0 f i libucrtd:output.obj
 0001:00039630       ??$type_case_integer_parse_into_buffer@_K@?$output_processor@_WV?$string_output_adapter@_W@__crt_stdio_output@@V?$positional_parameter_base@_WV?$string_output_adapter@_W@__crt_stdio_output@@@2@@__crt_stdio_output@@AAEX_KI_N@Z 0043a630 f i libucrtd:output.obj
 0001:00039770       ??$type_case_integer_parse_into_buffer@_K@?$output_processor@_WV?$string_output_adapter@_W@__crt_stdio_output@@V?$standard_base@_WV?$string_output_adapter@_W@__crt_stdio_output@@@2@@__crt_stdio_output@@AAEX_KI_N@Z 0043a770 f i libucrtd:output.obj
 0001:000398b0       ??$write_multiple_characters@V?$stream_output_adapter@D@__crt_stdio_output@@D@__crt_stdio_output@@YAXABV?$stream_output_adapter@D@0@DHQAH@Z 0043a8b0 f i libucrtd:output.obj
 0001:00039910       ??$write_multiple_characters@V?$stream_output_adapter@_W@__crt_stdio_output@@D@__crt_stdio_output@@YAXABV?$stream_output_adapter@_W@0@DHQAH@Z 0043a910 f i libucrtd:output.obj
 0001:00039970       ??$write_multiple_characters@V?$string_output_adapter@D@__crt_stdio_output@@D@__crt_stdio_output@@YAXABV?$string_output_adapter@D@0@DHQAH@Z 0043a970 f i libucrtd:output.obj
 0001:000399d0       ??$write_multiple_characters@V?$string_output_adapter@_W@__crt_stdio_output@@D@__crt_stdio_output@@YAXABV?$string_output_adapter@_W@0@DHQAH@Z 0043a9d0 f i libucrtd:output.obj
 0001:00039e50       ??0?$common_data@D@__crt_stdio_output@@IAE@XZ 0043ae50 f i libucrtd:output.obj
 0001:00039f20       ??0?$common_data@_W@__crt_stdio_output@@IAE@XZ 0043af20 f i libucrtd:output.obj
 0001:00039ff0       ??0?$output_adapter_data@DV?$stream_output_adapter@D@__crt_stdio_output@@@__crt_stdio_output@@IAE@ABV?$stream_output_adapter@D@1@_KQBDQAU__crt_locale_pointers@@QAD@Z 0043aff0 f i libucrtd:output.obj
 0001:0003a060       ??0?$output_adapter_data@DV?$string_output_adapter@D@__crt_stdio_output@@@__crt_stdio_output@@IAE@ABV?$string_output_adapter@D@1@_KQBDQAU__crt_locale_pointers@@QAD@Z 0043b060 f i libucrtd:output.obj
 0001:0003a0d0       ??0?$output_adapter_data@_WV?$stream_output_adapter@_W@__crt_stdio_output@@@__crt_stdio_output@@IAE@ABV?$stream_output_adapter@_W@1@_KQB_WQAU__crt_locale_pointers@@QAD@Z 0043b0d0 f i libucrtd:output.obj
 0001:0003a140       ??0?$output_adapter_data@_WV?$string_output_adapter@_W@__crt_stdio_output@@@__crt_stdio_output@@IAE@ABV?$string_output_adapter@_W@1@_KQB_WQAU__crt_locale_pointers@@QAD@Z 0043b140 f i libucrtd:output.obj
 0001:0003a1b0       ??0?$output_processor@DV?$stream_output_adapter@D@__crt_stdio_output@@V?$format_validation_base@DV?$stream_output_adapter@D@__crt_stdio_output@@@2@@__crt_stdio_output@@QAE@ABV?$stream_output_adapter@D@1@_KQBDQAU__crt_locale_pointers@@QAD@Z 0043b1b0 f i libucrtd:output.obj
 0001:0003a1f0       ??0?$output_processor@DV?$stream_output_adapter@D@__crt_stdio_output@@V?$positional_parameter_base@DV?$stream_output_adapter@D@__crt_stdio_output@@@2@@__crt_stdio_output@@QAE@ABV?$stream_output_adapter@D@1@_KQBDQAU__crt_locale_pointers@@QAD@Z 0043b1f0 f i libucrtd:output.obj
 0001:0003a230       ??0?$output_processor@DV?$stream_output_adapter@D@__crt_stdio_output@@V?$standard_base@DV?$stream_output_adapter@D@__crt_stdio_output@@@2@@__crt_stdio_output@@QAE@ABV?$stream_output_adapter@D@1@_KQBDQAU__crt_locale_pointers@@QAD@Z 0043b230 f i libucrtd:output.obj
 0001:0003a270       ??0?$output_processor@DV?$string_output_adapter@D@__crt_stdio_output@@V?$format_validation_base@DV?$string_output_adapter@D@__crt_stdio_output@@@2@@__crt_stdio_output@@QAE@ABV?$string_output_adapter@D@1@_KQBDQAU__crt_locale_pointers@@QAD@Z 0043b270 f i libucrtd:output.obj
 0001:0003a2b0       ??0?$output_processor@DV?$string_output_adapter@D@__crt_stdio_output@@V?$positional_parameter_base@DV?$string_output_adapter@D@__crt_stdio_output@@@2@@__crt_stdio_output@@QAE@ABV?$string_output_adapter@D@1@_KQBDQAU__crt_locale_pointers@@QAD@Z 0043b2b0 f i libucrtd:output.obj
 0001:0003a2f0       ??0?$output_processor@DV?$string_output_adapter@D@__crt_stdio_output@@V?$standard_base@DV?$string_output_adapter@D@__crt_stdio_output@@@2@@__crt_stdio_output@@QAE@ABV?$string_output_adapter@D@1@_KQBDQAU__crt_locale_pointers@@QAD@Z 0043b2f0 f i libucrtd:output.obj
 0001:0003a330       ??0?$output_processor@_WV?$stream_output_adapter@_W@__crt_stdio_output@@V?$format_validation_base@_WV?$stream_output_adapter@_W@__crt_stdio_output@@@2@@__crt_stdio_output@@QAE@ABV?$stream_output_adapter@_W@1@_KQB_WQAU__crt_locale_pointers@@QAD@Z 0043b330 f i libucrtd:output.obj
 0001:0003a370       ??0?$output_processor@_WV?$stream_output_adapter@_W@__crt_stdio_output@@V?$positional_parameter_base@_WV?$stream_output_adapter@_W@__crt_stdio_output@@@2@@__crt_stdio_output@@QAE@ABV?$stream_output_adapter@_W@1@_KQB_WQAU__crt_locale_pointers@@QAD@Z 0043b370 f i libucrtd:output.obj
 0001:0003a3b0       ??0?$output_processor@_WV?$stream_output_adapter@_W@__crt_stdio_output@@V?$standard_base@_WV?$stream_output_adapter@_W@__crt_stdio_output@@@2@@__crt_stdio_output@@QAE@ABV?$stream_output_adapter@_W@1@_KQB_WQAU__crt_locale_pointers@@QAD@Z 0043b3b0 f i libucrtd:output.obj
 0001:0003a3f0       ??0?$output_processor@_WV?$string_output_adapter@_W@__crt_stdio_output@@V?$format_validation_base@_WV?$string_output_adapter@_W@__crt_stdio_output@@@2@@__crt_stdio_output@@QAE@ABV?$string_output_adapter@_W@1@_KQB_WQAU__crt_locale_pointers@@QAD@Z 0043b3f0 f i libucrtd:output.obj
 0001:0003a430       ??0?$output_processor@_WV?$string_output_adapter@_W@__crt_stdio_output@@V?$positional_parameter_base@_WV?$string_output_adapter@_W@__crt_stdio_output@@@2@@__crt_stdio_output@@QAE@ABV?$string_output_adapter@_W@1@_KQB_WQAU__crt_locale_pointers@@QAD@Z 0043b430 f i libucrtd:output.obj
 0001:0003a470       ??0?$output_processor@_WV?$string_output_adapter@_W@__crt_stdio_output@@V?$standard_base@_WV?$string_output_adapter@_W@__crt_stdio_output@@@2@@__crt_stdio_output@@QAE@ABV?$string_output_adapter@_W@1@_KQB_WQAU__crt_locale_pointers@@QAD@Z 0043b470 f i libucrtd:output.obj
 0001:0003a4b0       ??0?$stream_output_adapter@D@__crt_stdio_output@@QAE@QAU_iobuf@@@Z 0043b4b0 f i libucrtd:output.obj
 0001:0003a4e0       ??0?$stream_output_adapter@_W@__crt_stdio_output@@QAE@QAU_iobuf@@@Z 0043b4e0 f i libucrtd:output.obj
 0001:0003a510       ??0?$string_output_adapter@D@__crt_stdio_output@@QAE@QAU?$string_output_adapter_context@D@1@@Z 0043b510 f i libucrtd:output.obj
 0001:0003a530       ??0?$string_output_adapter@_W@__crt_stdio_output@@QAE@QAU?$string_output_adapter_context@_W@1@@Z 0043b530 f i libucrtd:output.obj
 0001:0003a550       ??0__acrt_stdio_temporary_buffering_guard@@QAE@QAU_iobuf@@@Z 0043b550 f i libucrtd:output.obj
 0001:0003a590       ??0__crt_deferred_errno_cache@@QAE@XZ 0043b590 f i libucrtd:output.obj
 0001:0003a5b0       ??0__crt_errno_guard@@QAE@QAH@Z 0043b5b0 f i libucrtd:output.obj
 0001:0003a5f0       ??0formatting_buffer@__crt_stdio_output@@QAE@XZ 0043b5f0 f i libucrtd:output.obj
 0001:0003a630       ??1?$common_data@D@__crt_stdio_output@@QAE@XZ 0043b630 f i libucrtd:output.obj
 0001:0003a650       ??1?$common_data@_W@__crt_stdio_output@@QAE@XZ 0043b650 f i libucrtd:output.obj
 0001:0003a670       ??1?$format_validation_base@DV?$stream_output_adapter@D@__crt_stdio_output@@@__crt_stdio_output@@QAE@XZ 0043b670 f i libucrtd:output.obj
 0001:0003a690       ??1?$format_validation_base@DV?$string_output_adapter@D@__crt_stdio_output@@@__crt_stdio_output@@QAE@XZ 0043b690 f i libucrtd:output.obj
 0001:0003a6b0       ??1?$format_validation_base@_WV?$stream_output_adapter@_W@__crt_stdio_output@@@__crt_stdio_output@@QAE@XZ 0043b6b0 f i libucrtd:output.obj
 0001:0003a6d0       ??1?$format_validation_base@_WV?$string_output_adapter@_W@__crt_stdio_output@@@__crt_stdio_output@@QAE@XZ 0043b6d0 f i libucrtd:output.obj
 0001:0003a6f0       ??1?$output_adapter_data@DV?$stream_output_adapter@D@__crt_stdio_output@@@__crt_stdio_output@@QAE@XZ 0043b6f0 f i libucrtd:output.obj
 0001:0003a710       ??1?$output_adapter_data@DV?$string_output_adapter@D@__crt_stdio_output@@@__crt_stdio_output@@QAE@XZ 0043b710 f i libucrtd:output.obj
 0001:0003a730       ??1?$output_adapter_data@_WV?$stream_output_adapter@_W@__crt_stdio_output@@@__crt_stdio_output@@QAE@XZ 0043b730 f i libucrtd:output.obj
 0001:0003a750       ??1?$output_adapter_data@_WV?$string_output_adapter@_W@__crt_stdio_output@@@__crt_stdio_output@@QAE@XZ 0043b750 f i libucrtd:output.obj
 0001:0003a770       ??1?$output_processor@DV?$stream_output_adapter@D@__crt_stdio_output@@V?$format_validation_base@DV?$stream_output_adapter@D@__crt_stdio_output@@@2@@__crt_stdio_output@@QAE@XZ 0043b770 f i libucrtd:output.obj
 0001:0003a790       ??1?$output_processor@DV?$stream_output_adapter@D@__crt_stdio_output@@V?$positional_parameter_base@DV?$stream_output_adapter@D@__crt_stdio_output@@@2@@__crt_stdio_output@@QAE@XZ 0043b790 f i libucrtd:output.obj
 0001:0003a7b0       ??1?$output_processor@DV?$stream_output_adapter@D@__crt_stdio_output@@V?$standard_base@DV?$stream_output_adapter@D@__crt_stdio_output@@@2@@__crt_stdio_output@@QAE@XZ 0043b7b0 f i libucrtd:output.obj
 0001:0003a7d0       ??1?$output_processor@DV?$string_output_adapter@D@__crt_stdio_output@@V?$format_validation_base@DV?$string_output_adapter@D@__crt_stdio_output@@@2@@__crt_stdio_output@@QAE@XZ 0043b7d0 f i libucrtd:output.obj
 0001:0003a7f0       ??1?$output_processor@DV?$string_output_adapter@D@__crt_stdio_output@@V?$positional_parameter_base@DV?$string_output_adapter@D@__crt_stdio_output@@@2@@__crt_stdio_output@@QAE@XZ 0043b7f0 f i libucrtd:output.obj
 0001:0003a810       ??1?$output_processor@DV?$string_output_adapter@D@__crt_stdio_output@@V?$standard_base@DV?$string_output_adapter@D@__crt_stdio_output@@@2@@__crt_stdio_output@@QAE@XZ 0043b810 f i libucrtd:output.obj
 0001:0003a830       ??1?$output_processor@_WV?$stream_output_adapter@_W@__crt_stdio_output@@V?$format_validation_base@_WV?$stream_output_adapter@_W@__crt_stdio_output@@@2@@__crt_stdio_output@@QAE@XZ 0043b830 f i libucrtd:output.obj
 0001:0003a850       ??1?$output_processor@_WV?$stream_output_adapter@_W@__crt_stdio_output@@V?$positional_parameter_base@_WV?$stream_output_adapter@_W@__crt_stdio_output@@@2@@__crt_stdio_output@@QAE@XZ 0043b850 f i libucrtd:output.obj
 0001:0003a870       ??1?$output_processor@_WV?$stream_output_adapter@_W@__crt_stdio_output@@V?$standard_base@_WV?$stream_output_adapter@_W@__crt_stdio_output@@@2@@__crt_stdio_output@@QAE@XZ 0043b870 f i libucrtd:output.obj
 0001:0003a890       ??1?$output_processor@_WV?$string_output_adapter@_W@__crt_stdio_output@@V?$format_validation_base@_WV?$string_output_adapter@_W@__crt_stdio_output@@@2@@__crt_stdio_output@@QAE@XZ 0043b890 f i libucrtd:output.obj
 0001:0003a8b0       ??1?$output_processor@_WV?$string_output_adapter@_W@__crt_stdio_output@@V?$positional_parameter_base@_WV?$string_output_adapter@_W@__crt_stdio_output@@@2@@__crt_stdio_output@@QAE@XZ 0043b8b0 f i libucrtd:output.obj
 0001:0003a8d0       ??1?$output_processor@_WV?$string_output_adapter@_W@__crt_stdio_output@@V?$standard_base@_WV?$string_output_adapter@_W@__crt_stdio_output@@@2@@__crt_stdio_output@@QAE@XZ 0043b8d0 f i libucrtd:output.obj
 0001:0003a8f0       ??1?$positional_parameter_base@DV?$stream_output_adapter@D@__crt_stdio_output@@@__crt_stdio_output@@QAE@XZ 0043b8f0 f i libucrtd:output.obj
 0001:0003a910       ??1?$positional_parameter_base@DV?$string_output_adapter@D@__crt_stdio_output@@@__crt_stdio_output@@QAE@XZ 0043b910 f i libucrtd:output.obj
 0001:0003a930       ??1?$positional_parameter_base@_WV?$stream_output_adapter@_W@__crt_stdio_output@@@__crt_stdio_output@@QAE@XZ 0043b930 f i libucrtd:output.obj
 0001:0003a950       ??1?$positional_parameter_base@_WV?$string_output_adapter@_W@__crt_stdio_output@@@__crt_stdio_output@@QAE@XZ 0043b950 f i libucrtd:output.obj
 0001:0003a970       ??1?$standard_base@DV?$stream_output_adapter@D@__crt_stdio_output@@@__crt_stdio_output@@QAE@XZ 0043b970 f i libucrtd:output.obj
 0001:0003a990       ??1?$standard_base@DV?$string_output_adapter@D@__crt_stdio_output@@@__crt_stdio_output@@QAE@XZ 0043b990 f i libucrtd:output.obj
 0001:0003a9b0       ??1?$standard_base@_WV?$stream_output_adapter@_W@__crt_stdio_output@@@__crt_stdio_output@@QAE@XZ 0043b9b0 f i libucrtd:output.obj
 0001:0003a9d0       ??1?$standard_base@_WV?$string_output_adapter@_W@__crt_stdio_output@@@__crt_stdio_output@@QAE@XZ 0043b9d0 f i libucrtd:output.obj
 0001:0003a9f0       ??1__acrt_stdio_temporary_buffering_guard@@QAE@XZ 0043b9f0 f i libucrtd:output.obj
 0001:0003aa20       ??1__crt_errno_guard@@QAE@XZ 0043ba20 f i libucrtd:output.obj
 0001:0003aa60       ??1formatting_buffer@__crt_stdio_output@@QAE@XZ 0043ba60 f i libucrtd:output.obj
 0001:0003aa90       ??4?$__crt_unique_heap_ptr@DU__crt_internal_free_policy@@@@QAEAAV0@$$QAV0@@Z 0043ba90 f i libucrtd:output.obj
 0001:0003b3d0       ?adjust_hexit@?$output_processor@DV?$stream_output_adapter@D@__crt_stdio_output@@V?$format_validation_base@DV?$stream_output_adapter@D@__crt_stdio_output@@@2@@__crt_stdio_output@@CADH_N@Z 0043c3d0 f i libucrtd:output.obj
 0001:0003b420       ?adjust_hexit@?$output_processor@DV?$stream_output_adapter@D@__crt_stdio_output@@V?$positional_parameter_base@DV?$stream_output_adapter@D@__crt_stdio_output@@@2@@__crt_stdio_output@@CADH_N@Z 0043c420 f i libucrtd:output.obj
 0001:0003b470       ?adjust_hexit@?$output_processor@DV?$stream_output_adapter@D@__crt_stdio_output@@V?$standard_base@DV?$stream_output_adapter@D@__crt_stdio_output@@@2@@__crt_stdio_output@@CADH_N@Z 0043c470 f i libucrtd:output.obj
 0001:0003b4c0       ?adjust_hexit@?$output_processor@DV?$string_output_adapter@D@__crt_stdio_output@@V?$format_validation_base@DV?$string_output_adapter@D@__crt_stdio_output@@@2@@__crt_stdio_output@@CADH_N@Z 0043c4c0 f i libucrtd:output.obj
 0001:0003b510       ?adjust_hexit@?$output_processor@DV?$string_output_adapter@D@__crt_stdio_output@@V?$positional_parameter_base@DV?$string_output_adapter@D@__crt_stdio_output@@@2@@__crt_stdio_output@@CADH_N@Z 0043c510 f i libucrtd:output.obj
 0001:0003b560       ?adjust_hexit@?$output_processor@DV?$string_output_adapter@D@__crt_stdio_output@@V?$standard_base@DV?$string_output_adapter@D@__crt_stdio_output@@@2@@__crt_stdio_output@@CADH_N@Z 0043c560 f i libucrtd:output.obj
 0001:0003b5b0       ?adjust_hexit@?$output_processor@_WV?$stream_output_adapter@_W@__crt_stdio_output@@V?$format_validation_base@_WV?$stream_output_adapter@_W@__crt_stdio_output@@@2@@__crt_stdio_output@@CADH_N@Z 0043c5b0 f i libucrtd:output.obj
 0001:0003b600       ?adjust_hexit@?$output_processor@_WV?$stream_output_adapter@_W@__crt_stdio_output@@V?$positional_parameter_base@_WV?$stream_output_adapter@_W@__crt_stdio_output@@@2@@__crt_stdio_output@@CADH_N@Z 0043c600 f i libucrtd:output.obj
 0001:0003b650       ?adjust_hexit@?$output_processor@_WV?$stream_output_adapter@_W@__crt_stdio_output@@V?$standard_base@_WV?$stream_output_adapter@_W@__crt_stdio_output@@@2@@__crt_stdio_output@@CADH_N@Z 0043c650 f i libucrtd:output.obj
 0001:0003b6a0       ?adjust_hexit@?$output_processor@_WV?$string_output_adapter@_W@__crt_stdio_output@@V?$format_validation_base@_WV?$string_output_adapter@_W@__crt_stdio_output@@@2@@__crt_stdio_output@@CADH_N@Z 0043c6a0 f i libucrtd:output.obj
 0001:0003b6f0       ?adjust_hexit@?$output_processor@_WV?$string_output_adapter@_W@__crt_stdio_output@@V?$positional_parameter_base@_WV?$string_output_adapter@_W@__crt_stdio_output@@@2@@__crt_stdio_output@@CADH_N@Z 0043c6f0 f i libucrtd:output.obj
 0001:0003b740       ?adjust_hexit@?$output_processor@_WV?$string_output_adapter@_W@__crt_stdio_output@@V?$standard_base@_WV?$string_output_adapter@_W@__crt_stdio_output@@@2@@__crt_stdio_output@@CADH_N@Z 0043c740 f i libucrtd:output.obj
 0001:0003b790       ?advance_to_next_pass@?$positional_parameter_base@DV?$stream_output_adapter@D@__crt_stdio_output@@@__crt_stdio_output@@IAE_NXZ 0043c790 f i libucrtd:output.obj
 0001:0003b850       ?advance_to_next_pass@?$positional_parameter_base@DV?$string_output_adapter@D@__crt_stdio_output@@@__crt_stdio_output@@IAE_NXZ 0043c850 f i libucrtd:output.obj
 0001:0003b910       ?advance_to_next_pass@?$positional_parameter_base@_WV?$stream_output_adapter@_W@__crt_stdio_output@@@__crt_stdio_output@@IAE_NXZ 0043c910 f i libucrtd:output.obj
 0001:0003b9d0       ?advance_to_next_pass@?$positional_parameter_base@_WV?$string_output_adapter@_W@__crt_stdio_output@@@__crt_stdio_output@@IAE_NXZ 0043c9d0 f i libucrtd:output.obj
 0001:0003ba90       ?advance_to_next_pass@?$standard_base@DV?$stream_output_adapter@D@__crt_stdio_output@@@__crt_stdio_output@@IAE_NXZ 0043ca90 f i libucrtd:output.obj
 0001:0003baf0       ?advance_to_next_pass@?$standard_base@DV?$string_output_adapter@D@__crt_stdio_output@@@__crt_stdio_output@@IAE_NXZ 0043caf0 f i libucrtd:output.obj
 0001:0003bb50       ?advance_to_next_pass@?$standard_base@_WV?$stream_output_adapter@_W@__crt_stdio_output@@@__crt_stdio_output@@IAE_NXZ 0043cb50 f i libucrtd:output.obj
 0001:0003bbb0       ?advance_to_next_pass@?$standard_base@_WV?$string_output_adapter@_W@__crt_stdio_output@@@__crt_stdio_output@@IAE_NXZ 0043cbb0 f i libucrtd:output.obj
 0001:0003bc10       ?crop_zeroes@__crt_stdio_output@@YAXPADQAU__crt_locale_pointers@@@Z 0043cc10 f i libucrtd:output.obj
 0001:0003bd40       ?find_next_state@?$output_processor@DV?$stream_output_adapter@D@__crt_stdio_output@@V?$format_validation_base@DV?$stream_output_adapter@D@__crt_stdio_output@@@2@@__crt_stdio_output@@ABE?AW4state@2@DW432@@Z 0043cd40 f i libucrtd:output.obj
 0001:0003bdd0       ?find_next_state@?$output_processor@DV?$stream_output_adapter@D@__crt_stdio_output@@V?$positional_parameter_base@DV?$stream_output_adapter@D@__crt_stdio_output@@@2@@__crt_stdio_output@@ABE?AW4state@2@DW432@@Z 0043cdd0 f i libucrtd:output.obj
 0001:0003be60       ?find_next_state@?$output_processor@DV?$stream_output_adapter@D@__crt_stdio_output@@V?$standard_base@DV?$stream_output_adapter@D@__crt_stdio_output@@@2@@__crt_stdio_output@@ABE?AW4state@2@DW432@@Z 0043ce60 f i libucrtd:output.obj
 0001:0003bef0       ?find_next_state@?$output_processor@DV?$string_output_adapter@D@__crt_stdio_output@@V?$format_validation_base@DV?$string_output_adapter@D@__crt_stdio_output@@@2@@__crt_stdio_output@@ABE?AW4state@2@DW432@@Z 0043cef0 f i libucrtd:output.obj
 0001:0003bf80       ?find_next_state@?$output_processor@DV?$string_output_adapter@D@__crt_stdio_output@@V?$positional_parameter_base@DV?$string_output_adapter@D@__crt_stdio_output@@@2@@__crt_stdio_output@@ABE?AW4state@2@DW432@@Z 0043cf80 f i libucrtd:output.obj
 0001:0003c010       ?find_next_state@?$output_processor@DV?$string_output_adapter@D@__crt_stdio_output@@V?$standard_base@DV?$string_output_adapter@D@__crt_stdio_output@@@2@@__crt_stdio_output@@ABE?AW4state@2@DW432@@Z 0043d010 f i libucrtd:output.obj
 0001:0003c0a0       ?find_next_state@?$output_processor@_WV?$stream_output_adapter@_W@__crt_stdio_output@@V?$format_validation_base@_WV?$stream_output_adapter@_W@__crt_stdio_output@@@2@@__crt_stdio_output@@ABE?AW4state@2@_WW432@@Z 0043d0a0 f i libucrtd:output.obj
 0001:0003c130       ?find_next_state@?$output_processor@_WV?$stream_output_adapter@_W@__crt_stdio_output@@V?$positional_parameter_base@_WV?$stream_output_adapter@_W@__crt_stdio_output@@@2@@__crt_stdio_output@@ABE?AW4state@2@_WW432@@Z 0043d130 f i libucrtd:output.obj
 0001:0003c1c0       ?find_next_state@?$output_processor@_WV?$stream_output_adapter@_W@__crt_stdio_output@@V?$standard_base@_WV?$stream_output_adapter@_W@__crt_stdio_output@@@2@@__crt_stdio_output@@ABE?AW4state@2@_WW432@@Z 0043d1c0 f i libucrtd:output.obj
 0001:0003c250       ?find_next_state@?$output_processor@_WV?$string_output_adapter@_W@__crt_stdio_output@@V?$format_validation_base@_WV?$string_output_adapter@_W@__crt_stdio_output@@@2@@__crt_stdio_output@@ABE?AW4state@2@_WW432@@Z 0043d250 f i libucrtd:output.obj
 0001:0003c2e0       ?find_next_state@?$output_processor@_WV?$string_output_adapter@_W@__crt_stdio_output@@V?$positional_parameter_base@_WV?$string_output_adapter@_W@__crt_stdio_output@@@2@@__crt_stdio_output@@ABE?AW4state@2@_WW432@@Z 0043d2e0 f i libucrtd:output.obj
 0001:0003c370       ?find_next_state@?$output_processor@_WV?$string_output_adapter@_W@__crt_stdio_output@@V?$standard_base@_WV?$string_output_adapter@_W@__crt_stdio_output@@@2@@__crt_stdio_output@@ABE?AW4state@2@_WW432@@Z 0043d370 f i libucrtd:output.obj
 0001:0003c400       ?force_decimal_point@__crt_stdio_output@@YAXPADQAU__crt_locale_pointers@@@Z 0043d400 f i libucrtd:output.obj
 0001:0003c4e0       ?get@__crt_deferred_errno_cache@@QAEAAHXZ 0043d4e0 f i libucrtd:output.obj
 0001:0003c510       ?get_parameter_type@?$positional_parameter_base@DV?$stream_output_adapter@D@__crt_stdio_output@@@__crt_stdio_output@@CA?AW4parameter_type@12@F@Z 0043d510 f i libucrtd:output.obj
 0001:0003c520       ?get_parameter_type@?$positional_parameter_base@DV?$stream_output_adapter@D@__crt_stdio_output@@@__crt_stdio_output@@CA?AW4parameter_type@12@G@Z 0043d520 f i libucrtd:output.obj
 0001:0003c530       ?get_parameter_type@?$positional_parameter_base@DV?$stream_output_adapter@D@__crt_stdio_output@@@__crt_stdio_output@@CA?AW4parameter_type@12@H@Z 0043d530 f i libucrtd:output.obj
 0001:0003c540       ?get_parameter_type@?$positional_parameter_base@DV?$stream_output_adapter@D@__crt_stdio_output@@@__crt_stdio_output@@CA?AW4parameter_type@12@I@Z 0043d540 f i libucrtd:output.obj
 0001:0003c550       ?get_parameter_type@?$positional_parameter_base@DV?$stream_output_adapter@D@__crt_stdio_output@@@__crt_stdio_output@@CA?AW4parameter_type@12@U_CRT_DOUBLE@@@Z 0043d550 f i libucrtd:output.obj
 0001:0003c560       ?get_parameter_type@?$positional_parameter_base@DV?$stream_output_adapter@D@__crt_stdio_output@@@__crt_stdio_output@@CA?AW4parameter_type@12@_J@Z 0043d560 f i libucrtd:output.obj
 0001:0003c570       ?get_parameter_type@?$positional_parameter_base@DV?$stream_output_adapter@D@__crt_stdio_output@@@__crt_stdio_output@@CA?AW4parameter_type@12@_K@Z 0043d570 f i libucrtd:output.obj
 0001:0003c580       ?get_parameter_type@?$positional_parameter_base@DV?$stream_output_adapter@D@__crt_stdio_output@@@__crt_stdio_output@@CA?AW4parameter_type@12@_W@Z 0043d580 f i libucrtd:output.obj
 0001:0003c590       ?get_parameter_type@?$positional_parameter_base@DV?$string_output_adapter@D@__crt_stdio_output@@@__crt_stdio_output@@CA?AW4parameter_type@12@F@Z 0043d590 f i libucrtd:output.obj
 0001:0003c5a0       ?get_parameter_type@?$positional_parameter_base@DV?$string_output_adapter@D@__crt_stdio_output@@@__crt_stdio_output@@CA?AW4parameter_type@12@G@Z 0043d5a0 f i libucrtd:output.obj
 0001:0003c5b0       ?get_parameter_type@?$positional_parameter_base@DV?$string_output_adapter@D@__crt_stdio_output@@@__crt_stdio_output@@CA?AW4parameter_type@12@H@Z 0043d5b0 f i libucrtd:output.obj
 0001:0003c5c0       ?get_parameter_type@?$positional_parameter_base@DV?$string_output_adapter@D@__crt_stdio_output@@@__crt_stdio_output@@CA?AW4parameter_type@12@I@Z 0043d5c0 f i libucrtd:output.obj
 0001:0003c5d0       ?get_parameter_type@?$positional_parameter_base@DV?$string_output_adapter@D@__crt_stdio_output@@@__crt_stdio_output@@CA?AW4parameter_type@12@U_CRT_DOUBLE@@@Z 0043d5d0 f i libucrtd:output.obj
 0001:0003c5e0       ?get_parameter_type@?$positional_parameter_base@DV?$string_output_adapter@D@__crt_stdio_output@@@__crt_stdio_output@@CA?AW4parameter_type@12@_J@Z 0043d5e0 f i libucrtd:output.obj
 0001:0003c5f0       ?get_parameter_type@?$positional_parameter_base@DV?$string_output_adapter@D@__crt_stdio_output@@@__crt_stdio_output@@CA?AW4parameter_type@12@_K@Z 0043d5f0 f i libucrtd:output.obj
 0001:0003c600       ?get_parameter_type@?$positional_parameter_base@DV?$string_output_adapter@D@__crt_stdio_output@@@__crt_stdio_output@@CA?AW4parameter_type@12@_W@Z 0043d600 f i libucrtd:output.obj
 0001:0003c610       ?get_parameter_type@?$positional_parameter_base@_WV?$stream_output_adapter@_W@__crt_stdio_output@@@__crt_stdio_output@@CA?AW4parameter_type@12@F@Z 0043d610 f i libucrtd:output.obj
 0001:0003c620       ?get_parameter_type@?$positional_parameter_base@_WV?$stream_output_adapter@_W@__crt_stdio_output@@@__crt_stdio_output@@CA?AW4parameter_type@12@G@Z 0043d620 f i libucrtd:output.obj
 0001:0003c630       ?get_parameter_type@?$positional_parameter_base@_WV?$stream_output_adapter@_W@__crt_stdio_output@@@__crt_stdio_output@@CA?AW4parameter_type@12@H@Z 0043d630 f i libucrtd:output.obj
 0001:0003c640       ?get_parameter_type@?$positional_parameter_base@_WV?$stream_output_adapter@_W@__crt_stdio_output@@@__crt_stdio_output@@CA?AW4parameter_type@12@I@Z 0043d640 f i libucrtd:output.obj
 0001:0003c650       ?get_parameter_type@?$positional_parameter_base@_WV?$stream_output_adapter@_W@__crt_stdio_output@@@__crt_stdio_output@@CA?AW4parameter_type@12@U_CRT_DOUBLE@@@Z 0043d650 f i libucrtd:output.obj
 0001:0003c660       ?get_parameter_type@?$positional_parameter_base@_WV?$stream_output_adapter@_W@__crt_stdio_output@@@__crt_stdio_output@@CA?AW4parameter_type@12@_J@Z 0043d660 f i libucrtd:output.obj
 0001:0003c670       ?get_parameter_type@?$positional_parameter_base@_WV?$stream_output_adapter@_W@__crt_stdio_output@@@__crt_stdio_output@@CA?AW4parameter_type@12@_K@Z 0043d670 f i libucrtd:output.obj
 0001:0003c680       ?get_parameter_type@?$positional_parameter_base@_WV?$stream_output_adapter@_W@__crt_stdio_output@@@__crt_stdio_output@@CA?AW4parameter_type@12@_W@Z 0043d680 f i libucrtd:output.obj
 0001:0003c690       ?get_parameter_type@?$positional_parameter_base@_WV?$string_output_adapter@_W@__crt_stdio_output@@@__crt_stdio_output@@CA?AW4parameter_type@12@F@Z 0043d690 f i libucrtd:output.obj
 0001:0003c6a0       ?get_parameter_type@?$positional_parameter_base@_WV?$string_output_adapter@_W@__crt_stdio_output@@@__crt_stdio_output@@CA?AW4parameter_type@12@G@Z 0043d6a0 f i libucrtd:output.obj
 0001:0003c6b0       ?get_parameter_type@?$positional_parameter_base@_WV?$string_output_adapter@_W@__crt_stdio_output@@@__crt_stdio_output@@CA?AW4parameter_type@12@H@Z 0043d6b0 f i libucrtd:output.obj
 0001:0003c6c0       ?get_parameter_type@?$positional_parameter_base@_WV?$string_output_adapter@_W@__crt_stdio_output@@@__crt_stdio_output@@CA?AW4parameter_type@12@I@Z 0043d6c0 f i libucrtd:output.obj
 0001:0003c6d0       ?get_parameter_type@?$positional_parameter_base@_WV?$string_output_adapter@_W@__crt_stdio_output@@@__crt_stdio_output@@CA?AW4parameter_type@12@U_CRT_DOUBLE@@@Z 0043d6d0 f i libucrtd:output.obj
 0001:0003c6e0       ?get_parameter_type@?$positional_parameter_base@_WV?$string_output_adapter@_W@__crt_stdio_output@@@__crt_stdio_output@@CA?AW4parameter_type@12@_J@Z 0043d6e0 f i libucrtd:output.obj
 0001:0003c6f0       ?get_parameter_type@?$positional_parameter_base@_WV?$string_output_adapter@_W@__crt_stdio_output@@@__crt_stdio_output@@CA?AW4parameter_type@12@_K@Z 0043d6f0 f i libucrtd:output.obj
 0001:0003c700       ?get_parameter_type@?$positional_parameter_base@_WV?$string_output_adapter@_W@__crt_stdio_output@@@__crt_stdio_output@@CA?AW4parameter_type@12@_W@Z 0043d700 f i libucrtd:output.obj
 0001:0003c710       ?has_flag@?$output_processor@DV?$stream_output_adapter@D@__crt_stdio_output@@V?$format_validation_base@DV?$stream_output_adapter@D@__crt_stdio_output@@@2@@__crt_stdio_output@@ABE_NI@Z 0043d710 f i libucrtd:output.obj
 0001:0003c750       ?has_flag@?$output_processor@DV?$stream_output_adapter@D@__crt_stdio_output@@V?$positional_parameter_base@DV?$stream_output_adapter@D@__crt_stdio_output@@@2@@__crt_stdio_output@@ABE_NI@Z 0043d750 f i libucrtd:output.obj
 0001:0003c790       ?has_flag@?$output_processor@DV?$stream_output_adapter@D@__crt_stdio_output@@V?$standard_base@DV?$stream_output_adapter@D@__crt_stdio_output@@@2@@__crt_stdio_output@@ABE_NI@Z 0043d790 f i libucrtd:output.obj
 0001:0003c7d0       ?has_flag@?$output_processor@DV?$string_output_adapter@D@__crt_stdio_output@@V?$format_validation_base@DV?$string_output_adapter@D@__crt_stdio_output@@@2@@__crt_stdio_output@@ABE_NI@Z 0043d7d0 f i libucrtd:output.obj
 0001:0003c810       ?has_flag@?$output_processor@DV?$string_output_adapter@D@__crt_stdio_output@@V?$positional_parameter_base@DV?$string_output_adapter@D@__crt_stdio_output@@@2@@__crt_stdio_output@@ABE_NI@Z 0043d810 f i libucrtd:output.obj
 0001:0003c850       ?has_flag@?$output_processor@DV?$string_output_adapter@D@__crt_stdio_output@@V?$standard_base@DV?$string_output_adapter@D@__crt_stdio_output@@@2@@__crt_stdio_output@@ABE_NI@Z 0043d850 f i libucrtd:output.obj
 0001:0003c890       ?has_flag@?$output_processor@_WV?$stream_output_adapter@_W@__crt_stdio_output@@V?$format_validation_base@_WV?$stream_output_adapter@_W@__crt_stdio_output@@@2@@__crt_stdio_output@@ABE_NI@Z 0043d890 f i libucrtd:output.obj
 0001:0003c8d0       ?has_flag@?$output_processor@_WV?$stream_output_adapter@_W@__crt_stdio_output@@V?$positional_parameter_base@_WV?$stream_output_adapter@_W@__crt_stdio_output@@@2@@__crt_stdio_output@@ABE_NI@Z 0043d8d0 f i libucrtd:output.obj
 0001:0003c910       ?has_flag@?$output_processor@_WV?$stream_output_adapter@_W@__crt_stdio_output@@V?$standard_base@_WV?$stream_output_adapter@_W@__crt_stdio_output@@@2@@__crt_stdio_output@@ABE_NI@Z 0043d910 f i libucrtd:output.obj
 0001:0003c950       ?has_flag@?$output_processor@_WV?$string_output_adapter@_W@__crt_stdio_output@@V?$format_validation_base@_WV?$string_output_adapter@_W@__crt_stdio_output@@@2@@__crt_stdio_output@@ABE_NI@Z 0043d950 f i libucrtd:output.obj
 0001:0003c990       ?has_flag@?$output_processor@_WV?$string_output_adapter@_W@__crt_stdio_output@@V?$positional_parameter_base@_WV?$string_output_adapter@_W@__crt_stdio_output@@@2@@__crt_stdio_output@@ABE_NI@Z 0043d990 f i libucrtd:output.obj
 0001:0003c9d0       ?has_flag@?$output_processor@_WV?$string_output_adapter@_W@__crt_stdio_output@@V?$standard_base@_WV?$string_output_adapter@_W@__crt_stdio_output@@@2@@__crt_stdio_output@@ABE_NI@Z 0043d9d0 f i libucrtd:output.obj
 0001:0003ca10       ?is_positional_parameter_reappearance_consistent@?$positional_parameter_base@DV?$stream_output_adapter@D@__crt_stdio_output@@@__crt_stdio_output@@AAE_NABUparameter_data@12@W4parameter_type@12@DW4length_modifier@2@@Z 0043da10 f i libucrtd:output.obj
 0001:0003ccc0       ?is_positional_parameter_reappearance_consistent@?$positional_parameter_base@DV?$string_output_adapter@D@__crt_stdio_output@@@__crt_stdio_output@@AAE_NABUparameter_data@12@W4parameter_type@12@DW4length_modifier@2@@Z 0043dcc0 f i libucrtd:output.obj
 0001:0003cf70       ?is_positional_parameter_reappearance_consistent@?$positional_parameter_base@_WV?$stream_output_adapter@_W@__crt_stdio_output@@@__crt_stdio_output@@AAE_NABUparameter_data@12@W4parameter_type@12@_WW4length_modifier@2@@Z 0043df70 f i libucrtd:output.obj
 0001:0003d220       ?is_positional_parameter_reappearance_consistent@?$positional_parameter_base@_WV?$string_output_adapter@_W@__crt_stdio_output@@@__crt_stdio_output@@AAE_NABUparameter_data@12@W4parameter_type@12@_WW4length_modifier@2@@Z 0043e220 f i libucrtd:output.obj
 0001:0003d4d0       ?narrow_null_string@?$output_processor@DV?$stream_output_adapter@D@__crt_stdio_output@@V?$format_validation_base@DV?$stream_output_adapter@D@__crt_stdio_output@@@2@@__crt_stdio_output@@CAPADXZ 0043e4d0 f i libucrtd:output.obj
 0001:0003d4e0       ?narrow_null_string@?$output_processor@DV?$stream_output_adapter@D@__crt_stdio_output@@V?$positional_parameter_base@DV?$stream_output_adapter@D@__crt_stdio_output@@@2@@__crt_stdio_output@@CAPADXZ 0043e4e0 f i libucrtd:output.obj
 0001:0003d4f0       ?narrow_null_string@?$output_processor@DV?$stream_output_adapter@D@__crt_stdio_output@@V?$standard_base@DV?$stream_output_adapter@D@__crt_stdio_output@@@2@@__crt_stdio_output@@CAPADXZ 0043e4f0 f i libucrtd:output.obj
 0001:0003d500       ?narrow_null_string@?$output_processor@DV?$string_output_adapter@D@__crt_stdio_output@@V?$format_validation_base@DV?$string_output_adapter@D@__crt_stdio_output@@@2@@__crt_stdio_output@@CAPADXZ 0043e500 f i libucrtd:output.obj
 0001:0003d510       ?narrow_null_string@?$output_processor@DV?$string_output_adapter@D@__crt_stdio_output@@V?$positional_parameter_base@DV?$string_output_adapter@D@__crt_stdio_output@@@2@@__crt_stdio_output@@CAPADXZ 0043e510 f i libucrtd:output.obj
 0001:0003d520       ?narrow_null_string@?$output_processor@DV?$string_output_adapter@D@__crt_stdio_output@@V?$standard_base@DV?$string_output_adapter@D@__crt_stdio_output@@@2@@__crt_stdio_output@@CAPADXZ 0043e520 f i libucrtd:output.obj
 0001:0003d530       ?narrow_null_string@?$output_processor@_WV?$stream_output_adapter@_W@__crt_stdio_output@@V?$format_validation_base@_WV?$stream_output_adapter@_W@__crt_stdio_output@@@2@@__crt_stdio_output@@CAPADXZ 0043e530 f i libucrtd:output.obj
 0001:0003d540       ?narrow_null_string@?$output_processor@_WV?$stream_output_adapter@_W@__crt_stdio_output@@V?$positional_parameter_base@_WV?$stream_output_adapter@_W@__crt_stdio_output@@@2@@__crt_stdio_output@@CAPADXZ 0043e540 f i libucrtd:output.obj
 0001:0003d550       ?narrow_null_string@?$output_processor@_WV?$stream_output_adapter@_W@__crt_stdio_output@@V?$standard_base@_WV?$stream_output_adapter@_W@__crt_stdio_output@@@2@@__crt_stdio_output@@CAPADXZ 0043e550 f i libucrtd:output.obj
 0001:0003d560       ?narrow_null_string@?$output_processor@_WV?$string_output_adapter@_W@__crt_stdio_output@@V?$format_validation_base@_WV?$string_output_adapter@_W@__crt_stdio_output@@@2@@__crt_stdio_output@@CAPADXZ 0043e560 f i libucrtd:output.obj
 0001:0003d570       ?narrow_null_string@?$output_processor@_WV?$string_output_adapter@_W@__crt_stdio_output@@V?$positional_parameter_base@_WV?$string_output_adapter@_W@__crt_stdio_output@@@2@@__crt_stdio_output@@CAPADXZ 0043e570 f i libucrtd:output.obj
 0001:0003d580       ?narrow_null_string@?$output_processor@_WV?$string_output_adapter@_W@__crt_stdio_output@@V?$standard_base@_WV?$string_output_adapter@_W@__crt_stdio_output@@@2@@__crt_stdio_output@@CAPADXZ 0043e580 f i libucrtd:output.obj
 0001:0003d590       ?parse_int_from_format_string@?$output_processor@DV?$stream_output_adapter@D@__crt_stdio_output@@V?$format_validation_base@DV?$stream_output_adapter@D@__crt_stdio_output@@@2@@__crt_stdio_output@@AAE_NQAH@Z 0043e590 f i libucrtd:output.obj
 0001:0003d670       ?parse_int_from_format_string@?$output_processor@DV?$stream_output_adapter@D@__crt_stdio_output@@V?$positional_parameter_base@DV?$stream_output_adapter@D@__crt_stdio_output@@@2@@__crt_stdio_output@@AAE_NQAH@Z 0043e670 f i libucrtd:output.obj
 0001:0003d750       ?parse_int_from_format_string@?$output_processor@DV?$stream_output_adapter@D@__crt_stdio_output@@V?$standard_base@DV?$stream_output_adapter@D@__crt_stdio_output@@@2@@__crt_stdio_output@@AAE_NQAH@Z 0043e750 f i libucrtd:output.obj
 0001:0003d830       ?parse_int_from_format_string@?$output_processor@DV?$string_output_adapter@D@__crt_stdio_output@@V?$format_validation_base@DV?$string_output_adapter@D@__crt_stdio_output@@@2@@__crt_stdio_output@@AAE_NQAH@Z 0043e830 f i libucrtd:output.obj
 0001:0003d910       ?parse_int_from_format_string@?$output_processor@DV?$string_output_adapter@D@__crt_stdio_output@@V?$positional_parameter_base@DV?$string_output_adapter@D@__crt_stdio_output@@@2@@__crt_stdio_output@@AAE_NQAH@Z 0043e910 f i libucrtd:output.obj
 0001:0003d9f0       ?parse_int_from_format_string@?$output_processor@DV?$string_output_adapter@D@__crt_stdio_output@@V?$standard_base@DV?$string_output_adapter@D@__crt_stdio_output@@@2@@__crt_stdio_output@@AAE_NQAH@Z 0043e9f0 f i libucrtd:output.obj
 0001:0003dad0       ?parse_int_from_format_string@?$output_processor@_WV?$stream_output_adapter@_W@__crt_stdio_output@@V?$format_validation_base@_WV?$stream_output_adapter@_W@__crt_stdio_output@@@2@@__crt_stdio_output@@AAE_NQAH@Z 0043ead0 f i libucrtd:output.obj
 0001:0003dbb0       ?parse_int_from_format_string@?$output_processor@_WV?$stream_output_adapter@_W@__crt_stdio_output@@V?$positional_parameter_base@_WV?$stream_output_adapter@_W@__crt_stdio_output@@@2@@__crt_stdio_output@@AAE_NQAH@Z 0043ebb0 f i libucrtd:output.obj
 0001:0003dc90       ?parse_int_from_format_string@?$output_processor@_WV?$stream_output_adapter@_W@__crt_stdio_output@@V?$standard_base@_WV?$stream_output_adapter@_W@__crt_stdio_output@@@2@@__crt_stdio_output@@AAE_NQAH@Z 0043ec90 f i libucrtd:output.obj
 0001:0003dd70       ?parse_int_from_format_string@?$output_processor@_WV?$string_output_adapter@_W@__crt_stdio_output@@V?$format_validation_base@_WV?$string_output_adapter@_W@__crt_stdio_output@@@2@@__crt_stdio_output@@AAE_NQAH@Z 0043ed70 f i libucrtd:output.obj
 0001:0003de50       ?parse_int_from_format_string@?$output_processor@_WV?$string_output_adapter@_W@__crt_stdio_output@@V?$positional_parameter_base@_WV?$string_output_adapter@_W@__crt_stdio_output@@@2@@__crt_stdio_output@@AAE_NQAH@Z 0043ee50 f i libucrtd:output.obj
 0001:0003df30       ?parse_int_from_format_string@?$output_processor@_WV?$string_output_adapter@_W@__crt_stdio_output@@V?$standard_base@_WV?$string_output_adapter@_W@__crt_stdio_output@@@2@@__crt_stdio_output@@AAE_NQAH@Z 0043ef30 f i libucrtd:output.obj
 0001:0003e010       ?process@?$output_processor@DV?$stream_output_adapter@D@__crt_stdio_output@@V?$format_validation_base@DV?$stream_output_adapter@D@__crt_stdio_output@@@2@@__crt_stdio_output@@QAEHXZ 0043f010 f i libucrtd:output.obj
 0001:0003e360       ?process@?$output_processor@DV?$stream_output_adapter@D@__crt_stdio_output@@V?$positional_parameter_base@DV?$stream_output_adapter@D@__crt_stdio_output@@@2@@__crt_stdio_output@@QAEHXZ 0043f360 f i libucrtd:output.obj
 0001:0003e6b0       ?process@?$output_processor@DV?$stream_output_adapter@D@__crt_stdio_output@@V?$standard_base@DV?$stream_output_adapter@D@__crt_stdio_output@@@2@@__crt_stdio_output@@QAEHXZ 0043f6b0 f i libucrtd:output.obj
 0001:0003ea00       ?process@?$output_processor@DV?$string_output_adapter@D@__crt_stdio_output@@V?$format_validation_base@DV?$string_output_adapter@D@__crt_stdio_output@@@2@@__crt_stdio_output@@QAEHXZ 0043fa00 f i libucrtd:output.obj
 0001:0003ed50       ?process@?$output_processor@DV?$string_output_adapter@D@__crt_stdio_output@@V?$positional_parameter_base@DV?$string_output_adapter@D@__crt_stdio_output@@@2@@__crt_stdio_output@@QAEHXZ 0043fd50 f i libucrtd:output.obj
 0001:0003f0a0       ?process@?$output_processor@DV?$string_output_adapter@D@__crt_stdio_output@@V?$standard_base@DV?$string_output_adapter@D@__crt_stdio_output@@@2@@__crt_stdio_output@@QAEHXZ 004400a0 f i libucrtd:output.obj
 0001:0003f3f0       ?process@?$output_processor@_WV?$stream_output_adapter@_W@__crt_stdio_output@@V?$format_validation_base@_WV?$stream_output_adapter@_W@__crt_stdio_output@@@2@@__crt_stdio_output@@QAEHXZ 004403f0 f i libucrtd:output.obj
 0001:0003f740       ?process@?$output_processor@_WV?$stream_output_adapter@_W@__crt_stdio_output@@V?$positional_parameter_base@_WV?$stream_output_adapter@_W@__crt_stdio_output@@@2@@__crt_stdio_output@@QAEHXZ 00440740 f i libucrtd:output.obj
 0001:0003fa90       ?process@?$output_processor@_WV?$stream_output_adapter@_W@__crt_stdio_output@@V?$standard_base@_WV?$stream_output_adapter@_W@__crt_stdio_output@@@2@@__crt_stdio_output@@QAEHXZ 00440a90 f i libucrtd:output.obj
 0001:0003fde0       ?process@?$output_processor@_WV?$string_output_adapter@_W@__crt_stdio_output@@V?$format_validation_base@_WV?$string_output_adapter@_W@__crt_stdio_output@@@2@@__crt_stdio_output@@QAEHXZ 00440de0 f i libucrtd:output.obj
 0001:00040130       ?process@?$output_processor@_WV?$string_output_adapter@_W@__crt_stdio_output@@V?$positional_parameter_base@_WV?$string_output_adapter@_W@__crt_stdio_output@@@2@@__crt_stdio_output@@QAEHXZ 00441130 f i libucrtd:output.obj
 0001:00040480       ?process@?$output_processor@_WV?$string_output_adapter@_W@__crt_stdio_output@@V?$standard_base@_WV?$string_output_adapter@_W@__crt_stdio_output@@@2@@__crt_stdio_output@@QAEHXZ 00441480 f i libucrtd:output.obj
 0001:000407d0       ?set_flag@?$output_processor@DV?$stream_output_adapter@D@__crt_stdio_output@@V?$format_validation_base@DV?$stream_output_adapter@D@__crt_stdio_output@@@2@@__crt_stdio_output@@AAEXI@Z 004417d0 f i libucrtd:output.obj
 0001:00040800       ?set_flag@?$output_processor@DV?$stream_output_adapter@D@__crt_stdio_output@@V?$positional_parameter_base@DV?$stream_output_adapter@D@__crt_stdio_output@@@2@@__crt_stdio_output@@AAEXI@Z 00441800 f i libucrtd:output.obj
 0001:00040830       ?set_flag@?$output_processor@DV?$stream_output_adapter@D@__crt_stdio_output@@V?$standard_base@DV?$stream_output_adapter@D@__crt_stdio_output@@@2@@__crt_stdio_output@@AAEXI@Z 00441830 f i libucrtd:output.obj
 0001:00040860       ?set_flag@?$output_processor@DV?$string_output_adapter@D@__crt_stdio_output@@V?$format_validation_base@DV?$string_output_adapter@D@__crt_stdio_output@@@2@@__crt_stdio_output@@AAEXI@Z 00441860 f i libucrtd:output.obj
 0001:00040890       ?set_flag@?$output_processor@DV?$string_output_adapter@D@__crt_stdio_output@@V?$positional_parameter_base@DV?$string_output_adapter@D@__crt_stdio_output@@@2@@__crt_stdio_output@@AAEXI@Z 00441890 f i libucrtd:output.obj
 0001:000408c0       ?set_flag@?$output_processor@DV?$string_output_adapter@D@__crt_stdio_output@@V?$standard_base@DV?$string_output_adapter@D@__crt_stdio_output@@@2@@__crt_stdio_output@@AAEXI@Z 004418c0 f i libucrtd:output.obj
 0001:000408f0       ?set_flag@?$output_processor@_WV?$stream_output_adapter@_W@__crt_stdio_output@@V?$format_validation_base@_WV?$stream_output_adapter@_W@__crt_stdio_output@@@2@@__crt_stdio_output@@AAEXI@Z 004418f0 f i libucrtd:output.obj
 0001:00040920       ?set_flag@?$output_processor@_WV?$stream_output_adapter@_W@__crt_stdio_output@@V?$positional_parameter_base@_WV?$stream_output_adapter@_W@__crt_stdio_output@@@2@@__crt_stdio_output@@AAEXI@Z 00441920 f i libucrtd:output.obj
 0001:00040950       ?set_flag@?$output_processor@_WV?$stream_output_adapter@_W@__crt_stdio_output@@V?$standard_base@_WV?$stream_output_adapter@_W@__crt_stdio_output@@@2@@__crt_stdio_output@@AAEXI@Z 00441950 f i libucrtd:output.obj
 0001:00040980       ?set_flag@?$output_processor@_WV?$string_output_adapter@_W@__crt_stdio_output@@V?$format_validation_base@_WV?$string_output_adapter@_W@__crt_stdio_output@@@2@@__crt_stdio_output@@AAEXI@Z 00441980 f i libucrtd:output.obj
 0001:000409b0       ?set_flag@?$output_processor@_WV?$string_output_adapter@_W@__crt_stdio_output@@V?$positional_parameter_base@_WV?$string_output_adapter@_W@__crt_stdio_output@@@2@@__crt_stdio_output@@AAEXI@Z 004419b0 f i libucrtd:output.obj
 0001:000409e0       ?set_flag@?$output_processor@_WV?$string_output_adapter@_W@__crt_stdio_output@@V?$standard_base@_WV?$string_output_adapter@_W@__crt_stdio_output@@@2@@__crt_stdio_output@@AAEXI@Z 004419e0 f i libucrtd:output.obj
 0001:00040a10       ?should_format@?$positional_parameter_base@DV?$stream_output_adapter@D@__crt_stdio_output@@@__crt_stdio_output@@IAE_NXZ 00441a10 f i libucrtd:output.obj
 0001:00040a60       ?should_format@?$positional_parameter_base@DV?$string_output_adapter@D@__crt_stdio_output@@@__crt_stdio_output@@IAE_NXZ 00441a60 f i libucrtd:output.obj
 0001:00040ab0       ?should_format@?$positional_parameter_base@_WV?$stream_output_adapter@_W@__crt_stdio_output@@@__crt_stdio_output@@IAE_NXZ 00441ab0 f i libucrtd:output.obj
 0001:00040b00       ?should_format@?$positional_parameter_base@_WV?$string_output_adapter@_W@__crt_stdio_output@@@__crt_stdio_output@@IAE_NXZ 00441b00 f i libucrtd:output.obj
 0001:00040b50       ?should_format@?$standard_base@DV?$stream_output_adapter@D@__crt_stdio_output@@@__crt_stdio_output@@IAE_NXZ 00441b50 f i libucrtd:output.obj
 0001:00040b70       ?should_format@?$standard_base@DV?$string_output_adapter@D@__crt_stdio_output@@@__crt_stdio_output@@IAE_NXZ 00441b70 f i libucrtd:output.obj
 0001:00040b90       ?should_format@?$standard_base@_WV?$stream_output_adapter@_W@__crt_stdio_output@@@__crt_stdio_output@@IAE_NXZ 00441b90 f i libucrtd:output.obj
 0001:00040bb0       ?should_format@?$standard_base@_WV?$string_output_adapter@_W@__crt_stdio_output@@@__crt_stdio_output@@IAE_NXZ 00441bb0 f i libucrtd:output.obj
 0001:00040bd0       ?should_skip_normal_state_processing@?$positional_parameter_base@DV?$stream_output_adapter@D@__crt_stdio_output@@@__crt_stdio_output@@IAE_NXZ 00441bd0 f i libucrtd:output.obj
 0001:00040c30       ?should_skip_normal_state_processing@?$positional_parameter_base@DV?$string_output_adapter@D@__crt_stdio_output@@@__crt_stdio_output@@IAE_NXZ 00441c30 f i libucrtd:output.obj
 0001:00040c90       ?should_skip_normal_state_processing@?$positional_parameter_base@_WV?$stream_output_adapter@_W@__crt_stdio_output@@@__crt_stdio_output@@IAE_NXZ 00441c90 f i libucrtd:output.obj
 0001:00040cf0       ?should_skip_normal_state_processing@?$positional_parameter_base@_WV?$string_output_adapter@_W@__crt_stdio_output@@@__crt_stdio_output@@IAE_NXZ 00441cf0 f i libucrtd:output.obj
 0001:00040d50       ?should_skip_normal_state_processing@?$standard_base@DV?$stream_output_adapter@D@__crt_stdio_output@@@__crt_stdio_output@@IAE_NXZ 00441d50 f i libucrtd:output.obj
 0001:00040d70       ?should_skip_normal_state_processing@?$standard_base@DV?$string_output_adapter@D@__crt_stdio_output@@@__crt_stdio_output@@IAE_NXZ 00441d70 f i libucrtd:output.obj
 0001:00040d90       ?should_skip_normal_state_processing@?$standard_base@_WV?$stream_output_adapter@_W@__crt_stdio_output@@@__crt_stdio_output@@IAE_NXZ 00441d90 f i libucrtd:output.obj
 0001:00040db0       ?should_skip_normal_state_processing@?$standard_base@_WV?$string_output_adapter@_W@__crt_stdio_output@@@__crt_stdio_output@@IAE_NXZ 00441db0 f i libucrtd:output.obj
 0001:00040dd0       ?should_skip_type_state_output@?$positional_parameter_base@DV?$stream_output_adapter@D@__crt_stdio_output@@@__crt_stdio_output@@IBE_NXZ 00441dd0 f i libucrtd:output.obj
 0001:00040e20       ?should_skip_type_state_output@?$positional_parameter_base@DV?$string_output_adapter@D@__crt_stdio_output@@@__crt_stdio_output@@IBE_NXZ 00441e20 f i libucrtd:output.obj
 0001:00040e70       ?should_skip_type_state_output@?$positional_parameter_base@_WV?$stream_output_adapter@_W@__crt_stdio_output@@@__crt_stdio_output@@IBE_NXZ 00441e70 f i libucrtd:output.obj
 0001:00040ec0       ?should_skip_type_state_output@?$positional_parameter_base@_WV?$string_output_adapter@_W@__crt_stdio_output@@@__crt_stdio_output@@IBE_NXZ 00441ec0 f i libucrtd:output.obj
 0001:00040f10       ?should_skip_type_state_output@?$standard_base@DV?$stream_output_adapter@D@__crt_stdio_output@@@__crt_stdio_output@@IBE_NXZ 00441f10 f i libucrtd:output.obj
 0001:00040f30       ?should_skip_type_state_output@?$standard_base@DV?$string_output_adapter@D@__crt_stdio_output@@@__crt_stdio_output@@IBE_NXZ 00441f30 f i libucrtd:output.obj
 0001:00040f50       ?should_skip_type_state_output@?$standard_base@_WV?$stream_output_adapter@_W@__crt_stdio_output@@@__crt_stdio_output@@IBE_NXZ 00441f50 f i libucrtd:output.obj
 0001:00040f70       ?should_skip_type_state_output@?$standard_base@_WV?$string_output_adapter@_W@__crt_stdio_output@@@__crt_stdio_output@@IBE_NXZ 00441f70 f i libucrtd:output.obj
 0001:00040f90       ?state_case_dot@?$output_processor@DV?$stream_output_adapter@D@__crt_stdio_output@@V?$format_validation_base@DV?$stream_output_adapter@D@__crt_stdio_output@@@2@@__crt_stdio_output@@AAE_NXZ 00441f90 f i libucrtd:output.obj
 0001:00040fb0       ?state_case_dot@?$output_processor@DV?$stream_output_adapter@D@__crt_stdio_output@@V?$positional_parameter_base@DV?$stream_output_adapter@D@__crt_stdio_output@@@2@@__crt_stdio_output@@AAE_NXZ 00441fb0 f i libucrtd:output.obj
 0001:00040fd0       ?state_case_dot@?$output_processor@DV?$stream_output_adapter@D@__crt_stdio_output@@V?$standard_base@DV?$stream_output_adapter@D@__crt_stdio_output@@@2@@__crt_stdio_output@@AAE_NXZ 00441fd0 f i libucrtd:output.obj
 0001:00040ff0       ?state_case_dot@?$output_processor@DV?$string_output_adapter@D@__crt_stdio_output@@V?$format_validation_base@DV?$string_output_adapter@D@__crt_stdio_output@@@2@@__crt_stdio_output@@AAE_NXZ 00441ff0 f i libucrtd:output.obj
 0001:00041010       ?state_case_dot@?$output_processor@DV?$string_output_adapter@D@__crt_stdio_output@@V?$positional_parameter_base@DV?$string_output_adapter@D@__crt_stdio_output@@@2@@__crt_stdio_output@@AAE_NXZ 00442010 f i libucrtd:output.obj
 0001:00041030       ?state_case_dot@?$output_processor@DV?$string_output_adapter@D@__crt_stdio_output@@V?$standard_base@DV?$string_output_adapter@D@__crt_stdio_output@@@2@@__crt_stdio_output@@AAE_NXZ 00442030 f i libucrtd:output.obj
 0001:00041050       ?state_case_dot@?$output_processor@_WV?$stream_output_adapter@_W@__crt_stdio_output@@V?$format_validation_base@_WV?$stream_output_adapter@_W@__crt_stdio_output@@@2@@__crt_stdio_output@@AAE_NXZ 00442050 f i libucrtd:output.obj
 0001:00041070       ?state_case_dot@?$output_processor@_WV?$stream_output_adapter@_W@__crt_stdio_output@@V?$positional_parameter_base@_WV?$stream_output_adapter@_W@__crt_stdio_output@@@2@@__crt_stdio_output@@AAE_NXZ 00442070 f i libucrtd:output.obj
 0001:00041090       ?state_case_dot@?$output_processor@_WV?$stream_output_adapter@_W@__crt_stdio_output@@V?$standard_base@_WV?$stream_output_adapter@_W@__crt_stdio_output@@@2@@__crt_stdio_output@@AAE_NXZ 00442090 f i libucrtd:output.obj
 0001:000410b0       ?state_case_dot@?$output_processor@_WV?$string_output_adapter@_W@__crt_stdio_output@@V?$format_validation_base@_WV?$string_output_adapter@_W@__crt_stdio_output@@@2@@__crt_stdio_output@@AAE_NXZ 004420b0 f i libucrtd:output.obj
 0001:000410d0       ?state_case_dot@?$output_processor@_WV?$string_output_adapter@_W@__crt_stdio_output@@V?$positional_parameter_base@_WV?$string_output_adapter@_W@__crt_stdio_output@@@2@@__crt_stdio_output@@AAE_NXZ 004420d0 f i libucrtd:output.obj
 0001:000410f0       ?state_case_dot@?$output_processor@_WV?$string_output_adapter@_W@__crt_stdio_output@@V?$standard_base@_WV?$string_output_adapter@_W@__crt_stdio_output@@@2@@__crt_stdio_output@@AAE_NXZ 004420f0 f i libucrtd:output.obj
 0001:00041110       ?state_case_flag@?$output_processor@DV?$stream_output_adapter@D@__crt_stdio_output@@V?$format_validation_base@DV?$stream_output_adapter@D@__crt_stdio_output@@@2@@__crt_stdio_output@@AAE_NXZ 00442110 f i libucrtd:output.obj
 0001:000411e0       ?state_case_flag@?$output_processor@DV?$stream_output_adapter@D@__crt_stdio_output@@V?$positional_parameter_base@DV?$stream_output_adapter@D@__crt_stdio_output@@@2@@__crt_stdio_output@@AAE_NXZ 004421e0 f i libucrtd:output.obj
 0001:000412b0       ?state_case_flag@?$output_processor@DV?$stream_output_adapter@D@__crt_stdio_output@@V?$standard_base@DV?$stream_output_adapter@D@__crt_stdio_output@@@2@@__crt_stdio_output@@AAE_NXZ 004422b0 f i libucrtd:output.obj
 0001:00041380       ?state_case_flag@?$output_processor@DV?$string_output_adapter@D@__crt_stdio_output@@V?$format_validation_base@DV?$string_output_adapter@D@__crt_stdio_output@@@2@@__crt_stdio_output@@AAE_NXZ 00442380 f i libucrtd:output.obj
 0001:00041450       ?state_case_flag@?$output_processor@DV?$string_output_adapter@D@__crt_stdio_output@@V?$positional_parameter_base@DV?$string_output_adapter@D@__crt_stdio_output@@@2@@__crt_stdio_output@@AAE_NXZ 00442450 f i libucrtd:output.obj
 0001:00041520       ?state_case_flag@?$output_processor@DV?$string_output_adapter@D@__crt_stdio_output@@V?$standard_base@DV?$string_output_adapter@D@__crt_stdio_output@@@2@@__crt_stdio_output@@AAE_NXZ 00442520 f i libucrtd:output.obj
 0001:000415f0       ?state_case_flag@?$output_processor@_WV?$stream_output_adapter@_W@__crt_stdio_output@@V?$format_validation_base@_WV?$stream_output_adapter@_W@__crt_stdio_output@@@2@@__crt_stdio_output@@AAE_NXZ 004425f0 f i libucrtd:output.obj
 0001:000416c0       ?state_case_flag@?$output_processor@_WV?$stream_output_adapter@_W@__crt_stdio_output@@V?$positional_parameter_base@_WV?$stream_output_adapter@_W@__crt_stdio_output@@@2@@__crt_stdio_output@@AAE_NXZ 004426c0 f i libucrtd:output.obj
 0001:00041790       ?state_case_flag@?$output_processor@_WV?$stream_output_adapter@_W@__crt_stdio_output@@V?$standard_base@_WV?$stream_output_adapter@_W@__crt_stdio_output@@@2@@__crt_stdio_output@@AAE_NXZ 00442790 f i libucrtd:output.obj
 0001:00041860       ?state_case_flag@?$output_processor@_WV?$string_output_adapter@_W@__crt_stdio_output@@V?$format_validation_base@_WV?$string_output_adapter@_W@__crt_stdio_output@@@2@@__crt_stdio_output@@AAE_NXZ 00442860 f i libucrtd:output.obj
 0001:00041930       ?state_case_flag@?$output_processor@_WV?$string_output_adapter@_W@__crt_stdio_output@@V?$positional_parameter_base@_WV?$string_output_adapter@_W@__crt_stdio_output@@@2@@__crt_stdio_output@@AAE_NXZ 00442930 f i libucrtd:output.obj
 0001:00041a00       ?state_case_flag@?$output_processor@_WV?$string_output_adapter@_W@__crt_stdio_output@@V?$standard_base@_WV?$string_output_adapter@_W@__crt_stdio_output@@@2@@__crt_stdio_output@@AAE_NXZ 00442a00 f i libucrtd:output.obj
 0001:00041ad0       ?state_case_normal@?$output_processor@DV?$stream_output_adapter@D@__crt_stdio_output@@V?$format_validation_base@DV?$stream_output_adapter@D@__crt_stdio_output@@@2@@__crt_stdio_output@@AAE_NXZ 00442ad0 f i libucrtd:output.obj
 0001:00041bb0       ?state_case_normal@?$output_processor@DV?$stream_output_adapter@D@__crt_stdio_output@@V?$positional_parameter_base@DV?$stream_output_adapter@D@__crt_stdio_output@@@2@@__crt_stdio_output@@AAE_NXZ 00442bb0 f i libucrtd:output.obj
 0001:00041c90       ?state_case_normal@?$output_processor@DV?$stream_output_adapter@D@__crt_stdio_output@@V?$standard_base@DV?$stream_output_adapter@D@__crt_stdio_output@@@2@@__crt_stdio_output@@AAE_NXZ 00442c90 f i libucrtd:output.obj
 0001:00041d70       ?state_case_normal@?$output_processor@DV?$string_output_adapter@D@__crt_stdio_output@@V?$format_validation_base@DV?$string_output_adapter@D@__crt_stdio_output@@@2@@__crt_stdio_output@@AAE_NXZ 00442d70 f i libucrtd:output.obj
 0001:00041e50       ?state_case_normal@?$output_processor@DV?$string_output_adapter@D@__crt_stdio_output@@V?$positional_parameter_base@DV?$string_output_adapter@D@__crt_stdio_output@@@2@@__crt_stdio_output@@AAE_NXZ 00442e50 f i libucrtd:output.obj
 0001:00041f30       ?state_case_normal@?$output_processor@DV?$string_output_adapter@D@__crt_stdio_output@@V?$standard_base@DV?$string_output_adapter@D@__crt_stdio_output@@@2@@__crt_stdio_output@@AAE_NXZ 00442f30 f i libucrtd:output.obj
 0001:00042010       ?state_case_normal@?$output_processor@_WV?$stream_output_adapter@_W@__crt_stdio_output@@V?$format_validation_base@_WV?$stream_output_adapter@_W@__crt_stdio_output@@@2@@__crt_stdio_output@@AAE_NXZ 00443010 f i libucrtd:output.obj
 0001:000420f0       ?state_case_normal@?$output_processor@_WV?$stream_output_adapter@_W@__crt_stdio_output@@V?$positional_parameter_base@_WV?$stream_output_adapter@_W@__crt_stdio_output@@@2@@__crt_stdio_output@@AAE_NXZ 004430f0 f i libucrtd:output.obj
 0001:000421d0       ?state_case_normal@?$output_processor@_WV?$stream_output_adapter@_W@__crt_stdio_output@@V?$standard_base@_WV?$stream_output_adapter@_W@__crt_stdio_output@@@2@@__crt_stdio_output@@AAE_NXZ 004431d0 f i libucrtd:output.obj
 0001:000422b0       ?state_case_normal@?$output_processor@_WV?$string_output_adapter@_W@__crt_stdio_output@@V?$format_validation_base@_WV?$string_output_adapter@_W@__crt_stdio_output@@@2@@__crt_stdio_output@@AAE_NXZ 004432b0 f i libucrtd:output.obj
 0001:00042390       ?state_case_normal@?$output_processor@_WV?$string_output_adapter@_W@__crt_stdio_output@@V?$positional_parameter_base@_WV?$string_output_adapter@_W@__crt_stdio_output@@@2@@__crt_stdio_output@@AAE_NXZ 00443390 f i libucrtd:output.obj
 0001:00042470       ?state_case_normal@?$output_processor@_WV?$string_output_adapter@_W@__crt_stdio_output@@V?$standard_base@_WV?$string_output_adapter@_W@__crt_stdio_output@@@2@@__crt_stdio_output@@AAE_NXZ 00443470 f i libucrtd:output.obj
 0001:00042550       ?state_case_normal_common@?$output_processor@DV?$stream_output_adapter@D@__crt_stdio_output@@V?$format_validation_base@DV?$stream_output_adapter@D@__crt_stdio_output@@@2@@__crt_stdio_output@@AAE_NXZ 00443550 f i libucrtd:output.obj
 0001:000425b0       ?state_case_normal_common@?$output_processor@DV?$stream_output_adapter@D@__crt_stdio_output@@V?$positional_parameter_base@DV?$stream_output_adapter@D@__crt_stdio_output@@@2@@__crt_stdio_output@@AAE_NXZ 004435b0 f i libucrtd:output.obj
 0001:00042610       ?state_case_normal_common@?$output_processor@DV?$stream_output_adapter@D@__crt_stdio_output@@V?$standard_base@DV?$stream_output_adapter@D@__crt_stdio_output@@@2@@__crt_stdio_output@@AAE_NXZ 00443610 f i libucrtd:output.obj
 0001:00042670       ?state_case_normal_common@?$output_processor@DV?$string_output_adapter@D@__crt_stdio_output@@V?$format_validation_base@DV?$string_output_adapter@D@__crt_stdio_output@@@2@@__crt_stdio_output@@AAE_NXZ 00443670 f i libucrtd:output.obj
 0001:000426d0       ?state_case_normal_common@?$output_processor@DV?$string_output_adapter@D@__crt_stdio_output@@V?$positional_parameter_base@DV?$string_output_adapter@D@__crt_stdio_output@@@2@@__crt_stdio_output@@AAE_NXZ 004436d0 f i libucrtd:output.obj
 0001:00042730       ?state_case_normal_common@?$output_processor@DV?$string_output_adapter@D@__crt_stdio_output@@V?$standard_base@DV?$string_output_adapter@D@__crt_stdio_output@@@2@@__crt_stdio_output@@AAE_NXZ 00443730 f i libucrtd:output.obj
 0001:00042790       ?state_case_normal_common@?$output_processor@_WV?$stream_output_adapter@_W@__crt_stdio_output@@V?$format_validation_base@_WV?$stream_output_adapter@_W@__crt_stdio_output@@@2@@__crt_stdio_output@@AAE_NXZ 00443790 f i libucrtd:output.obj
 0001:000427f0       ?state_case_normal_common@?$output_processor@_WV?$stream_output_adapter@_W@__crt_stdio_output@@V?$positional_parameter_base@_WV?$stream_output_adapter@_W@__crt_stdio_output@@@2@@__crt_stdio_output@@AAE_NXZ 004437f0 f i libucrtd:output.obj
 0001:00042850       ?state_case_normal_common@?$output_processor@_WV?$stream_output_adapter@_W@__crt_stdio_output@@V?$standard_base@_WV?$stream_output_adapter@_W@__crt_stdio_output@@@2@@__crt_stdio_output@@AAE_NXZ 00443850 f i libucrtd:output.obj
 0001:000428b0       ?state_case_normal_common@?$output_processor@_WV?$string_output_adapter@_W@__crt_stdio_output@@V?$format_validation_base@_WV?$string_output_adapter@_W@__crt_stdio_output@@@2@@__crt_stdio_output@@AAE_NXZ 004438b0 f i libucrtd:output.obj
 0001:00042910       ?state_case_normal_common@?$output_processor@_WV?$string_output_adapter@_W@__crt_stdio_output@@V?$positional_parameter_base@_WV?$string_output_adapter@_W@__crt_stdio_output@@@2@@__crt_stdio_output@@AAE_NXZ 00443910 f i libucrtd:output.obj
 0001:00042970       ?state_case_normal_common@?$output_processor@_WV?$string_output_adapter@_W@__crt_stdio_output@@V?$standard_base@_WV?$string_output_adapter@_W@__crt_stdio_output@@@2@@__crt_stdio_output@@AAE_NXZ 00443970 f i libucrtd:output.obj
 0001:000429d0       ?state_case_normal_tchar@?$output_processor@DV?$stream_output_adapter@D@__crt_stdio_output@@V?$format_validation_base@DV?$stream_output_adapter@D@__crt_stdio_output@@@2@@__crt_stdio_output@@AAE_ND@Z 004439d0 f i libucrtd:output.obj
 0001:00042b00       ?state_case_normal_tchar@?$output_processor@DV?$stream_output_adapter@D@__crt_stdio_output@@V?$positional_parameter_base@DV?$stream_output_adapter@D@__crt_stdio_output@@@2@@__crt_stdio_output@@AAE_ND@Z 00443b00 f i libucrtd:output.obj
 0001:00042c30       ?state_case_normal_tchar@?$output_processor@DV?$stream_output_adapter@D@__crt_stdio_output@@V?$standard_base@DV?$stream_output_adapter@D@__crt_stdio_output@@@2@@__crt_stdio_output@@AAE_ND@Z 00443c30 f i libucrtd:output.obj
 0001:00042d60       ?state_case_normal_tchar@?$output_processor@DV?$string_output_adapter@D@__crt_stdio_output@@V?$format_validation_base@DV?$string_output_adapter@D@__crt_stdio_output@@@2@@__crt_stdio_output@@AAE_ND@Z 00443d60 f i libucrtd:output.obj
 0001:00042e90       ?state_case_normal_tchar@?$output_processor@DV?$string_output_adapter@D@__crt_stdio_output@@V?$positional_parameter_base@DV?$string_output_adapter@D@__crt_stdio_output@@@2@@__crt_stdio_output@@AAE_ND@Z 00443e90 f i libucrtd:output.obj
 0001:00042fc0       ?state_case_normal_tchar@?$output_processor@DV?$string_output_adapter@D@__crt_stdio_output@@V?$standard_base@DV?$string_output_adapter@D@__crt_stdio_output@@@2@@__crt_stdio_output@@AAE_ND@Z 00443fc0 f i libucrtd:output.obj
 0001:000430f0       ?state_case_normal_tchar@?$output_processor@_WV?$stream_output_adapter@_W@__crt_stdio_output@@V?$format_validation_base@_WV?$stream_output_adapter@_W@__crt_stdio_output@@@2@@__crt_stdio_output@@AAE_N_W@Z 004440f0 f i libucrtd:output.obj
 0001:00043110       ?state_case_normal_tchar@?$output_processor@_WV?$stream_output_adapter@_W@__crt_stdio_output@@V?$positional_parameter_base@_WV?$stream_output_adapter@_W@__crt_stdio_output@@@2@@__crt_stdio_output@@AAE_N_W@Z 00444110 f i libucrtd:output.obj
 0001:00043130       ?state_case_normal_tchar@?$output_processor@_WV?$stream_output_adapter@_W@__crt_stdio_output@@V?$standard_base@_WV?$stream_output_adapter@_W@__crt_stdio_output@@@2@@__crt_stdio_output@@AAE_N_W@Z 00444130 f i libucrtd:output.obj
 0001:00043150       ?state_case_normal_tchar@?$output_processor@_WV?$string_output_adapter@_W@__crt_stdio_output@@V?$format_validation_base@_WV?$string_output_adapter@_W@__crt_stdio_output@@@2@@__crt_stdio_output@@AAE_N_W@Z 00444150 f i libucrtd:output.obj
 0001:00043170       ?state_case_normal_tchar@?$output_processor@_WV?$string_output_adapter@_W@__crt_stdio_output@@V?$positional_parameter_base@_WV?$string_output_adapter@_W@__crt_stdio_output@@@2@@__crt_stdio_output@@AAE_N_W@Z 00444170 f i libucrtd:output.obj
 0001:00043190       ?state_case_normal_tchar@?$output_processor@_WV?$string_output_adapter@_W@__crt_stdio_output@@V?$standard_base@_WV?$string_output_adapter@_W@__crt_stdio_output@@@2@@__crt_stdio_output@@AAE_N_W@Z 00444190 f i libucrtd:output.obj
 0001:000431b0       ?state_case_percent@?$output_processor@DV?$stream_output_adapter@D@__crt_stdio_output@@V?$format_validation_base@DV?$stream_output_adapter@D@__crt_stdio_output@@@2@@__crt_stdio_output@@AAE_NXZ 004441b0 f i libucrtd:output.obj
 0001:00043210       ?state_case_percent@?$output_processor@DV?$stream_output_adapter@D@__crt_stdio_output@@V?$positional_parameter_base@DV?$stream_output_adapter@D@__crt_stdio_output@@@2@@__crt_stdio_output@@AAE_NXZ 00444210 f i libucrtd:output.obj
 0001:00043270       ?state_case_percent@?$output_processor@DV?$stream_output_adapter@D@__crt_stdio_output@@V?$standard_base@DV?$stream_output_adapter@D@__crt_stdio_output@@@2@@__crt_stdio_output@@AAE_NXZ 00444270 f i libucrtd:output.obj
 0001:000432d0       ?state_case_percent@?$output_processor@DV?$string_output_adapter@D@__crt_stdio_output@@V?$format_validation_base@DV?$string_output_adapter@D@__crt_stdio_output@@@2@@__crt_stdio_output@@AAE_NXZ 004442d0 f i libucrtd:output.obj
 0001:00043330       ?state_case_percent@?$output_processor@DV?$string_output_adapter@D@__crt_stdio_output@@V?$positional_parameter_base@DV?$string_output_adapter@D@__crt_stdio_output@@@2@@__crt_stdio_output@@AAE_NXZ 00444330 f i libucrtd:output.obj
 0001:00043390       ?state_case_percent@?$output_processor@DV?$string_output_adapter@D@__crt_stdio_output@@V?$standard_base@DV?$string_output_adapter@D@__crt_stdio_output@@@2@@__crt_stdio_output@@AAE_NXZ 00444390 f i libucrtd:output.obj
 0001:000433f0       ?state_case_percent@?$output_processor@_WV?$stream_output_adapter@_W@__crt_stdio_output@@V?$format_validation_base@_WV?$stream_output_adapter@_W@__crt_stdio_output@@@2@@__crt_stdio_output@@AAE_NXZ 004443f0 f i libucrtd:output.obj
 0001:00043450       ?state_case_percent@?$output_processor@_WV?$stream_output_adapter@_W@__crt_stdio_output@@V?$positional_parameter_base@_WV?$stream_output_adapter@_W@__crt_stdio_output@@@2@@__crt_stdio_output@@AAE_NXZ 00444450 f i libucrtd:output.obj
 0001:000434b0       ?state_case_percent@?$output_processor@_WV?$stream_output_adapter@_W@__crt_stdio_output@@V?$standard_base@_WV?$stream_output_adapter@_W@__crt_stdio_output@@@2@@__crt_stdio_output@@AAE_NXZ 004444b0 f i libucrtd:output.obj
 0001:00043510       ?state_case_percent@?$output_processor@_WV?$string_output_adapter@_W@__crt_stdio_output@@V?$format_validation_base@_WV?$string_output_adapter@_W@__crt_stdio_output@@@2@@__crt_stdio_output@@AAE_NXZ 00444510 f i libucrtd:output.obj
 0001:00043570       ?state_case_percent@?$output_processor@_WV?$string_output_adapter@_W@__crt_stdio_output@@V?$positional_parameter_base@_WV?$string_output_adapter@_W@__crt_stdio_output@@@2@@__crt_stdio_output@@AAE_NXZ 00444570 f i libucrtd:output.obj
 0001:000435d0       ?state_case_percent@?$output_processor@_WV?$string_output_adapter@_W@__crt_stdio_output@@V?$standard_base@_WV?$string_output_adapter@_W@__crt_stdio_output@@@2@@__crt_stdio_output@@AAE_NXZ 004445d0 f i libucrtd:output.obj
 0001:00043630       ?state_case_precision@?$output_processor@DV?$stream_output_adapter@D@__crt_stdio_output@@V?$format_validation_base@DV?$stream_output_adapter@D@__crt_stdio_output@@@2@@__crt_stdio_output@@AAE_NXZ 00444630 f i libucrtd:output.obj
 0001:000436b0       ?state_case_precision@?$output_processor@DV?$stream_output_adapter@D@__crt_stdio_output@@V?$positional_parameter_base@DV?$stream_output_adapter@D@__crt_stdio_output@@@2@@__crt_stdio_output@@AAE_NXZ 004446b0 f i libucrtd:output.obj
 0001:00043730       ?state_case_precision@?$output_processor@DV?$stream_output_adapter@D@__crt_stdio_output@@V?$standard_base@DV?$stream_output_adapter@D@__crt_stdio_output@@@2@@__crt_stdio_output@@AAE_NXZ 00444730 f i libucrtd:output.obj
 0001:000437b0       ?state_case_precision@?$output_processor@DV?$string_output_adapter@D@__crt_stdio_output@@V?$format_validation_base@DV?$string_output_adapter@D@__crt_stdio_output@@@2@@__crt_stdio_output@@AAE_NXZ 004447b0 f i libucrtd:output.obj
 0001:00043830       ?state_case_precision@?$output_processor@DV?$string_output_adapter@D@__crt_stdio_output@@V?$positional_parameter_base@DV?$string_output_adapter@D@__crt_stdio_output@@@2@@__crt_stdio_output@@AAE_NXZ 00444830 f i libucrtd:output.obj
 0001:000438b0       ?state_case_precision@?$output_processor@DV?$string_output_adapter@D@__crt_stdio_output@@V?$standard_base@DV?$string_output_adapter@D@__crt_stdio_output@@@2@@__crt_stdio_output@@AAE_NXZ 004448b0 f i libucrtd:output.obj
 0001:00043930       ?state_case_precision@?$output_processor@_WV?$stream_output_adapter@_W@__crt_stdio_output@@V?$format_validation_base@_WV?$stream_output_adapter@_W@__crt_stdio_output@@@2@@__crt_stdio_output@@AAE_NXZ 00444930 f i libucrtd:output.obj
 0001:000439b0       ?state_case_precision@?$output_processor@_WV?$stream_output_adapter@_W@__crt_stdio_output@@V?$positional_parameter_base@_WV?$stream_output_adapter@_W@__crt_stdio_output@@@2@@__crt_stdio_output@@AAE_NXZ 004449b0 f i libucrtd:output.obj
 0001:00043a30       ?state_case_precision@?$output_processor@_WV?$stream_output_adapter@_W@__crt_stdio_output@@V?$standard_base@_WV?$stream_output_adapter@_W@__crt_stdio_output@@@2@@__crt_stdio_output@@AAE_NXZ 00444a30 f i libucrtd:output.obj
 0001:00043ab0       ?state_case_precision@?$output_processor@_WV?$string_output_adapter@_W@__crt_stdio_output@@V?$format_validation_base@_WV?$string_output_adapter@_W@__crt_stdio_output@@@2@@__crt_stdio_output@@AAE_NXZ 00444ab0 f i libucrtd:output.obj
 0001:00043b30       ?state_case_precision@?$output_processor@_WV?$string_output_adapter@_W@__crt_stdio_output@@V?$positional_parameter_base@_WV?$string_output_adapter@_W@__crt_stdio_output@@@2@@__crt_stdio_output@@AAE_NXZ 00444b30 f i libucrtd:output.obj
 0001:00043bb0       ?state_case_precision@?$output_processor@_WV?$string_output_adapter@_W@__crt_stdio_output@@V?$standard_base@_WV?$string_output_adapter@_W@__crt_stdio_output@@@2@@__crt_stdio_output@@AAE_NXZ 00444bb0 f i libucrtd:output.obj
 0001:00043c30       ?state_case_size@?$output_processor@DV?$stream_output_adapter@D@__crt_stdio_output@@V?$format_validation_base@DV?$stream_output_adapter@D@__crt_stdio_output@@@2@@__crt_stdio_output@@AAE_NXZ 00444c30 f i libucrtd:output.obj
 0001:000440f0       ?state_case_size@?$output_processor@DV?$stream_output_adapter@D@__crt_stdio_output@@V?$positional_parameter_base@DV?$stream_output_adapter@D@__crt_stdio_output@@@2@@__crt_stdio_output@@AAE_NXZ 004450f0 f i libucrtd:output.obj
 0001:000445b0       ?state_case_size@?$output_processor@DV?$stream_output_adapter@D@__crt_stdio_output@@V?$standard_base@DV?$stream_output_adapter@D@__crt_stdio_output@@@2@@__crt_stdio_output@@AAE_NXZ 004455b0 f i libucrtd:output.obj
 0001:00044a70       ?state_case_size@?$output_processor@DV?$string_output_adapter@D@__crt_stdio_output@@V?$format_validation_base@DV?$string_output_adapter@D@__crt_stdio_output@@@2@@__crt_stdio_output@@AAE_NXZ 00445a70 f i libucrtd:output.obj
 0001:00044f30       ?state_case_size@?$output_processor@DV?$string_output_adapter@D@__crt_stdio_output@@V?$positional_parameter_base@DV?$string_output_adapter@D@__crt_stdio_output@@@2@@__crt_stdio_output@@AAE_NXZ 00445f30 f i libucrtd:output.obj
 0001:000453f0       ?state_case_size@?$output_processor@DV?$string_output_adapter@D@__crt_stdio_output@@V?$standard_base@DV?$string_output_adapter@D@__crt_stdio_output@@@2@@__crt_stdio_output@@AAE_NXZ 004463f0 f i libucrtd:output.obj
 0001:000458b0       ?state_case_size@?$output_processor@_WV?$stream_output_adapter@_W@__crt_stdio_output@@V?$format_validation_base@_WV?$stream_output_adapter@_W@__crt_stdio_output@@@2@@__crt_stdio_output@@AAE_NXZ 004468b0 f i libucrtd:output.obj
 0001:00045d70       ?state_case_size@?$output_processor@_WV?$stream_output_adapter@_W@__crt_stdio_output@@V?$positional_parameter_base@_WV?$stream_output_adapter@_W@__crt_stdio_output@@@2@@__crt_stdio_output@@AAE_NXZ 00446d70 f i libucrtd:output.obj
 0001:00046230       ?state_case_size@?$output_processor@_WV?$stream_output_adapter@_W@__crt_stdio_output@@V?$standard_base@_WV?$stream_output_adapter@_W@__crt_stdio_output@@@2@@__crt_stdio_output@@AAE_NXZ 00447230 f i libucrtd:output.obj
 0001:000466f0       ?state_case_size@?$output_processor@_WV?$string_output_adapter@_W@__crt_stdio_output@@V?$format_validation_base@_WV?$string_output_adapter@_W@__crt_stdio_output@@@2@@__crt_stdio_output@@AAE_NXZ 004476f0 f i libucrtd:output.obj
 0001:00046bb0       ?state_case_size@?$output_processor@_WV?$string_output_adapter@_W@__crt_stdio_output@@V?$positional_parameter_base@_WV?$string_output_adapter@_W@__crt_stdio_output@@@2@@__crt_stdio_output@@AAE_NXZ 00447bb0 f i libucrtd:output.obj
 0001:00047070       ?state_case_size@?$output_processor@_WV?$string_output_adapter@_W@__crt_stdio_output@@V?$standard_base@_WV?$string_output_adapter@_W@__crt_stdio_output@@@2@@__crt_stdio_output@@AAE_NXZ 00448070 f i libucrtd:output.obj
 0001:00047530       ?state_case_type@?$output_processor@DV?$stream_output_adapter@D@__crt_stdio_output@@V?$format_validation_base@DV?$stream_output_adapter@D@__crt_stdio_output@@@2@@__crt_stdio_output@@AAE_NXZ 00448530 f i libucrtd:output.obj
 0001:000479d0       ?state_case_type@?$output_processor@DV?$stream_output_adapter@D@__crt_stdio_output@@V?$positional_parameter_base@DV?$stream_output_adapter@D@__crt_stdio_output@@@2@@__crt_stdio_output@@AAE_NXZ 004489d0 f i libucrtd:output.obj
 0001:00047e70       ?state_case_type@?$output_processor@DV?$stream_output_adapter@D@__crt_stdio_output@@V?$standard_base@DV?$stream_output_adapter@D@__crt_stdio_output@@@2@@__crt_stdio_output@@AAE_NXZ 00448e70 f i libucrtd:output.obj
 0001:00048310       ?state_case_type@?$output_processor@DV?$string_output_adapter@D@__crt_stdio_output@@V?$format_validation_base@DV?$string_output_adapter@D@__crt_stdio_output@@@2@@__crt_stdio_output@@AAE_NXZ 00449310 f i libucrtd:output.obj
 0001:000487b0       ?state_case_type@?$output_processor@DV?$string_output_adapter@D@__crt_stdio_output@@V?$positional_parameter_base@DV?$string_output_adapter@D@__crt_stdio_output@@@2@@__crt_stdio_output@@AAE_NXZ 004497b0 f i libucrtd:output.obj
 0001:00048c50       ?state_case_type@?$output_processor@DV?$string_output_adapter@D@__crt_stdio_output@@V?$standard_base@DV?$string_output_adapter@D@__crt_stdio_output@@@2@@__crt_stdio_output@@AAE_NXZ 00449c50 f i libucrtd:output.obj
 0001:000490f0       ?state_case_type@?$output_processor@_WV?$stream_output_adapter@_W@__crt_stdio_output@@V?$format_validation_base@_WV?$stream_output_adapter@_W@__crt_stdio_output@@@2@@__crt_stdio_output@@AAE_NXZ 0044a0f0 f i libucrtd:output.obj
 0001:000495c0       ?state_case_type@?$output_processor@_WV?$stream_output_adapter@_W@__crt_stdio_output@@V?$positional_parameter_base@_WV?$stream_output_adapter@_W@__crt_stdio_output@@@2@@__crt_stdio_output@@AAE_NXZ 0044a5c0 f i libucrtd:output.obj
 0001:00049a90       ?state_case_type@?$output_processor@_WV?$stream_output_adapter@_W@__crt_stdio_output@@V?$standard_base@_WV?$stream_output_adapter@_W@__crt_stdio_output@@@2@@__crt_stdio_output@@AAE_NXZ 0044aa90 f i libucrtd:output.obj
 0001:00049f60       ?state_case_type@?$output_processor@_WV?$string_output_adapter@_W@__crt_stdio_output@@V?$format_validation_base@_WV?$string_output_adapter@_W@__crt_stdio_output@@@2@@__crt_stdio_output@@AAE_NXZ 0044af60 f i libucrtd:output.obj
 0001:0004a430       ?state_case_type@?$output_processor@_WV?$string_output_adapter@_W@__crt_stdio_output@@V?$positional_parameter_base@_WV?$string_output_adapter@_W@__crt_stdio_output@@@2@@__crt_stdio_output@@AAE_NXZ 0044b430 f i libucrtd:output.obj
 0001:0004a900       ?state_case_type@?$output_processor@_WV?$string_output_adapter@_W@__crt_stdio_output@@V?$standard_base@_WV?$string_output_adapter@_W@__crt_stdio_output@@@2@@__crt_stdio_output@@AAE_NXZ 0044b900 f i libucrtd:output.obj
 0001:0004add0       ?state_case_width@?$output_processor@DV?$stream_output_adapter@D@__crt_stdio_output@@V?$format_validation_base@DV?$stream_output_adapter@D@__crt_stdio_output@@@2@@__crt_stdio_output@@AAE_NXZ 0044bdd0 f i libucrtd:output.obj
 0001:0004ae60       ?state_case_width@?$output_processor@DV?$stream_output_adapter@D@__crt_stdio_output@@V?$positional_parameter_base@DV?$stream_output_adapter@D@__crt_stdio_output@@@2@@__crt_stdio_output@@AAE_NXZ 0044be60 f i libucrtd:output.obj
 0001:0004aef0       ?state_case_width@?$output_processor@DV?$stream_output_adapter@D@__crt_stdio_output@@V?$standard_base@DV?$stream_output_adapter@D@__crt_stdio_output@@@2@@__crt_stdio_output@@AAE_NXZ 0044bef0 f i libucrtd:output.obj
 0001:0004af80       ?state_case_width@?$output_processor@DV?$string_output_adapter@D@__crt_stdio_output@@V?$format_validation_base@DV?$string_output_adapter@D@__crt_stdio_output@@@2@@__crt_stdio_output@@AAE_NXZ 0044bf80 f i libucrtd:output.obj
 0001:0004b010       ?state_case_width@?$output_processor@DV?$string_output_adapter@D@__crt_stdio_output@@V?$positional_parameter_base@DV?$string_output_adapter@D@__crt_stdio_output@@@2@@__crt_stdio_output@@AAE_NXZ 0044c010 f i libucrtd:output.obj
 0001:0004b0a0       ?state_case_width@?$output_processor@DV?$string_output_adapter@D@__crt_stdio_output@@V?$standard_base@DV?$string_output_adapter@D@__crt_stdio_output@@@2@@__crt_stdio_output@@AAE_NXZ 0044c0a0 f i libucrtd:output.obj
 0001:0004b130       ?state_case_width@?$output_processor@_WV?$stream_output_adapter@_W@__crt_stdio_output@@V?$format_validation_base@_WV?$stream_output_adapter@_W@__crt_stdio_output@@@2@@__crt_stdio_output@@AAE_NXZ 0044c130 f i libucrtd:output.obj
 0001:0004b1c0       ?state_case_width@?$output_processor@_WV?$stream_output_adapter@_W@__crt_stdio_output@@V?$positional_parameter_base@_WV?$stream_output_adapter@_W@__crt_stdio_output@@@2@@__crt_stdio_output@@AAE_NXZ 0044c1c0 f i libucrtd:output.obj
 0001:0004b250       ?state_case_width@?$output_processor@_WV?$stream_output_adapter@_W@__crt_stdio_output@@V?$standard_base@_WV?$stream_output_adapter@_W@__crt_stdio_output@@@2@@__crt_stdio_output@@AAE_NXZ 0044c250 f i libucrtd:output.obj
 0001:0004b2e0       ?state_case_width@?$output_processor@_WV?$string_output_adapter@_W@__crt_stdio_output@@V?$format_validation_base@_WV?$string_output_adapter@_W@__crt_stdio_output@@@2@@__crt_stdio_output@@AAE_NXZ 0044c2e0 f i libucrtd:output.obj
 0001:0004b370       ?state_case_width@?$output_processor@_WV?$string_output_adapter@_W@__crt_stdio_output@@V?$positional_parameter_base@_WV?$string_output_adapter@_W@__crt_stdio_output@@@2@@__crt_stdio_output@@AAE_NXZ 0044c370 f i libucrtd:output.obj
 0001:0004b400       ?state_case_width@?$output_processor@_WV?$string_output_adapter@_W@__crt_stdio_output@@V?$standard_base@_WV?$string_output_adapter@_W@__crt_stdio_output@@@2@@__crt_stdio_output@@AAE_NXZ 0044c400 f i libucrtd:output.obj
 0001:0004b490       ?state_count@?$format_validation_base@DV?$stream_output_adapter@D@__crt_stdio_output@@@__crt_stdio_output@@KAIXZ 0044c490 f i libucrtd:output.obj
 0001:0004b4a0       ?state_count@?$format_validation_base@DV?$string_output_adapter@D@__crt_stdio_output@@@__crt_stdio_output@@KAIXZ 0044c4a0 f i libucrtd:output.obj
 0001:0004b4b0       ?state_count@?$format_validation_base@_WV?$stream_output_adapter@_W@__crt_stdio_output@@@__crt_stdio_output@@KAIXZ 0044c4b0 f i libucrtd:output.obj
 0001:0004b4c0       ?state_count@?$format_validation_base@_WV?$string_output_adapter@_W@__crt_stdio_output@@@__crt_stdio_output@@KAIXZ 0044c4c0 f i libucrtd:output.obj
 0001:0004b4d0       ?state_count@?$standard_base@DV?$stream_output_adapter@D@__crt_stdio_output@@@__crt_stdio_output@@KAIXZ 0044c4d0 f i libucrtd:output.obj
 0001:0004b4e0       ?state_count@?$standard_base@DV?$string_output_adapter@D@__crt_stdio_output@@@__crt_stdio_output@@KAIXZ 0044c4e0 f i libucrtd:output.obj
 0001:0004b4f0       ?state_count@?$standard_base@_WV?$stream_output_adapter@_W@__crt_stdio_output@@@__crt_stdio_output@@KAIXZ 0044c4f0 f i libucrtd:output.obj
 0001:0004b500       ?state_count@?$standard_base@_WV?$string_output_adapter@_W@__crt_stdio_output@@@__crt_stdio_output@@KAIXZ 0044c500 f i libucrtd:output.obj
 0001:0004b510       ?state_transition_table@?$format_validation_base@DV?$stream_output_adapter@D@__crt_stdio_output@@@__crt_stdio_output@@KAPBEXZ 0044c510 f i libucrtd:output.obj
 0001:0004b520       ?state_transition_table@?$format_validation_base@DV?$string_output_adapter@D@__crt_stdio_output@@@__crt_stdio_output@@KAPBEXZ 0044c520 f i libucrtd:output.obj
 0001:0004b530       ?state_transition_table@?$format_validation_base@_WV?$stream_output_adapter@_W@__crt_stdio_output@@@__crt_stdio_output@@KAPBEXZ 0044c530 f i libucrtd:output.obj
 0001:0004b540       ?state_transition_table@?$format_validation_base@_WV?$string_output_adapter@_W@__crt_stdio_output@@@__crt_stdio_output@@KAPBEXZ 0044c540 f i libucrtd:output.obj
 0001:0004b550       ?state_transition_table@?$standard_base@DV?$stream_output_adapter@D@__crt_stdio_output@@@__crt_stdio_output@@KAPBEXZ 0044c550 f i libucrtd:output.obj
 0001:0004b560       ?state_transition_table@?$standard_base@DV?$string_output_adapter@D@__crt_stdio_output@@@__crt_stdio_output@@KAPBEXZ 0044c560 f i libucrtd:output.obj
 0001:0004b570       ?state_transition_table@?$standard_base@_WV?$stream_output_adapter@_W@__crt_stdio_output@@@__crt_stdio_output@@KAPBEXZ 0044c570 f i libucrtd:output.obj
 0001:0004b580       ?state_transition_table@?$standard_base@_WV?$string_output_adapter@_W@__crt_stdio_output@@@__crt_stdio_output@@KAPBEXZ 0044c580 f i libucrtd:output.obj
 0001:0004b590       ?tchar_string@?$common_data@D@__crt_stdio_output@@IAEAAPADD@Z 0044c590 f i libucrtd:output.obj
 0001:0004b5b0       ?tchar_string@?$common_data@D@__crt_stdio_output@@IAEAAPADXZ 0044c5b0 f i libucrtd:output.obj
 0001:0004b5d0       ?tchar_string@?$common_data@_W@__crt_stdio_output@@IAEAAPA_WXZ 0044c5d0 f i libucrtd:output.obj
 0001:0004b5f0       ?tchar_string@?$common_data@_W@__crt_stdio_output@@IAEAAPA_W_W@Z 0044c5f0 f i libucrtd:output.obj
 0001:0004b610       ?to_integer_size@__crt_stdio_output@@YAIW4length_modifier@1@@Z 0044c610 f i libucrtd:output.obj
 0001:0004b6e0       ?type_case_X@?$output_processor@DV?$stream_output_adapter@D@__crt_stdio_output@@V?$format_validation_base@DV?$stream_output_adapter@D@__crt_stdio_output@@@2@@__crt_stdio_output@@AAE_NXZ 0044c6e0 f i libucrtd:output.obj
 0001:0004b700       ?type_case_X@?$output_processor@DV?$stream_output_adapter@D@__crt_stdio_output@@V?$positional_parameter_base@DV?$stream_output_adapter@D@__crt_stdio_output@@@2@@__crt_stdio_output@@AAE_NXZ 0044c700 f i libucrtd:output.obj
 0001:0004b720       ?type_case_X@?$output_processor@DV?$stream_output_adapter@D@__crt_stdio_output@@V?$standard_base@DV?$stream_output_adapter@D@__crt_stdio_output@@@2@@__crt_stdio_output@@AAE_NXZ 0044c720 f i libucrtd:output.obj
 0001:0004b740       ?type_case_X@?$output_processor@DV?$string_output_adapter@D@__crt_stdio_output@@V?$format_validation_base@DV?$string_output_adapter@D@__crt_stdio_output@@@2@@__crt_stdio_output@@AAE_NXZ 0044c740 f i libucrtd:output.obj
 0001:0004b760       ?type_case_X@?$output_processor@DV?$string_output_adapter@D@__crt_stdio_output@@V?$positional_parameter_base@DV?$string_output_adapter@D@__crt_stdio_output@@@2@@__crt_stdio_output@@AAE_NXZ 0044c760 f i libucrtd:output.obj
 0001:0004b780       ?type_case_X@?$output_processor@DV?$string_output_adapter@D@__crt_stdio_output@@V?$standard_base@DV?$string_output_adapter@D@__crt_stdio_output@@@2@@__crt_stdio_output@@AAE_NXZ 0044c780 f i libucrtd:output.obj
 0001:0004b7a0       ?type_case_X@?$output_processor@_WV?$stream_output_adapter@_W@__crt_stdio_output@@V?$format_validation_base@_WV?$stream_output_adapter@_W@__crt_stdio_output@@@2@@__crt_stdio_output@@AAE_NXZ 0044c7a0 f i libucrtd:output.obj
 0001:0004b7c0       ?type_case_X@?$output_processor@_WV?$stream_output_adapter@_W@__crt_stdio_output@@V?$positional_parameter_base@_WV?$stream_output_adapter@_W@__crt_stdio_output@@@2@@__crt_stdio_output@@AAE_NXZ 0044c7c0 f i libucrtd:output.obj
 0001:0004b7e0       ?type_case_X@?$output_processor@_WV?$stream_output_adapter@_W@__crt_stdio_output@@V?$standard_base@_WV?$stream_output_adapter@_W@__crt_stdio_output@@@2@@__crt_stdio_output@@AAE_NXZ 0044c7e0 f i libucrtd:output.obj
 0001:0004b800       ?type_case_X@?$output_processor@_WV?$string_output_adapter@_W@__crt_stdio_output@@V?$format_validation_base@_WV?$string_output_adapter@_W@__crt_stdio_output@@@2@@__crt_stdio_output@@AAE_NXZ 0044c800 f i libucrtd:output.obj
 0001:0004b820       ?type_case_X@?$output_processor@_WV?$string_output_adapter@_W@__crt_stdio_output@@V?$positional_parameter_base@_WV?$string_output_adapter@_W@__crt_stdio_output@@@2@@__crt_stdio_output@@AAE_NXZ 0044c820 f i libucrtd:output.obj
 0001:0004b840       ?type_case_X@?$output_processor@_WV?$string_output_adapter@_W@__crt_stdio_output@@V?$standard_base@_WV?$string_output_adapter@_W@__crt_stdio_output@@@2@@__crt_stdio_output@@AAE_NXZ 0044c840 f i libucrtd:output.obj
 0001:0004b860       ?type_case_Z@?$output_processor@DV?$stream_output_adapter@D@__crt_stdio_output@@V?$format_validation_base@DV?$stream_output_adapter@D@__crt_stdio_output@@@2@@__crt_stdio_output@@AAE_NXZ 0044c860 f i libucrtd:output.obj
 0001:0004b990       ?type_case_Z@?$output_processor@DV?$stream_output_adapter@D@__crt_stdio_output@@V?$positional_parameter_base@DV?$stream_output_adapter@D@__crt_stdio_output@@@2@@__crt_stdio_output@@AAE_NXZ 0044c990 f i libucrtd:output.obj
 0001:0004bac0       ?type_case_Z@?$output_processor@DV?$stream_output_adapter@D@__crt_stdio_output@@V?$standard_base@DV?$stream_output_adapter@D@__crt_stdio_output@@@2@@__crt_stdio_output@@AAE_NXZ 0044cac0 f i libucrtd:output.obj
 0001:0004bbf0       ?type_case_Z@?$output_processor@DV?$string_output_adapter@D@__crt_stdio_output@@V?$format_validation_base@DV?$string_output_adapter@D@__crt_stdio_output@@@2@@__crt_stdio_output@@AAE_NXZ 0044cbf0 f i libucrtd:output.obj
 0001:0004bd20       ?type_case_Z@?$output_processor@DV?$string_output_adapter@D@__crt_stdio_output@@V?$positional_parameter_base@DV?$string_output_adapter@D@__crt_stdio_output@@@2@@__crt_stdio_output@@AAE_NXZ 0044cd20 f i libucrtd:output.obj
 0001:0004be50       ?type_case_Z@?$output_processor@DV?$string_output_adapter@D@__crt_stdio_output@@V?$standard_base@DV?$string_output_adapter@D@__crt_stdio_output@@@2@@__crt_stdio_output@@AAE_NXZ 0044ce50 f i libucrtd:output.obj
 0001:0004bf80       ?type_case_Z@?$output_processor@_WV?$stream_output_adapter@_W@__crt_stdio_output@@V?$format_validation_base@_WV?$stream_output_adapter@_W@__crt_stdio_output@@@2@@__crt_stdio_output@@AAE_NXZ 0044cf80 f i libucrtd:output.obj
 0001:0004c0b0       ?type_case_Z@?$output_processor@_WV?$stream_output_adapter@_W@__crt_stdio_output@@V?$positional_parameter_base@_WV?$stream_output_adapter@_W@__crt_stdio_output@@@2@@__crt_stdio_output@@AAE_NXZ 0044d0b0 f i libucrtd:output.obj
 0001:0004c1e0       ?type_case_Z@?$output_processor@_WV?$stream_output_adapter@_W@__crt_stdio_output@@V?$standard_base@_WV?$stream_output_adapter@_W@__crt_stdio_output@@@2@@__crt_stdio_output@@AAE_NXZ 0044d1e0 f i libucrtd:output.obj
 0001:0004c310       ?type_case_Z@?$output_processor@_WV?$string_output_adapter@_W@__crt_stdio_output@@V?$format_validation_base@_WV?$string_output_adapter@_W@__crt_stdio_output@@@2@@__crt_stdio_output@@AAE_NXZ 0044d310 f i libucrtd:output.obj
 0001:0004c440       ?type_case_Z@?$output_processor@_WV?$string_output_adapter@_W@__crt_stdio_output@@V?$positional_parameter_base@_WV?$string_output_adapter@_W@__crt_stdio_output@@@2@@__crt_stdio_output@@AAE_NXZ 0044d440 f i libucrtd:output.obj
 0001:0004c570       ?type_case_Z@?$output_processor@_WV?$string_output_adapter@_W@__crt_stdio_output@@V?$standard_base@_WV?$string_output_adapter@_W@__crt_stdio_output@@@2@@__crt_stdio_output@@AAE_NXZ 0044d570 f i libucrtd:output.obj
 0001:0004c6a0       ?type_case_a@?$output_processor@DV?$stream_output_adapter@D@__crt_stdio_output@@V?$format_validation_base@DV?$stream_output_adapter@D@__crt_stdio_output@@@2@@__crt_stdio_output@@AAE_NXZ 0044d6a0 f i libucrtd:output.obj
 0001:0004c9a0       ?type_case_a@?$output_processor@DV?$stream_output_adapter@D@__crt_stdio_output@@V?$positional_parameter_base@DV?$stream_output_adapter@D@__crt_stdio_output@@@2@@__crt_stdio_output@@AAE_NXZ 0044d9a0 f i libucrtd:output.obj
 0001:0004cca0       ?type_case_a@?$output_processor@DV?$stream_output_adapter@D@__crt_stdio_output@@V?$standard_base@DV?$stream_output_adapter@D@__crt_stdio_output@@@2@@__crt_stdio_output@@AAE_NXZ 0044dca0 f i libucrtd:output.obj
 0001:0004cfa0       ?type_case_a@?$output_processor@DV?$string_output_adapter@D@__crt_stdio_output@@V?$format_validation_base@DV?$string_output_adapter@D@__crt_stdio_output@@@2@@__crt_stdio_output@@AAE_NXZ 0044dfa0 f i libucrtd:output.obj
 0001:0004d2a0       ?type_case_a@?$output_processor@DV?$string_output_adapter@D@__crt_stdio_output@@V?$positional_parameter_base@DV?$string_output_adapter@D@__crt_stdio_output@@@2@@__crt_stdio_output@@AAE_NXZ 0044e2a0 f i libucrtd:output.obj
 0001:0004d5a0       ?type_case_a@?$output_processor@DV?$string_output_adapter@D@__crt_stdio_output@@V?$standard_base@DV?$string_output_adapter@D@__crt_stdio_output@@@2@@__crt_stdio_output@@AAE_NXZ 0044e5a0 f i libucrtd:output.obj
 0001:0004d8a0       ?type_case_a@?$output_processor@_WV?$stream_output_adapter@_W@__crt_stdio_output@@V?$format_validation_base@_WV?$stream_output_adapter@_W@__crt_stdio_output@@@2@@__crt_stdio_output@@AAE_NXZ 0044e8a0 f i libucrtd:output.obj
 0001:0004dbb0       ?type_case_a@?$output_processor@_WV?$stream_output_adapter@_W@__crt_stdio_output@@V?$positional_parameter_base@_WV?$stream_output_adapter@_W@__crt_stdio_output@@@2@@__crt_stdio_output@@AAE_NXZ 0044ebb0 f i libucrtd:output.obj
 0001:0004dec0       ?type_case_a@?$output_processor@_WV?$stream_output_adapter@_W@__crt_stdio_output@@V?$standard_base@_WV?$stream_output_adapter@_W@__crt_stdio_output@@@2@@__crt_stdio_output@@AAE_NXZ 0044eec0 f i libucrtd:output.obj
 0001:0004e1d0       ?type_case_a@?$output_processor@_WV?$string_output_adapter@_W@__crt_stdio_output@@V?$format_validation_base@_WV?$string_output_adapter@_W@__crt_stdio_output@@@2@@__crt_stdio_output@@AAE_NXZ 0044f1d0 f i libucrtd:output.obj
 0001:0004e4e0       ?type_case_a@?$output_processor@_WV?$string_output_adapter@_W@__crt_stdio_output@@V?$positional_parameter_base@_WV?$string_output_adapter@_W@__crt_stdio_output@@@2@@__crt_stdio_output@@AAE_NXZ 0044f4e0 f i libucrtd:output.obj
 0001:0004e7f0       ?type_case_a@?$output_processor@_WV?$string_output_adapter@_W@__crt_stdio_output@@V?$standard_base@_WV?$string_output_adapter@_W@__crt_stdio_output@@@2@@__crt_stdio_output@@AAE_NXZ 0044f7f0 f i libucrtd:output.obj
 0001:0004eb00       ?type_case_c@?$output_processor@DV?$stream_output_adapter@D@__crt_stdio_output@@V?$format_validation_base@DV?$stream_output_adapter@D@__crt_stdio_output@@@2@@__crt_stdio_output@@AAE_NXZ 0044fb00 f i libucrtd:output.obj
 0001:0004eb20       ?type_case_c@?$output_processor@DV?$stream_output_adapter@D@__crt_stdio_output@@V?$positional_parameter_base@DV?$stream_output_adapter@D@__crt_stdio_output@@@2@@__crt_stdio_output@@AAE_NXZ 0044fb20 f i libucrtd:output.obj
 0001:0004eb40       ?type_case_c@?$output_processor@DV?$stream_output_adapter@D@__crt_stdio_output@@V?$standard_base@DV?$stream_output_adapter@D@__crt_stdio_output@@@2@@__crt_stdio_output@@AAE_NXZ 0044fb40 f i libucrtd:output.obj
 0001:0004eb60       ?type_case_c@?$output_processor@DV?$string_output_adapter@D@__crt_stdio_output@@V?$format_validation_base@DV?$string_output_adapter@D@__crt_stdio_output@@@2@@__crt_stdio_output@@AAE_NXZ 0044fb60 f i libucrtd:output.obj
 0001:0004eb80       ?type_case_c@?$output_processor@DV?$string_output_adapter@D@__crt_stdio_output@@V?$positional_parameter_base@DV?$string_output_adapter@D@__crt_stdio_output@@@2@@__crt_stdio_output@@AAE_NXZ 0044fb80 f i libucrtd:output.obj
 0001:0004eba0       ?type_case_c@?$output_processor@DV?$string_output_adapter@D@__crt_stdio_output@@V?$standard_base@DV?$string_output_adapter@D@__crt_stdio_output@@@2@@__crt_stdio_output@@AAE_NXZ 0044fba0 f i libucrtd:output.obj
 0001:0004ebc0       ?type_case_c@?$output_processor@_WV?$stream_output_adapter@_W@__crt_stdio_output@@V?$format_validation_base@_WV?$stream_output_adapter@_W@__crt_stdio_output@@@2@@__crt_stdio_output@@AAE_NXZ 0044fbc0 f i libucrtd:output.obj
 0001:0004ebe0       ?type_case_c@?$output_processor@_WV?$stream_output_adapter@_W@__crt_stdio_output@@V?$positional_parameter_base@_WV?$stream_output_adapter@_W@__crt_stdio_output@@@2@@__crt_stdio_output@@AAE_NXZ 0044fbe0 f i libucrtd:output.obj
 0001:0004ec00       ?type_case_c@?$output_processor@_WV?$stream_output_adapter@_W@__crt_stdio_output@@V?$standard_base@_WV?$stream_output_adapter@_W@__crt_stdio_output@@@2@@__crt_stdio_output@@AAE_NXZ 0044fc00 f i libucrtd:output.obj
 0001:0004ec20       ?type_case_c@?$output_processor@_WV?$string_output_adapter@_W@__crt_stdio_output@@V?$format_validation_base@_WV?$string_output_adapter@_W@__crt_stdio_output@@@2@@__crt_stdio_output@@AAE_NXZ 0044fc20 f i libucrtd:output.obj
 0001:0004ec40       ?type_case_c@?$output_processor@_WV?$string_output_adapter@_W@__crt_stdio_output@@V?$positional_parameter_base@_WV?$string_output_adapter@_W@__crt_stdio_output@@@2@@__crt_stdio_output@@AAE_NXZ 0044fc40 f i libucrtd:output.obj
 0001:0004ec60       ?type_case_c@?$output_processor@_WV?$string_output_adapter@_W@__crt_stdio_output@@V?$standard_base@_WV?$string_output_adapter@_W@__crt_stdio_output@@@2@@__crt_stdio_output@@AAE_NXZ 0044fc60 f i libucrtd:output.obj
 0001:0004ec80       ?type_case_c_tchar@?$output_processor@DV?$stream_output_adapter@D@__crt_stdio_output@@V?$format_validation_base@DV?$stream_output_adapter@D@__crt_stdio_output@@@2@@__crt_stdio_output@@AAE_ND@Z 0044fc80 f i libucrtd:output.obj
 0001:0004edd0       ?type_case_c_tchar@?$output_processor@DV?$stream_output_adapter@D@__crt_stdio_output@@V?$positional_parameter_base@DV?$stream_output_adapter@D@__crt_stdio_output@@@2@@__crt_stdio_output@@AAE_ND@Z 0044fdd0 f i libucrtd:output.obj
 0001:0004ef20       ?type_case_c_tchar@?$output_processor@DV?$stream_output_adapter@D@__crt_stdio_output@@V?$standard_base@DV?$stream_output_adapter@D@__crt_stdio_output@@@2@@__crt_stdio_output@@AAE_ND@Z 0044ff20 f i libucrtd:output.obj
 0001:0004f070       ?type_case_c_tchar@?$output_processor@DV?$string_output_adapter@D@__crt_stdio_output@@V?$format_validation_base@DV?$string_output_adapter@D@__crt_stdio_output@@@2@@__crt_stdio_output@@AAE_ND@Z 00450070 f i libucrtd:output.obj
 0001:0004f1c0       ?type_case_c_tchar@?$output_processor@DV?$string_output_adapter@D@__crt_stdio_output@@V?$positional_parameter_base@DV?$string_output_adapter@D@__crt_stdio_output@@@2@@__crt_stdio_output@@AAE_ND@Z 004501c0 f i libucrtd:output.obj
 0001:0004f310       ?type_case_c_tchar@?$output_processor@DV?$string_output_adapter@D@__crt_stdio_output@@V?$standard_base@DV?$string_output_adapter@D@__crt_stdio_output@@@2@@__crt_stdio_output@@AAE_ND@Z 00450310 f i libucrtd:output.obj
 0001:0004f460       ?type_case_c_tchar@?$output_processor@_WV?$stream_output_adapter@_W@__crt_stdio_output@@V?$format_validation_base@_WV?$stream_output_adapter@_W@__crt_stdio_output@@@2@@__crt_stdio_output@@AAE_N_W@Z 00450460 f i libucrtd:output.obj
 0001:0004f5a0       ?type_case_c_tchar@?$output_processor@_WV?$stream_output_adapter@_W@__crt_stdio_output@@V?$positional_parameter_base@_WV?$stream_output_adapter@_W@__crt_stdio_output@@@2@@__crt_stdio_output@@AAE_N_W@Z 004505a0 f i libucrtd:output.obj
 0001:0004f6e0       ?type_case_c_tchar@?$output_processor@_WV?$stream_output_adapter@_W@__crt_stdio_output@@V?$standard_base@_WV?$stream_output_adapter@_W@__crt_stdio_output@@@2@@__crt_stdio_output@@AAE_N_W@Z 004506e0 f i libucrtd:output.obj
 0001:0004f820       ?type_case_c_tchar@?$output_processor@_WV?$string_output_adapter@_W@__crt_stdio_output@@V?$format_validation_base@_WV?$string_output_adapter@_W@__crt_stdio_output@@@2@@__crt_stdio_output@@AAE_N_W@Z 00450820 f i libucrtd:output.obj
 0001:0004f960       ?type_case_c_tchar@?$output_processor@_WV?$string_output_adapter@_W@__crt_stdio_output@@V?$positional_parameter_base@_WV?$string_output_adapter@_W@__crt_stdio_output@@@2@@__crt_stdio_output@@AAE_N_W@Z 00450960 f i libucrtd:output.obj
 0001:0004faa0       ?type_case_c_tchar@?$output_processor@_WV?$string_output_adapter@_W@__crt_stdio_output@@V?$standard_base@_WV?$string_output_adapter@_W@__crt_stdio_output@@@2@@__crt_stdio_output@@AAE_N_W@Z 00450aa0 f i libucrtd:output.obj
 0001:0004fbe0       ?type_case_d@?$output_processor@DV?$stream_output_adapter@D@__crt_stdio_output@@V?$format_validation_base@DV?$stream_output_adapter@D@__crt_stdio_output@@@2@@__crt_stdio_output@@AAE_NXZ 00450be0 f i libucrtd:output.obj
 0001:0004fc10       ?type_case_d@?$output_processor@DV?$stream_output_adapter@D@__crt_stdio_output@@V?$positional_parameter_base@DV?$stream_output_adapter@D@__crt_stdio_output@@@2@@__crt_stdio_output@@AAE_NXZ 00450c10 f i libucrtd:output.obj
 0001:0004fc40       ?type_case_d@?$output_processor@DV?$stream_output_adapter@D@__crt_stdio_output@@V?$standard_base@DV?$stream_output_adapter@D@__crt_stdio_output@@@2@@__crt_stdio_output@@AAE_NXZ 00450c40 f i libucrtd:output.obj
 0001:0004fc70       ?type_case_d@?$output_processor@DV?$string_output_adapter@D@__crt_stdio_output@@V?$format_validation_base@DV?$string_output_adapter@D@__crt_stdio_output@@@2@@__crt_stdio_output@@AAE_NXZ 00450c70 f i libucrtd:output.obj
 0001:0004fca0       ?type_case_d@?$output_processor@DV?$string_output_adapter@D@__crt_stdio_output@@V?$positional_parameter_base@DV?$string_output_adapter@D@__crt_stdio_output@@@2@@__crt_stdio_output@@AAE_NXZ 00450ca0 f i libucrtd:output.obj
 0001:0004fcd0       ?type_case_d@?$output_processor@DV?$string_output_adapter@D@__crt_stdio_output@@V?$standard_base@DV?$string_output_adapter@D@__crt_stdio_output@@@2@@__crt_stdio_output@@AAE_NXZ 00450cd0 f i libucrtd:output.obj
 0001:0004fd00       ?type_case_d@?$output_processor@_WV?$stream_output_adapter@_W@__crt_stdio_output@@V?$format_validation_base@_WV?$stream_output_adapter@_W@__crt_stdio_output@@@2@@__crt_stdio_output@@AAE_NXZ 00450d00 f i libucrtd:output.obj
 0001:0004fd30       ?type_case_d@?$output_processor@_WV?$stream_output_adapter@_W@__crt_stdio_output@@V?$positional_parameter_base@_WV?$stream_output_adapter@_W@__crt_stdio_output@@@2@@__crt_stdio_output@@AAE_NXZ 00450d30 f i libucrtd:output.obj
 0001:0004fd60       ?type_case_d@?$output_processor@_WV?$stream_output_adapter@_W@__crt_stdio_output@@V?$standard_base@_WV?$stream_output_adapter@_W@__crt_stdio_output@@@2@@__crt_stdio_output@@AAE_NXZ 00450d60 f i libucrtd:output.obj
 0001:0004fd90       ?type_case_d@?$output_processor@_WV?$string_output_adapter@_W@__crt_stdio_output@@V?$format_validation_base@_WV?$string_output_adapter@_W@__crt_stdio_output@@@2@@__crt_stdio_output@@AAE_NXZ 00450d90 f i libucrtd:output.obj
 0001:0004fdc0       ?type_case_d@?$output_processor@_WV?$string_output_adapter@_W@__crt_stdio_output@@V?$positional_parameter_base@_WV?$string_output_adapter@_W@__crt_stdio_output@@@2@@__crt_stdio_output@@AAE_NXZ 00450dc0 f i libucrtd:output.obj
 0001:0004fdf0       ?type_case_d@?$output_processor@_WV?$string_output_adapter@_W@__crt_stdio_output@@V?$standard_base@_WV?$string_output_adapter@_W@__crt_stdio_output@@@2@@__crt_stdio_output@@AAE_NXZ 00450df0 f i libucrtd:output.obj
 0001:0004fe20       ?type_case_integer@?$output_processor@DV?$stream_output_adapter@D@__crt_stdio_output@@V?$format_validation_base@DV?$stream_output_adapter@D@__crt_stdio_output@@@2@@__crt_stdio_output@@AAE_NI_N@Z 00450e20 f i libucrtd:output.obj
 0001:00050240       ?type_case_integer@?$output_processor@DV?$stream_output_adapter@D@__crt_stdio_output@@V?$positional_parameter_base@DV?$stream_output_adapter@D@__crt_stdio_output@@@2@@__crt_stdio_output@@AAE_NI_N@Z 00451240 f i libucrtd:output.obj
 0001:00050660       ?type_case_integer@?$output_processor@DV?$stream_output_adapter@D@__crt_stdio_output@@V?$standard_base@DV?$stream_output_adapter@D@__crt_stdio_output@@@2@@__crt_stdio_output@@AAE_NI_N@Z 00451660 f i libucrtd:output.obj
 0001:00050a80       ?type_case_integer@?$output_processor@DV?$string_output_adapter@D@__crt_stdio_output@@V?$format_validation_base@DV?$string_output_adapter@D@__crt_stdio_output@@@2@@__crt_stdio_output@@AAE_NI_N@Z 00451a80 f i libucrtd:output.obj
 0001:00050ea0       ?type_case_integer@?$output_processor@DV?$string_output_adapter@D@__crt_stdio_output@@V?$positional_parameter_base@DV?$string_output_adapter@D@__crt_stdio_output@@@2@@__crt_stdio_output@@AAE_NI_N@Z 00451ea0 f i libucrtd:output.obj
 0001:000512c0       ?type_case_integer@?$output_processor@DV?$string_output_adapter@D@__crt_stdio_output@@V?$standard_base@DV?$string_output_adapter@D@__crt_stdio_output@@@2@@__crt_stdio_output@@AAE_NI_N@Z 004522c0 f i libucrtd:output.obj
 0001:000516e0       ?type_case_integer@?$output_processor@_WV?$stream_output_adapter@_W@__crt_stdio_output@@V?$format_validation_base@_WV?$stream_output_adapter@_W@__crt_stdio_output@@@2@@__crt_stdio_output@@AAE_NI_N@Z 004526e0 f i libucrtd:output.obj
 0001:00051b00       ?type_case_integer@?$output_processor@_WV?$stream_output_adapter@_W@__crt_stdio_output@@V?$positional_parameter_base@_WV?$stream_output_adapter@_W@__crt_stdio_output@@@2@@__crt_stdio_output@@AAE_NI_N@Z 00452b00 f i libucrtd:output.obj
 0001:00051f20       ?type_case_integer@?$output_processor@_WV?$stream_output_adapter@_W@__crt_stdio_output@@V?$standard_base@_WV?$stream_output_adapter@_W@__crt_stdio_output@@@2@@__crt_stdio_output@@AAE_NI_N@Z 00452f20 f i libucrtd:output.obj
 0001:00052340       ?type_case_integer@?$output_processor@_WV?$string_output_adapter@_W@__crt_stdio_output@@V?$format_validation_base@_WV?$string_output_adapter@_W@__crt_stdio_output@@@2@@__crt_stdio_output@@AAE_NI_N@Z 00453340 f i libucrtd:output.obj
 0001:00052760       ?type_case_integer@?$output_processor@_WV?$string_output_adapter@_W@__crt_stdio_output@@V?$positional_parameter_base@_WV?$string_output_adapter@_W@__crt_stdio_output@@@2@@__crt_stdio_output@@AAE_NI_N@Z 00453760 f i libucrtd:output.obj
 0001:00052b80       ?type_case_integer@?$output_processor@_WV?$string_output_adapter@_W@__crt_stdio_output@@V?$standard_base@_WV?$string_output_adapter@_W@__crt_stdio_output@@@2@@__crt_stdio_output@@AAE_NI_N@Z 00453b80 f i libucrtd:output.obj
 0001:00052fa0       ?type_case_n@?$output_processor@DV?$stream_output_adapter@D@__crt_stdio_output@@V?$format_validation_base@DV?$stream_output_adapter@D@__crt_stdio_output@@@2@@__crt_stdio_output@@AAE_NXZ 00453fa0 f i libucrtd:output.obj
 0001:00053210       ?type_case_n@?$output_processor@DV?$stream_output_adapter@D@__crt_stdio_output@@V?$positional_parameter_base@DV?$stream_output_adapter@D@__crt_stdio_output@@@2@@__crt_stdio_output@@AAE_NXZ 00454210 f i libucrtd:output.obj
 0001:00053480       ?type_case_n@?$output_processor@DV?$stream_output_adapter@D@__crt_stdio_output@@V?$standard_base@DV?$stream_output_adapter@D@__crt_stdio_output@@@2@@__crt_stdio_output@@AAE_NXZ 00454480 f i libucrtd:output.obj
 0001:000536f0       ?type_case_n@?$output_processor@DV?$string_output_adapter@D@__crt_stdio_output@@V?$format_validation_base@DV?$string_output_adapter@D@__crt_stdio_output@@@2@@__crt_stdio_output@@AAE_NXZ 004546f0 f i libucrtd:output.obj
 0001:00053960       ?type_case_n@?$output_processor@DV?$string_output_adapter@D@__crt_stdio_output@@V?$positional_parameter_base@DV?$string_output_adapter@D@__crt_stdio_output@@@2@@__crt_stdio_output@@AAE_NXZ 00454960 f i libucrtd:output.obj
 0001:00053bd0       ?type_case_n@?$output_processor@DV?$string_output_adapter@D@__crt_stdio_output@@V?$standard_base@DV?$string_output_adapter@D@__crt_stdio_output@@@2@@__crt_stdio_output@@AAE_NXZ 00454bd0 f i libucrtd:output.obj
 0001:00053e40       ?type_case_n@?$output_processor@_WV?$stream_output_adapter@_W@__crt_stdio_output@@V?$format_validation_base@_WV?$stream_output_adapter@_W@__crt_stdio_output@@@2@@__crt_stdio_output@@AAE_NXZ 00454e40 f i libucrtd:output.obj
 0001:000540b0       ?type_case_n@?$output_processor@_WV?$stream_output_adapter@_W@__crt_stdio_output@@V?$positional_parameter_base@_WV?$stream_output_adapter@_W@__crt_stdio_output@@@2@@__crt_stdio_output@@AAE_NXZ 004550b0 f i libucrtd:output.obj
 0001:00054320       ?type_case_n@?$output_processor@_WV?$stream_output_adapter@_W@__crt_stdio_output@@V?$standard_base@_WV?$stream_output_adapter@_W@__crt_stdio_output@@@2@@__crt_stdio_output@@AAE_NXZ 00455320 f i libucrtd:output.obj
 0001:00054590       ?type_case_n@?$output_processor@_WV?$string_output_adapter@_W@__crt_stdio_output@@V?$format_validation_base@_WV?$string_output_adapter@_W@__crt_stdio_output@@@2@@__crt_stdio_output@@AAE_NXZ 00455590 f i libucrtd:output.obj
 0001:00054800       ?type_case_n@?$output_processor@_WV?$string_output_adapter@_W@__crt_stdio_output@@V?$positional_parameter_base@_WV?$string_output_adapter@_W@__crt_stdio_output@@@2@@__crt_stdio_output@@AAE_NXZ 00455800 f i libucrtd:output.obj
 0001:00054a70       ?type_case_n@?$output_processor@_WV?$string_output_adapter@_W@__crt_stdio_output@@V?$standard_base@_WV?$string_output_adapter@_W@__crt_stdio_output@@@2@@__crt_stdio_output@@AAE_NXZ 00455a70 f i libucrtd:output.obj
 0001:00054ce0       ?type_case_o@?$output_processor@DV?$stream_output_adapter@D@__crt_stdio_output@@V?$format_validation_base@DV?$stream_output_adapter@D@__crt_stdio_output@@@2@@__crt_stdio_output@@AAE_NXZ 00455ce0 f i libucrtd:output.obj
 0001:00054d30       ?type_case_o@?$output_processor@DV?$stream_output_adapter@D@__crt_stdio_output@@V?$positional_parameter_base@DV?$stream_output_adapter@D@__crt_stdio_output@@@2@@__crt_stdio_output@@AAE_NXZ 00455d30 f i libucrtd:output.obj
 0001:00054d80       ?type_case_o@?$output_processor@DV?$stream_output_adapter@D@__crt_stdio_output@@V?$standard_base@DV?$stream_output_adapter@D@__crt_stdio_output@@@2@@__crt_stdio_output@@AAE_NXZ 00455d80 f i libucrtd:output.obj
 0001:00054dd0       ?type_case_o@?$output_processor@DV?$string_output_adapter@D@__crt_stdio_output@@V?$format_validation_base@DV?$string_output_adapter@D@__crt_stdio_output@@@2@@__crt_stdio_output@@AAE_NXZ 00455dd0 f i libucrtd:output.obj
 0001:00054e20       ?type_case_o@?$output_processor@DV?$string_output_adapter@D@__crt_stdio_output@@V?$positional_parameter_base@DV?$string_output_adapter@D@__crt_stdio_output@@@2@@__crt_stdio_output@@AAE_NXZ 00455e20 f i libucrtd:output.obj
 0001:00054e70       ?type_case_o@?$output_processor@DV?$string_output_adapter@D@__crt_stdio_output@@V?$standard_base@DV?$string_output_adapter@D@__crt_stdio_output@@@2@@__crt_stdio_output@@AAE_NXZ 00455e70 f i libucrtd:output.obj
 0001:00054ec0       ?type_case_o@?$output_processor@_WV?$stream_output_adapter@_W@__crt_stdio_output@@V?$format_validation_base@_WV?$stream_output_adapter@_W@__crt_stdio_output@@@2@@__crt_stdio_output@@AAE_NXZ 00455ec0 f i libucrtd:output.obj
 0001:00054f10       ?type_case_o@?$output_processor@_WV?$stream_output_adapter@_W@__crt_stdio_output@@V?$positional_parameter_base@_WV?$stream_output_adapter@_W@__crt_stdio_output@@@2@@__crt_stdio_output@@AAE_NXZ 00455f10 f i libucrtd:output.obj
 0001:00054f60       ?type_case_o@?$output_processor@_WV?$stream_output_adapter@_W@__crt_stdio_output@@V?$standard_base@_WV?$stream_output_adapter@_W@__crt_stdio_output@@@2@@__crt_stdio_output@@AAE_NXZ 00455f60 f i libucrtd:output.obj
 0001:00054fb0       ?type_case_o@?$output_processor@_WV?$string_output_adapter@_W@__crt_stdio_output@@V?$format_validation_base@_WV?$string_output_adapter@_W@__crt_stdio_output@@@2@@__crt_stdio_output@@AAE_NXZ 00455fb0 f i libucrtd:output.obj
 0001:00055000       ?type_case_o@?$output_processor@_WV?$string_output_adapter@_W@__crt_stdio_output@@V?$positional_parameter_base@_WV?$string_output_adapter@_W@__crt_stdio_output@@@2@@__crt_stdio_output@@AAE_NXZ 00456000 f i libucrtd:output.obj
 0001:00055050       ?type_case_o@?$output_processor@_WV?$string_output_adapter@_W@__crt_stdio_output@@V?$standard_base@_WV?$string_output_adapter@_W@__crt_stdio_output@@@2@@__crt_stdio_output@@AAE_NXZ 00456050 f i libucrtd:output.obj
 0001:000550a0       ?type_case_p@?$output_processor@DV?$stream_output_adapter@D@__crt_stdio_output@@V?$format_validation_base@DV?$stream_output_adapter@D@__crt_stdio_output@@@2@@__crt_stdio_output@@AAE_NXZ 004560a0 f i libucrtd:output.obj
 0001:000550e0       ?type_case_p@?$output_processor@DV?$stream_output_adapter@D@__crt_stdio_output@@V?$positional_parameter_base@DV?$stream_output_adapter@D@__crt_stdio_output@@@2@@__crt_stdio_output@@AAE_NXZ 004560e0 f i libucrtd:output.obj
 0001:00055120       ?type_case_p@?$output_processor@DV?$stream_output_adapter@D@__crt_stdio_output@@V?$standard_base@DV?$stream_output_adapter@D@__crt_stdio_output@@@2@@__crt_stdio_output@@AAE_NXZ 00456120 f i libucrtd:output.obj
 0001:00055160       ?type_case_p@?$output_processor@DV?$string_output_adapter@D@__crt_stdio_output@@V?$format_validation_base@DV?$string_output_adapter@D@__crt_stdio_output@@@2@@__crt_stdio_output@@AAE_NXZ 00456160 f i libucrtd:output.obj
 0001:000551a0       ?type_case_p@?$output_processor@DV?$string_output_adapter@D@__crt_stdio_output@@V?$positional_parameter_base@DV?$string_output_adapter@D@__crt_stdio_output@@@2@@__crt_stdio_output@@AAE_NXZ 004561a0 f i libucrtd:output.obj
 0001:000551e0       ?type_case_p@?$output_processor@DV?$string_output_adapter@D@__crt_stdio_output@@V?$standard_base@DV?$string_output_adapter@D@__crt_stdio_output@@@2@@__crt_stdio_output@@AAE_NXZ 004561e0 f i libucrtd:output.obj
 0001:00055220       ?type_case_p@?$output_processor@_WV?$stream_output_adapter@_W@__crt_stdio_output@@V?$format_validation_base@_WV?$stream_output_adapter@_W@__crt_stdio_output@@@2@@__crt_stdio_output@@AAE_NXZ 00456220 f i libucrtd:output.obj
 0001:00055260       ?type_case_p@?$output_processor@_WV?$stream_output_adapter@_W@__crt_stdio_output@@V?$positional_parameter_base@_WV?$stream_output_adapter@_W@__crt_stdio_output@@@2@@__crt_stdio_output@@AAE_NXZ 00456260 f i libucrtd:output.obj
 0001:000552a0       ?type_case_p@?$output_processor@_WV?$stream_output_adapter@_W@__crt_stdio_output@@V?$standard_base@_WV?$stream_output_adapter@_W@__crt_stdio_output@@@2@@__crt_stdio_output@@AAE_NXZ 004562a0 f i libucrtd:output.obj
 0001:000552e0       ?type_case_p@?$output_processor@_WV?$string_output_adapter@_W@__crt_stdio_output@@V?$format_validation_base@_WV?$string_output_adapter@_W@__crt_stdio_output@@@2@@__crt_stdio_output@@AAE_NXZ 004562e0 f i libucrtd:output.obj
 0001:00055320       ?type_case_p@?$output_processor@_WV?$string_output_adapter@_W@__crt_stdio_output@@V?$positional_parameter_base@_WV?$string_output_adapter@_W@__crt_stdio_output@@@2@@__crt_stdio_output@@AAE_NXZ 00456320 f i libucrtd:output.obj
 0001:00055360       ?type_case_p@?$output_processor@_WV?$string_output_adapter@_W@__crt_stdio_output@@V?$standard_base@_WV?$string_output_adapter@_W@__crt_stdio_output@@@2@@__crt_stdio_output@@AAE_NXZ 00456360 f i libucrtd:output.obj
 0001:000553a0       ?type_case_s@?$output_processor@DV?$stream_output_adapter@D@__crt_stdio_output@@V?$format_validation_base@DV?$stream_output_adapter@D@__crt_stdio_output@@@2@@__crt_stdio_output@@AAE_NXZ 004563a0 f i libucrtd:output.obj
 0001:000554d0       ?type_case_s@?$output_processor@DV?$stream_output_adapter@D@__crt_stdio_output@@V?$positional_parameter_base@DV?$stream_output_adapter@D@__crt_stdio_output@@@2@@__crt_stdio_output@@AAE_NXZ 004564d0 f i libucrtd:output.obj
 0001:00055600       ?type_case_s@?$output_processor@DV?$stream_output_adapter@D@__crt_stdio_output@@V?$standard_base@DV?$stream_output_adapter@D@__crt_stdio_output@@@2@@__crt_stdio_output@@AAE_NXZ 00456600 f i libucrtd:output.obj
 0001:00055730       ?type_case_s@?$output_processor@DV?$string_output_adapter@D@__crt_stdio_output@@V?$format_validation_base@DV?$string_output_adapter@D@__crt_stdio_output@@@2@@__crt_stdio_output@@AAE_NXZ 00456730 f i libucrtd:output.obj
 0001:00055860       ?type_case_s@?$output_processor@DV?$string_output_adapter@D@__crt_stdio_output@@V?$positional_parameter_base@DV?$string_output_adapter@D@__crt_stdio_output@@@2@@__crt_stdio_output@@AAE_NXZ 00456860 f i libucrtd:output.obj
 0001:00055990       ?type_case_s@?$output_processor@DV?$string_output_adapter@D@__crt_stdio_output@@V?$standard_base@DV?$string_output_adapter@D@__crt_stdio_output@@@2@@__crt_stdio_output@@AAE_NXZ 00456990 f i libucrtd:output.obj
 0001:00055ac0       ?type_case_s@?$output_processor@_WV?$stream_output_adapter@_W@__crt_stdio_output@@V?$format_validation_base@_WV?$stream_output_adapter@_W@__crt_stdio_output@@@2@@__crt_stdio_output@@AAE_NXZ 00456ac0 f i libucrtd:output.obj
 0001:00055bf0       ?type_case_s@?$output_processor@_WV?$stream_output_adapter@_W@__crt_stdio_output@@V?$positional_parameter_base@_WV?$stream_output_adapter@_W@__crt_stdio_output@@@2@@__crt_stdio_output@@AAE_NXZ 00456bf0 f i libucrtd:output.obj
 0001:00055d20       ?type_case_s@?$output_processor@_WV?$stream_output_adapter@_W@__crt_stdio_output@@V?$standard_base@_WV?$stream_output_adapter@_W@__crt_stdio_output@@@2@@__crt_stdio_output@@AAE_NXZ 00456d20 f i libucrtd:output.obj
 0001:00055e50       ?type_case_s@?$output_processor@_WV?$string_output_adapter@_W@__crt_stdio_output@@V?$format_validation_base@_WV?$string_output_adapter@_W@__crt_stdio_output@@@2@@__crt_stdio_output@@AAE_NXZ 00456e50 f i libucrtd:output.obj
 0001:00055f80       ?type_case_s@?$output_processor@_WV?$string_output_adapter@_W@__crt_stdio_output@@V?$positional_parameter_base@_WV?$string_output_adapter@_W@__crt_stdio_output@@@2@@__crt_stdio_output@@AAE_NXZ 00456f80 f i libucrtd:output.obj
 0001:000560b0       ?type_case_s@?$output_processor@_WV?$string_output_adapter@_W@__crt_stdio_output@@V?$standard_base@_WV?$string_output_adapter@_W@__crt_stdio_output@@@2@@__crt_stdio_output@@AAE_NXZ 004570b0 f i libucrtd:output.obj
 0001:000561e0       ?type_case_s_compute_narrow_string_length@?$output_processor@DV?$stream_output_adapter@D@__crt_stdio_output@@V?$format_validation_base@DV?$stream_output_adapter@D@__crt_stdio_output@@@2@@__crt_stdio_output@@ABEHHD@Z 004571e0 f i libucrtd:output.obj
 0001:00056210       ?type_case_s_compute_narrow_string_length@?$output_processor@DV?$stream_output_adapter@D@__crt_stdio_output@@V?$positional_parameter_base@DV?$stream_output_adapter@D@__crt_stdio_output@@@2@@__crt_stdio_output@@ABEHHD@Z 00457210 f i libucrtd:output.obj
 0001:00056240       ?type_case_s_compute_narrow_string_length@?$output_processor@DV?$stream_output_adapter@D@__crt_stdio_output@@V?$standard_base@DV?$stream_output_adapter@D@__crt_stdio_output@@@2@@__crt_stdio_output@@ABEHHD@Z 00457240 f i libucrtd:output.obj
 0001:00056270       ?type_case_s_compute_narrow_string_length@?$output_processor@DV?$string_output_adapter@D@__crt_stdio_output@@V?$format_validation_base@DV?$string_output_adapter@D@__crt_stdio_output@@@2@@__crt_stdio_output@@ABEHHD@Z 00457270 f i libucrtd:output.obj
 0001:000562a0       ?type_case_s_compute_narrow_string_length@?$output_processor@DV?$string_output_adapter@D@__crt_stdio_output@@V?$positional_parameter_base@DV?$string_output_adapter@D@__crt_stdio_output@@@2@@__crt_stdio_output@@ABEHHD@Z 004572a0 f i libucrtd:output.obj
 0001:000562d0       ?type_case_s_compute_narrow_string_length@?$output_processor@DV?$string_output_adapter@D@__crt_stdio_output@@V?$standard_base@DV?$string_output_adapter@D@__crt_stdio_output@@@2@@__crt_stdio_output@@ABEHHD@Z 004572d0 f i libucrtd:output.obj
 0001:00056300       ?type_case_s_compute_narrow_string_length@?$output_processor@_WV?$stream_output_adapter@_W@__crt_stdio_output@@V?$format_validation_base@_WV?$stream_output_adapter@_W@__crt_stdio_output@@@2@@__crt_stdio_output@@ABEHH_W@Z 00457300 f i libucrtd:output.obj
 0001:00056390       ?type_case_s_compute_narrow_string_length@?$output_processor@_WV?$stream_output_adapter@_W@__crt_stdio_output@@V?$positional_parameter_base@_WV?$stream_output_adapter@_W@__crt_stdio_output@@@2@@__crt_stdio_output@@ABEHH_W@Z 00457390 f i libucrtd:output.obj
 0001:00056420       ?type_case_s_compute_narrow_string_length@?$output_processor@_WV?$stream_output_adapter@_W@__crt_stdio_output@@V?$standard_base@_WV?$stream_output_adapter@_W@__crt_stdio_output@@@2@@__crt_stdio_output@@ABEHH_W@Z 00457420 f i libucrtd:output.obj
 0001:000564b0       ?type_case_s_compute_narrow_string_length@?$output_processor@_WV?$string_output_adapter@_W@__crt_stdio_output@@V?$format_validation_base@_WV?$string_output_adapter@_W@__crt_stdio_output@@@2@@__crt_stdio_output@@ABEHH_W@Z 004574b0 f i libucrtd:output.obj
 0001:00056540       ?type_case_s_compute_narrow_string_length@?$output_processor@_WV?$string_output_adapter@_W@__crt_stdio_output@@V?$positional_parameter_base@_WV?$string_output_adapter@_W@__crt_stdio_output@@@2@@__crt_stdio_output@@ABEHH_W@Z 00457540 f i libucrtd:output.obj
 0001:000565d0       ?type_case_s_compute_narrow_string_length@?$output_processor@_WV?$string_output_adapter@_W@__crt_stdio_output@@V?$standard_base@_WV?$string_output_adapter@_W@__crt_stdio_output@@@2@@__crt_stdio_output@@ABEHH_W@Z 004575d0 f i libucrtd:output.obj
 0001:00056660       ?type_case_u@?$output_processor@DV?$stream_output_adapter@D@__crt_stdio_output@@V?$format_validation_base@DV?$stream_output_adapter@D@__crt_stdio_output@@@2@@__crt_stdio_output@@AAE_NXZ 00457660 f i libucrtd:output.obj
 0001:00056680       ?type_case_u@?$output_processor@DV?$stream_output_adapter@D@__crt_stdio_output@@V?$positional_parameter_base@DV?$stream_output_adapter@D@__crt_stdio_output@@@2@@__crt_stdio_output@@AAE_NXZ 00457680 f i libucrtd:output.obj
 0001:000566a0       ?type_case_u@?$output_processor@DV?$stream_output_adapter@D@__crt_stdio_output@@V?$standard_base@DV?$stream_output_adapter@D@__crt_stdio_output@@@2@@__crt_stdio_output@@AAE_NXZ 004576a0 f i libucrtd:output.obj
 0001:000566c0       ?type_case_u@?$output_processor@DV?$string_output_adapter@D@__crt_stdio_output@@V?$format_validation_base@DV?$string_output_adapter@D@__crt_stdio_output@@@2@@__crt_stdio_output@@AAE_NXZ 004576c0 f i libucrtd:output.obj
 0001:000566e0       ?type_case_u@?$output_processor@DV?$string_output_adapter@D@__crt_stdio_output@@V?$positional_parameter_base@DV?$string_output_adapter@D@__crt_stdio_output@@@2@@__crt_stdio_output@@AAE_NXZ 004576e0 f i libucrtd:output.obj
 0001:00056700       ?type_case_u@?$output_processor@DV?$string_output_adapter@D@__crt_stdio_output@@V?$standard_base@DV?$string_output_adapter@D@__crt_stdio_output@@@2@@__crt_stdio_output@@AAE_NXZ 00457700 f i libucrtd:output.obj
 0001:00056720       ?type_case_u@?$output_processor@_WV?$stream_output_adapter@_W@__crt_stdio_output@@V?$format_validation_base@_WV?$stream_output_adapter@_W@__crt_stdio_output@@@2@@__crt_stdio_output@@AAE_NXZ 00457720 f i libucrtd:output.obj
 0001:00056740       ?type_case_u@?$output_processor@_WV?$stream_output_adapter@_W@__crt_stdio_output@@V?$positional_parameter_base@_WV?$stream_output_adapter@_W@__crt_stdio_output@@@2@@__crt_stdio_output@@AAE_NXZ 00457740 f i libucrtd:output.obj
 0001:00056760       ?type_case_u@?$output_processor@_WV?$stream_output_adapter@_W@__crt_stdio_output@@V?$standard_base@_WV?$stream_output_adapter@_W@__crt_stdio_output@@@2@@__crt_stdio_output@@AAE_NXZ 00457760 f i libucrtd:output.obj
 0001:00056780       ?type_case_u@?$output_processor@_WV?$string_output_adapter@_W@__crt_stdio_output@@V?$format_validation_base@_WV?$string_output_adapter@_W@__crt_stdio_output@@@2@@__crt_stdio_output@@AAE_NXZ 00457780 f i libucrtd:output.obj
 0001:000567a0       ?type_case_u@?$output_processor@_WV?$string_output_adapter@_W@__crt_stdio_output@@V?$positional_parameter_base@_WV?$string_output_adapter@_W@__crt_stdio_output@@@2@@__crt_stdio_output@@AAE_NXZ 004577a0 f i libucrtd:output.obj
 0001:000567c0       ?type_case_u@?$output_processor@_WV?$string_output_adapter@_W@__crt_stdio_output@@V?$standard_base@_WV?$string_output_adapter@_W@__crt_stdio_output@@@2@@__crt_stdio_output@@AAE_NXZ 004577c0 f i libucrtd:output.obj
 0001:000567e0       ?type_case_x@?$output_processor@DV?$stream_output_adapter@D@__crt_stdio_output@@V?$format_validation_base@DV?$stream_output_adapter@D@__crt_stdio_output@@@2@@__crt_stdio_output@@AAE_NXZ 004577e0 f i libucrtd:output.obj
 0001:00056800       ?type_case_x@?$output_processor@DV?$stream_output_adapter@D@__crt_stdio_output@@V?$positional_parameter_base@DV?$stream_output_adapter@D@__crt_stdio_output@@@2@@__crt_stdio_output@@AAE_NXZ 00457800 f i libucrtd:output.obj
 0001:00056820       ?type_case_x@?$output_processor@DV?$stream_output_adapter@D@__crt_stdio_output@@V?$standard_base@DV?$stream_output_adapter@D@__crt_stdio_output@@@2@@__crt_stdio_output@@AAE_NXZ 00457820 f i libucrtd:output.obj
 0001:00056840       ?type_case_x@?$output_processor@DV?$string_output_adapter@D@__crt_stdio_output@@V?$format_validation_base@DV?$string_output_adapter@D@__crt_stdio_output@@@2@@__crt_stdio_output@@AAE_NXZ 00457840 f i libucrtd:output.obj
 0001:00056860       ?type_case_x@?$output_processor@DV?$string_output_adapter@D@__crt_stdio_output@@V?$positional_parameter_base@DV?$string_output_adapter@D@__crt_stdio_output@@@2@@__crt_stdio_output@@AAE_NXZ 00457860 f i libucrtd:output.obj
 0001:00056880       ?type_case_x@?$output_processor@DV?$string_output_adapter@D@__crt_stdio_output@@V?$standard_base@DV?$string_output_adapter@D@__crt_stdio_output@@@2@@__crt_stdio_output@@AAE_NXZ 00457880 f i libucrtd:output.obj
 0001:000568a0       ?type_case_x@?$output_processor@_WV?$stream_output_adapter@_W@__crt_stdio_output@@V?$format_validation_base@_WV?$stream_output_adapter@_W@__crt_stdio_output@@@2@@__crt_stdio_output@@AAE_NXZ 004578a0 f i libucrtd:output.obj
 0001:000568c0       ?type_case_x@?$output_processor@_WV?$stream_output_adapter@_W@__crt_stdio_output@@V?$positional_parameter_base@_WV?$stream_output_adapter@_W@__crt_stdio_output@@@2@@__crt_stdio_output@@AAE_NXZ 004578c0 f i libucrtd:output.obj
 0001:000568e0       ?type_case_x@?$output_processor@_WV?$stream_output_adapter@_W@__crt_stdio_output@@V?$standard_base@_WV?$stream_output_adapter@_W@__crt_stdio_output@@@2@@__crt_stdio_output@@AAE_NXZ 004578e0 f i libucrtd:output.obj
 0001:00056900       ?type_case_x@?$output_processor@_WV?$string_output_adapter@_W@__crt_stdio_output@@V?$format_validation_base@_WV?$string_output_adapter@_W@__crt_stdio_output@@@2@@__crt_stdio_output@@AAE_NXZ 00457900 f i libucrtd:output.obj
 0001:00056920       ?type_case_x@?$output_processor@_WV?$string_output_adapter@_W@__crt_stdio_output@@V?$positional_parameter_base@_WV?$string_output_adapter@_W@__crt_stdio_output@@@2@@__crt_stdio_output@@AAE_NXZ 00457920 f i libucrtd:output.obj
 0001:00056940       ?type_case_x@?$output_processor@_WV?$string_output_adapter@_W@__crt_stdio_output@@V?$standard_base@_WV?$string_output_adapter@_W@__crt_stdio_output@@@2@@__crt_stdio_output@@AAE_NXZ 00457940 f i libucrtd:output.obj
 0001:00056960       ?unset_flag@?$output_processor@DV?$stream_output_adapter@D@__crt_stdio_output@@V?$format_validation_base@DV?$stream_output_adapter@D@__crt_stdio_output@@@2@@__crt_stdio_output@@AAEXI@Z 00457960 f i libucrtd:output.obj
 0001:00056990       ?unset_flag@?$output_processor@DV?$stream_output_adapter@D@__crt_stdio_output@@V?$positional_parameter_base@DV?$stream_output_adapter@D@__crt_stdio_output@@@2@@__crt_stdio_output@@AAEXI@Z 00457990 f i libucrtd:output.obj
 0001:000569c0       ?unset_flag@?$output_processor@DV?$stream_output_adapter@D@__crt_stdio_output@@V?$standard_base@DV?$stream_output_adapter@D@__crt_stdio_output@@@2@@__crt_stdio_output@@AAEXI@Z 004579c0 f i libucrtd:output.obj
 0001:000569f0       ?unset_flag@?$output_processor@DV?$string_output_adapter@D@__crt_stdio_output@@V?$format_validation_base@DV?$string_output_adapter@D@__crt_stdio_output@@@2@@__crt_stdio_output@@AAEXI@Z 004579f0 f i libucrtd:output.obj
 0001:00056a20       ?unset_flag@?$output_processor@DV?$string_output_adapter@D@__crt_stdio_output@@V?$positional_parameter_base@DV?$string_output_adapter@D@__crt_stdio_output@@@2@@__crt_stdio_output@@AAEXI@Z 00457a20 f i libucrtd:output.obj
 0001:00056a50       ?unset_flag@?$output_processor@DV?$string_output_adapter@D@__crt_stdio_output@@V?$standard_base@DV?$string_output_adapter@D@__crt_stdio_output@@@2@@__crt_stdio_output@@AAEXI@Z 00457a50 f i libucrtd:output.obj
 0001:00056a80       ?unset_flag@?$output_processor@_WV?$stream_output_adapter@_W@__crt_stdio_output@@V?$format_validation_base@_WV?$stream_output_adapter@_W@__crt_stdio_output@@@2@@__crt_stdio_output@@AAEXI@Z 00457a80 f i libucrtd:output.obj
 0001:00056ab0       ?unset_flag@?$output_processor@_WV?$stream_output_adapter@_W@__crt_stdio_output@@V?$positional_parameter_base@_WV?$stream_output_adapter@_W@__crt_stdio_output@@@2@@__crt_stdio_output@@AAEXI@Z 00457ab0 f i libucrtd:output.obj
 0001:00056ae0       ?unset_flag@?$output_processor@_WV?$stream_output_adapter@_W@__crt_stdio_output@@V?$standard_base@_WV?$stream_output_adapter@_W@__crt_stdio_output@@@2@@__crt_stdio_output@@AAEXI@Z 00457ae0 f i libucrtd:output.obj
 0001:00056b10       ?unset_flag@?$output_processor@_WV?$string_output_adapter@_W@__crt_stdio_output@@V?$format_validation_base@_WV?$string_output_adapter@_W@__crt_stdio_output@@@2@@__crt_stdio_output@@AAEXI@Z 00457b10 f i libucrtd:output.obj
 0001:00056b40       ?unset_flag@?$output_processor@_WV?$string_output_adapter@_W@__crt_stdio_output@@V?$positional_parameter_base@_WV?$string_output_adapter@_W@__crt_stdio_output@@@2@@__crt_stdio_output@@AAEXI@Z 00457b40 f i libucrtd:output.obj
 0001:00056b70       ?unset_flag@?$output_processor@_WV?$string_output_adapter@_W@__crt_stdio_output@@V?$standard_base@_WV?$string_output_adapter@_W@__crt_stdio_output@@@2@@__crt_stdio_output@@AAEXI@Z 00457b70 f i libucrtd:output.obj
 0001:00056ba0       ?update_field_width@?$positional_parameter_base@DV?$stream_output_adapter@D@__crt_stdio_output@@@__crt_stdio_output@@IAE_NXZ 00457ba0 f i libucrtd:output.obj
 0001:00056d80       ?update_field_width@?$positional_parameter_base@DV?$string_output_adapter@D@__crt_stdio_output@@@__crt_stdio_output@@IAE_NXZ 00457d80 f i libucrtd:output.obj
 0001:00056f60       ?update_field_width@?$positional_parameter_base@_WV?$stream_output_adapter@_W@__crt_stdio_output@@@__crt_stdio_output@@IAE_NXZ 00457f60 f i libucrtd:output.obj
 0001:00057140       ?update_field_width@?$positional_parameter_base@_WV?$string_output_adapter@_W@__crt_stdio_output@@@__crt_stdio_output@@IAE_NXZ 00458140 f i libucrtd:output.obj
 0001:00057320       ?update_field_width@?$standard_base@DV?$stream_output_adapter@D@__crt_stdio_output@@@__crt_stdio_output@@IAE_NXZ 00458320 f i libucrtd:output.obj
 0001:00057350       ?update_field_width@?$standard_base@DV?$string_output_adapter@D@__crt_stdio_output@@@__crt_stdio_output@@IAE_NXZ 00458350 f i libucrtd:output.obj
 0001:00057380       ?update_field_width@?$standard_base@_WV?$stream_output_adapter@_W@__crt_stdio_output@@@__crt_stdio_output@@IAE_NXZ 00458380 f i libucrtd:output.obj
 0001:000573b0       ?update_field_width@?$standard_base@_WV?$string_output_adapter@_W@__crt_stdio_output@@@__crt_stdio_output@@IAE_NXZ 004583b0 f i libucrtd:output.obj
 0001:000573e0       ?update_precision@?$positional_parameter_base@DV?$stream_output_adapter@D@__crt_stdio_output@@@__crt_stdio_output@@IAE_NXZ 004583e0 f i libucrtd:output.obj
 0001:000575c0       ?update_precision@?$positional_parameter_base@DV?$string_output_adapter@D@__crt_stdio_output@@@__crt_stdio_output@@IAE_NXZ 004585c0 f i libucrtd:output.obj
 0001:000577a0       ?update_precision@?$positional_parameter_base@_WV?$stream_output_adapter@_W@__crt_stdio_output@@@__crt_stdio_output@@IAE_NXZ 004587a0 f i libucrtd:output.obj
 0001:00057980       ?update_precision@?$positional_parameter_base@_WV?$string_output_adapter@_W@__crt_stdio_output@@@__crt_stdio_output@@IAE_NXZ 00458980 f i libucrtd:output.obj
 0001:00057b60       ?update_precision@?$standard_base@DV?$stream_output_adapter@D@__crt_stdio_output@@@__crt_stdio_output@@IAE_NXZ 00458b60 f i libucrtd:output.obj
 0001:00057b90       ?update_precision@?$standard_base@DV?$string_output_adapter@D@__crt_stdio_output@@@__crt_stdio_output@@IAE_NXZ 00458b90 f i libucrtd:output.obj
 0001:00057bc0       ?update_precision@?$standard_base@_WV?$stream_output_adapter@_W@__crt_stdio_output@@@__crt_stdio_output@@IAE_NXZ 00458bc0 f i libucrtd:output.obj
 0001:00057bf0       ?update_precision@?$standard_base@_WV?$string_output_adapter@_W@__crt_stdio_output@@@__crt_stdio_output@@IAE_NXZ 00458bf0 f i libucrtd:output.obj
 0001:00057c20       ?validate@?$stream_output_adapter@D@__crt_stdio_output@@QBE_NXZ 00458c20 f i libucrtd:output.obj
 0001:00057cf0       ?validate@?$stream_output_adapter@_W@__crt_stdio_output@@QBE_NXZ 00458cf0 f i libucrtd:output.obj
 0001:00057dc0       ?validate@?$string_output_adapter@D@__crt_stdio_output@@QBE_NXZ 00458dc0 f i libucrtd:output.obj
 0001:00057e80       ?validate@?$string_output_adapter@_W@__crt_stdio_output@@QBE_NXZ 00458e80 f i libucrtd:output.obj
 0001:00057f40       ?validate_and_store_parameter_data@?$positional_parameter_base@DV?$stream_output_adapter@D@__crt_stdio_output@@@__crt_stdio_output@@AAE_NAAUparameter_data@12@W4parameter_type@12@DW4length_modifier@2@@Z 00458f40 f i libucrtd:output.obj
 0001:00058050       ?validate_and_store_parameter_data@?$positional_parameter_base@DV?$string_output_adapter@D@__crt_stdio_output@@@__crt_stdio_output@@AAE_NAAUparameter_data@12@W4parameter_type@12@DW4length_modifier@2@@Z 00459050 f i libucrtd:output.obj
 0001:00058160       ?validate_and_store_parameter_data@?$positional_parameter_base@_WV?$stream_output_adapter@_W@__crt_stdio_output@@@__crt_stdio_output@@AAE_NAAUparameter_data@12@W4parameter_type@12@_WW4length_modifier@2@@Z 00459160 f i libucrtd:output.obj
 0001:00058270       ?validate_and_store_parameter_data@?$positional_parameter_base@_WV?$string_output_adapter@_W@__crt_stdio_output@@@__crt_stdio_output@@AAE_NAAUparameter_data@12@W4parameter_type@12@_WW4length_modifier@2@@Z 00459270 f i libucrtd:output.obj
 0001:00058380       ?validate_and_update_state_at_beginning_of_format_character@?$positional_parameter_base@DV?$stream_output_adapter@D@__crt_stdio_output@@@__crt_stdio_output@@IAE_NXZ 00459380 f i libucrtd:output.obj
 0001:00058630       ?validate_and_update_state_at_beginning_of_format_character@?$positional_parameter_base@DV?$string_output_adapter@D@__crt_stdio_output@@@__crt_stdio_output@@IAE_NXZ 00459630 f i libucrtd:output.obj
 0001:000588e0       ?validate_and_update_state_at_beginning_of_format_character@?$positional_parameter_base@_WV?$stream_output_adapter@_W@__crt_stdio_output@@@__crt_stdio_output@@IAE_NXZ 004598e0 f i libucrtd:output.obj
 0001:00058b90       ?validate_and_update_state_at_beginning_of_format_character@?$positional_parameter_base@_WV?$string_output_adapter@_W@__crt_stdio_output@@@__crt_stdio_output@@IAE_NXZ 00459b90 f i libucrtd:output.obj
 0001:00058e40       ?validate_and_update_state_at_beginning_of_format_character@?$standard_base@DV?$stream_output_adapter@D@__crt_stdio_output@@@__crt_stdio_output@@IAE_NXZ 00459e40 f i libucrtd:output.obj
 0001:00058e60       ?validate_and_update_state_at_beginning_of_format_character@?$standard_base@DV?$string_output_adapter@D@__crt_stdio_output@@@__crt_stdio_output@@IAE_NXZ 00459e60 f i libucrtd:output.obj
 0001:00058e80       ?validate_and_update_state_at_beginning_of_format_character@?$standard_base@_WV?$stream_output_adapter@_W@__crt_stdio_output@@@__crt_stdio_output@@IAE_NXZ 00459e80 f i libucrtd:output.obj
 0001:00058ea0       ?validate_and_update_state_at_beginning_of_format_character@?$standard_base@_WV?$string_output_adapter@_W@__crt_stdio_output@@@__crt_stdio_output@@IAE_NXZ 00459ea0 f i libucrtd:output.obj
 0001:00058ec0       ?validate_and_update_state_at_end_of_format_string@?$format_validation_base@DV?$stream_output_adapter@D@__crt_stdio_output@@@__crt_stdio_output@@IBE_NXZ 00459ec0 f i libucrtd:output.obj
 0001:00058f80       ?validate_and_update_state_at_end_of_format_string@?$format_validation_base@DV?$string_output_adapter@D@__crt_stdio_output@@@__crt_stdio_output@@IBE_NXZ 00459f80 f i libucrtd:output.obj
 0001:00059040       ?validate_and_update_state_at_end_of_format_string@?$format_validation_base@_WV?$stream_output_adapter@_W@__crt_stdio_output@@@__crt_stdio_output@@IBE_NXZ 0045a040 f i libucrtd:output.obj
 0001:00059100       ?validate_and_update_state_at_end_of_format_string@?$format_validation_base@_WV?$string_output_adapter@_W@__crt_stdio_output@@@__crt_stdio_output@@IBE_NXZ 0045a100 f i libucrtd:output.obj
 0001:000591c0       ?validate_and_update_state_at_end_of_format_string@?$positional_parameter_base@DV?$stream_output_adapter@D@__crt_stdio_output@@@__crt_stdio_output@@IAE_NXZ 0045a1c0 f i libucrtd:output.obj
 0001:000593c0       ?validate_and_update_state_at_end_of_format_string@?$positional_parameter_base@DV?$string_output_adapter@D@__crt_stdio_output@@@__crt_stdio_output@@IAE_NXZ 0045a3c0 f i libucrtd:output.obj
 0001:000595c0       ?validate_and_update_state_at_end_of_format_string@?$positional_parameter_base@_WV?$stream_output_adapter@_W@__crt_stdio_output@@@__crt_stdio_output@@IAE_NXZ 0045a5c0 f i libucrtd:output.obj
 0001:000597c0       ?validate_and_update_state_at_end_of_format_string@?$positional_parameter_base@_WV?$string_output_adapter@_W@__crt_stdio_output@@@__crt_stdio_output@@IAE_NXZ 0045a7c0 f i libucrtd:output.obj
 0001:000599c0       ?validate_and_update_state_at_end_of_format_string@?$standard_base@DV?$stream_output_adapter@D@__crt_stdio_output@@@__crt_stdio_output@@IBE_NXZ 0045a9c0 f i libucrtd:output.obj
 0001:000599e0       ?validate_and_update_state_at_end_of_format_string@?$standard_base@DV?$string_output_adapter@D@__crt_stdio_output@@@__crt_stdio_output@@IBE_NXZ 0045a9e0 f i libucrtd:output.obj
 0001:00059a00       ?validate_and_update_state_at_end_of_format_string@?$standard_base@_WV?$stream_output_adapter@_W@__crt_stdio_output@@@__crt_stdio_output@@IBE_NXZ 0045aa00 f i libucrtd:output.obj
 0001:00059a20       ?validate_and_update_state_at_end_of_format_string@?$standard_base@_WV?$string_output_adapter@_W@__crt_stdio_output@@@__crt_stdio_output@@IBE_NXZ 0045aa20 f i libucrtd:output.obj
 0001:00059a40       ?validate_state_for_type_case_a@?$positional_parameter_base@DV?$stream_output_adapter@D@__crt_stdio_output@@@__crt_stdio_output@@IAE_NXZ 0045aa40 f i libucrtd:output.obj
 0001:00059b70       ?validate_state_for_type_case_a@?$positional_parameter_base@DV?$string_output_adapter@D@__crt_stdio_output@@@__crt_stdio_output@@IAE_NXZ 0045ab70 f i libucrtd:output.obj
 0001:00059ca0       ?validate_state_for_type_case_a@?$positional_parameter_base@_WV?$stream_output_adapter@_W@__crt_stdio_output@@@__crt_stdio_output@@IAE_NXZ 0045aca0 f i libucrtd:output.obj
 0001:00059dd0       ?validate_state_for_type_case_a@?$positional_parameter_base@_WV?$string_output_adapter@_W@__crt_stdio_output@@@__crt_stdio_output@@IAE_NXZ 0045add0 f i libucrtd:output.obj
 0001:00059f00       ?validate_state_for_type_case_a@?$standard_base@DV?$stream_output_adapter@D@__crt_stdio_output@@@__crt_stdio_output@@IBE_NXZ 0045af00 f i libucrtd:output.obj
 0001:00059f20       ?validate_state_for_type_case_a@?$standard_base@DV?$string_output_adapter@D@__crt_stdio_output@@@__crt_stdio_output@@IBE_NXZ 0045af20 f i libucrtd:output.obj
 0001:00059f40       ?validate_state_for_type_case_a@?$standard_base@_WV?$stream_output_adapter@_W@__crt_stdio_output@@@__crt_stdio_output@@IBE_NXZ 0045af40 f i libucrtd:output.obj
 0001:00059f60       ?validate_state_for_type_case_a@?$standard_base@_WV?$string_output_adapter@_W@__crt_stdio_output@@@__crt_stdio_output@@IBE_NXZ 0045af60 f i libucrtd:output.obj
 0001:00059f80       ?validate_stream_is_ansi_if_required@?$__acrt_stdio_char_traits@D@@SA_NQAU_iobuf@@@Z 0045af80 f i libucrtd:output.obj
 0001:0005a100       ?validate_stream_is_ansi_if_required@?$__acrt_stdio_char_traits@_W@@SA_NQAU_iobuf@@@Z 0045b100 f i libucrtd:output.obj
 0001:0005a110       ?wide_null_string@?$output_processor@DV?$stream_output_adapter@D@__crt_stdio_output@@V?$format_validation_base@DV?$stream_output_adapter@D@__crt_stdio_output@@@2@@__crt_stdio_output@@CAPA_WXZ 0045b110 f i libucrtd:output.obj
 0001:0005a120       ?wide_null_string@?$output_processor@DV?$stream_output_adapter@D@__crt_stdio_output@@V?$positional_parameter_base@DV?$stream_output_adapter@D@__crt_stdio_output@@@2@@__crt_stdio_output@@CAPA_WXZ 0045b120 f i libucrtd:output.obj
 0001:0005a130       ?wide_null_string@?$output_processor@DV?$stream_output_adapter@D@__crt_stdio_output@@V?$standard_base@DV?$stream_output_adapter@D@__crt_stdio_output@@@2@@__crt_stdio_output@@CAPA_WXZ 0045b130 f i libucrtd:output.obj
 0001:0005a140       ?wide_null_string@?$output_processor@DV?$string_output_adapter@D@__crt_stdio_output@@V?$format_validation_base@DV?$string_output_adapter@D@__crt_stdio_output@@@2@@__crt_stdio_output@@CAPA_WXZ 0045b140 f i libucrtd:output.obj
 0001:0005a150       ?wide_null_string@?$output_processor@DV?$string_output_adapter@D@__crt_stdio_output@@V?$positional_parameter_base@DV?$string_output_adapter@D@__crt_stdio_output@@@2@@__crt_stdio_output@@CAPA_WXZ 0045b150 f i libucrtd:output.obj
 0001:0005a160       ?wide_null_string@?$output_processor@DV?$string_output_adapter@D@__crt_stdio_output@@V?$standard_base@DV?$string_output_adapter@D@__crt_stdio_output@@@2@@__crt_stdio_output@@CAPA_WXZ 0045b160 f i libucrtd:output.obj
 0001:0005a170       ?wide_null_string@?$output_processor@_WV?$stream_output_adapter@_W@__crt_stdio_output@@V?$format_validation_base@_WV?$stream_output_adapter@_W@__crt_stdio_output@@@2@@__crt_stdio_output@@CAPA_WXZ 0045b170 f i libucrtd:output.obj
 0001:0005a180       ?wide_null_string@?$output_processor@_WV?$stream_output_adapter@_W@__crt_stdio_output@@V?$positional_parameter_base@_WV?$stream_output_adapter@_W@__crt_stdio_output@@@2@@__crt_stdio_output@@CAPA_WXZ 0045b180 f i libucrtd:output.obj
 0001:0005a190       ?wide_null_string@?$output_processor@_WV?$stream_output_adapter@_W@__crt_stdio_output@@V?$standard_base@_WV?$stream_output_adapter@_W@__crt_stdio_output@@@2@@__crt_stdio_output@@CAPA_WXZ 0045b190 f i libucrtd:output.obj
 0001:0005a1a0       ?wide_null_string@?$output_processor@_WV?$string_output_adapter@_W@__crt_stdio_output@@V?$format_validation_base@_WV?$string_output_adapter@_W@__crt_stdio_output@@@2@@__crt_stdio_output@@CAPA_WXZ 0045b1a0 f i libucrtd:output.obj
 0001:0005a1b0       ?wide_null_string@?$output_processor@_WV?$string_output_adapter@_W@__crt_stdio_output@@V?$positional_parameter_base@_WV?$string_output_adapter@_W@__crt_stdio_output@@@2@@__crt_stdio_output@@CAPA_WXZ 0045b1b0 f i libucrtd:output.obj
 0001:0005a1c0       ?wide_null_string@?$output_processor@_WV?$string_output_adapter@_W@__crt_stdio_output@@V?$standard_base@_WV?$string_output_adapter@_W@__crt_stdio_output@@@2@@__crt_stdio_output@@CAPA_WXZ 0045b1c0 f i libucrtd:output.obj
 0001:0005a1d0       ?write_character@?$output_adapter_common@DV?$stream_output_adapter@D@__crt_stdio_output@@@__crt_stdio_output@@QBEXDQAH@Z 0045b1d0 f i libucrtd:output.obj
 0001:0005a220       ?write_character@?$output_adapter_common@_WV?$stream_output_adapter@_W@__crt_stdio_output@@@__crt_stdio_output@@QBEX_WQAH@Z 0045b220 f i libucrtd:output.obj
 0001:0005a270       ?write_character@?$string_output_adapter@D@__crt_stdio_output@@QBE_NDQAH@Z 0045b270 f i libucrtd:output.obj
 0001:0005a330       ?write_character@?$string_output_adapter@_W@__crt_stdio_output@@QBE_N_WQAH@Z 0045b330 f i libucrtd:output.obj
 0001:0005a3f0       ?write_character_without_count_update@?$stream_output_adapter@D@__crt_stdio_output@@QBE_ND@Z 0045b3f0 f i libucrtd:output.obj
 0001:0005a470       ?write_character_without_count_update@?$stream_output_adapter@_W@__crt_stdio_output@@QBE_N_W@Z 0045b470 f i libucrtd:output.obj
 0001:0005a500       ?write_stored_string_tchar@?$output_processor@DV?$stream_output_adapter@D@__crt_stdio_output@@V?$format_validation_base@DV?$stream_output_adapter@D@__crt_stdio_output@@@2@@__crt_stdio_output@@AAE_ND@Z 0045b500 f i libucrtd:output.obj
 0001:0005a650       ?write_stored_string_tchar@?$output_processor@DV?$stream_output_adapter@D@__crt_stdio_output@@V?$positional_parameter_base@DV?$stream_output_adapter@D@__crt_stdio_output@@@2@@__crt_stdio_output@@AAE_ND@Z 0045b650 f i libucrtd:output.obj
 0001:0005a7a0       ?write_stored_string_tchar@?$output_processor@DV?$stream_output_adapter@D@__crt_stdio_output@@V?$standard_base@DV?$stream_output_adapter@D@__crt_stdio_output@@@2@@__crt_stdio_output@@AAE_ND@Z 0045b7a0 f i libucrtd:output.obj
 0001:0005a8f0       ?write_stored_string_tchar@?$output_processor@DV?$string_output_adapter@D@__crt_stdio_output@@V?$format_validation_base@DV?$string_output_adapter@D@__crt_stdio_output@@@2@@__crt_stdio_output@@AAE_ND@Z 0045b8f0 f i libucrtd:output.obj
 0001:0005aa40       ?write_stored_string_tchar@?$output_processor@DV?$string_output_adapter@D@__crt_stdio_output@@V?$positional_parameter_base@DV?$string_output_adapter@D@__crt_stdio_output@@@2@@__crt_stdio_output@@AAE_ND@Z 0045ba40 f i libucrtd:output.obj
 0001:0005ab90       ?write_stored_string_tchar@?$output_processor@DV?$string_output_adapter@D@__crt_stdio_output@@V?$standard_base@DV?$string_output_adapter@D@__crt_stdio_output@@@2@@__crt_stdio_output@@AAE_ND@Z 0045bb90 f i libucrtd:output.obj
 0001:0005ace0       ?write_stored_string_tchar@?$output_processor@_WV?$stream_output_adapter@_W@__crt_stdio_output@@V?$format_validation_base@_WV?$stream_output_adapter@_W@__crt_stdio_output@@@2@@__crt_stdio_output@@AAE_N_W@Z 0045bce0 f i libucrtd:output.obj
 0001:0005ae00       ?write_stored_string_tchar@?$output_processor@_WV?$stream_output_adapter@_W@__crt_stdio_output@@V?$positional_parameter_base@_WV?$stream_output_adapter@_W@__crt_stdio_output@@@2@@__crt_stdio_output@@AAE_N_W@Z 0045be00 f i libucrtd:output.obj
 0001:0005af20       ?write_stored_string_tchar@?$output_processor@_WV?$stream_output_adapter@_W@__crt_stdio_output@@V?$standard_base@_WV?$stream_output_adapter@_W@__crt_stdio_output@@@2@@__crt_stdio_output@@AAE_N_W@Z 0045bf20 f i libucrtd:output.obj
 0001:0005b040       ?write_stored_string_tchar@?$output_processor@_WV?$string_output_adapter@_W@__crt_stdio_output@@V?$format_validation_base@_WV?$string_output_adapter@_W@__crt_stdio_output@@@2@@__crt_stdio_output@@AAE_N_W@Z 0045c040 f i libucrtd:output.obj
 0001:0005b160       ?write_stored_string_tchar@?$output_processor@_WV?$string_output_adapter@_W@__crt_stdio_output@@V?$positional_parameter_base@_WV?$string_output_adapter@_W@__crt_stdio_output@@@2@@__crt_stdio_output@@AAE_N_W@Z 0045c160 f i libucrtd:output.obj
 0001:0005b280       ?write_stored_string_tchar@?$output_processor@_WV?$string_output_adapter@_W@__crt_stdio_output@@V?$standard_base@_WV?$string_output_adapter@_W@__crt_stdio_output@@@2@@__crt_stdio_output@@AAE_N_W@Z 0045c280 f i libucrtd:output.obj
 0001:0005b3a0       ?write_string@?$stream_output_adapter@D@__crt_stdio_output@@QBEXQBDHQAHAAV__crt_deferred_errno_cache@@@Z 0045c3a0 f i libucrtd:output.obj
 0001:0005b410       ?write_string@?$stream_output_adapter@_W@__crt_stdio_output@@QBEXQB_WHQAHAAV__crt_deferred_errno_cache@@@Z 0045c410 f i libucrtd:output.obj
 0001:0005b480       ?write_string@?$string_output_adapter@D@__crt_stdio_output@@QBEXQBDHQAHAAV__crt_deferred_errno_cache@@@Z 0045c480 f i libucrtd:output.obj
 0001:0005b5c0       ?write_string@?$string_output_adapter@_W@__crt_stdio_output@@QBEXQB_WHQAHAAV__crt_deferred_errno_cache@@@Z 0045c5c0 f i libucrtd:output.obj
 0001:0005b710       ?write_string_impl@?$output_adapter_common@DV?$stream_output_adapter@D@__crt_stdio_output@@@__crt_stdio_output@@IBEXQBDHQAHAAV__crt_deferred_errno_cache@@@Z 0045c710 f i libucrtd:output.obj
 0001:0005b7d0       ?write_string_impl@?$output_adapter_common@_WV?$stream_output_adapter@_W@__crt_stdio_output@@@__crt_stdio_output@@IBEXQB_WHQAHAAV__crt_deferred_errno_cache@@@Z 0045c7d0 f i libucrtd:output.obj
 0001:0005b8a0       ___acrt_isleadbyte_l_noupdate 0045c8a0 f i libucrtd:output.obj
 0001:0005b8d0       ___acrt_locale_get_ctype_array_value 0045c8d0 f i libucrtd:output.obj
 0001:0005b900       ___stdio_common_vfprintf   0045c900 f   libucrtd:output.obj
 0001:0005b930       ___stdio_common_vfprintf_p 0045c930 f   libucrtd:output.obj
 0001:0005b960       ___stdio_common_vfprintf_s 0045c960 f   libucrtd:output.obj
 0001:0005b990       ___stdio_common_vfwprintf  0045c990 f   libucrtd:output.obj
 0001:0005b9c0       ___stdio_common_vfwprintf_p 0045c9c0 f   libucrtd:output.obj
 0001:0005b9f0       ___stdio_common_vfwprintf_s 0045c9f0 f   libucrtd:output.obj
 0001:0005ba20       ___stdio_common_vsnprintf_s 0045ca20 f   libucrtd:output.obj
 0001:0005ba60       ___stdio_common_vsnwprintf_s 0045ca60 f   libucrtd:output.obj
 0001:0005baa0       ___stdio_common_vsprintf   0045caa0 f   libucrtd:output.obj
 0001:0005bae0       ___stdio_common_vsprintf_p 0045cae0 f   libucrtd:output.obj
 0001:0005bb20       ___stdio_common_vsprintf_s 0045cb20 f   libucrtd:output.obj
 0001:0005bb60       ___stdio_common_vswprintf  0045cb60 f   libucrtd:output.obj
 0001:0005bba0       ___stdio_common_vswprintf_p 0045cba0 f   libucrtd:output.obj
 0001:0005bbe0       ___stdio_common_vswprintf_s 0045cbe0 f   libucrtd:output.obj
 0001:0005bc20       _free                      0045cc20 f   libucrtd:free.obj
 0001:0005bc50       _malloc                    0045cc50 f   libucrtd:malloc.obj
 0001:0005bc70       ??$?B$$A6GXPAXK0@Z@__crt_fast_encoded_nullptr_t@@QBEP6GXPAXK0@ZXZ 0045cc70 f i libucrtd:exit.obj
 0001:0005bd70       ??$__crt_fast_decode_pointer@P6GXPAXK0@Z@@YAP6GXPAXK0@ZQ6GX0K0@Z@Z 0045cd70 f i libucrtd:exit.obj
 0001:0005bdb0       ??$__crt_fast_encode_pointer@P6GXPAXK0@Z@@YAP6GXPAXK0@ZQ6GX0K0@Z@Z 0045cdb0 f i libucrtd:exit.obj
 0001:0005bdf0       ??$__crt_get_proc_address@P6GXI@Z@@YAP6GXI@ZQAUHINSTANCE__@@QBD@Z 0045cdf0 f i libucrtd:exit.obj
 0001:0005beb0       ??0?$__crt_unique_handle_t@U__crt_hmodule_traits@@@@QAE@QAUHINSTANCE__@@@Z 0045ceb0 f i libucrtd:exit.obj
 0001:0005bed0       ??1?$__crt_unique_handle_t@U__crt_hmodule_traits@@@@QAE@XZ 0045ced0 f i libucrtd:exit.obj
 0001:0005c100       ?__acrt_select_exit_lock@@YA?AW4__acrt_lock_id@@XZ 0045d100 f i libucrtd:exit.obj
 0001:0005c130       ?close@?$__crt_unique_handle_t@U__crt_hmodule_traits@@@@QAEXXZ 0045d130 f i libucrtd:exit.obj
 0001:0005c170       ?close@__crt_hmodule_traits@@SA_NPAUHINSTANCE__@@@Z 0045d170 f i libucrtd:exit.obj
 0001:0005c2a0       ?get@?$__crt_unique_handle_t@U__crt_hmodule_traits@@@@QBEPAUHINSTANCE__@@XZ 0045d2a0 f i libucrtd:exit.obj
 0001:0005c2c0       ?get_address_of@?$__crt_unique_handle_t@U__crt_hmodule_traits@@@@QAEPAPAUHINSTANCE__@@XZ 0045d2c0 f i libucrtd:exit.obj
 0001:0005c2e0       ?get_invalid_value@__crt_hmodule_traits@@SAPAUHINSTANCE__@@XZ 0045d2e0 f i libucrtd:exit.obj
 0001:0005c4b0       __Exit                     0045d4b0 f   libucrtd:exit.obj
 0001:0005c4d0       ___acrt_initialize_thread_local_exit_callback 0045d4d0 f   libucrtd:exit.obj
 0001:0005c4f0       __c_exit                   0045d4f0 f   libucrtd:exit.obj
 0001:0005c510       __cexit                    0045d510 f   libucrtd:exit.obj
 0001:0005c530       __exit                     0045d530 f   libucrtd:exit.obj
 0001:0005c550       __is_c_termination_complete 0045d550 f   libucrtd:exit.obj
 0001:0005c570       __register_thread_local_exe_atexit_callback 0045d570 f   libucrtd:exit.obj
 0001:0005c5c0       _exit                      0045d5c0 f   libucrtd:exit.obj
 0001:0005c5e0       _quick_exit                0045d5e0 f   libucrtd:exit.obj
 0001:0005c600       _strcpy                    0045d600 f   libucrtd:strcat.obj
 0001:0005c610       _strcat                    0045d610 f   libucrtd:strcat.obj
 0001:0005c740       _strcmp                    0045d740 f   libucrtd:strcmp.obj
 0001:0005c7f0       _strlen                    0045d7f0 f   libucrtd:strlen.obj
 0001:0005cd20       ??0__crt_stdio_stream@@QAE@QAU__crt_stdio_stream_data@@@Z 0045dd20 f i libucrtd:fflush.obj
 0001:0005d1a0       ___acrt_stdio_flush_nolock 0045e1a0 f   libucrtd:fflush.obj
 0001:0005d2a0       __fflush_nolock            0045e2a0 f   libucrtd:fflush.obj
 0001:0005d340       __flushall                 0045e340 f   libucrtd:fflush.obj
 0001:0005d360       _fflush                    0045e360 f   libucrtd:fflush.obj
 0001:0005d3f0       _strncpy                   0045e3f0 f   libucrtd:strncpy.obj
 0001:0005d560       __abs64                    0045e560 f   libucrtd:abs.obj
 0001:0005d5c0       _abs                       0045e5c0 f   libucrtd:abs.obj
 0001:0005d5f0       _strncat                   0045e5f0 f   libucrtd:strncat.obj
 0001:0005e7c0       ??$localtime_s@PAUtm@@ABQBJ@?$__crt_integer_traits@J@@SAH$$QAPAUtm@@ABQBJ@Z 0045f7c0 f i libucrtd:ctime.obj
 0001:0005e7f0       ??$localtime_s@PAUtm@@ABQB_J@?$__crt_integer_traits@_J@@SAH$$QAPAUtm@@ABQB_J@Z 0045f7f0 f i libucrtd:ctime.obj
 0001:0005e820       ??$tasctime@PAUtm@@@?$__crt_char_traits@D@@SAPAD$$QAPAUtm@@@Z 0045f820 f i libucrtd:ctime.obj
 0001:0005e840       ??$tasctime@PAUtm@@@?$__crt_char_traits@_W@@SAPA_W$$QAPAUtm@@@Z 0045f840 f i libucrtd:ctime.obj
 0001:0005e860       ??$tasctime_s@ABQADABIPAUtm@@@?$__crt_char_traits@D@@SAHABQADABI$$QAPAUtm@@@Z 0045f860 f i libucrtd:ctime.obj
 0001:0005e890       ??$tasctime_s@ABQA_WABIPAUtm@@@?$__crt_char_traits@_W@@SAHABQA_WABI$$QAPAUtm@@@Z 0045f890 f i libucrtd:ctime.obj
 0001:0005e8c0       __ctime32                  0045f8c0 f   libucrtd:ctime.obj
 0001:0005e8e0       __ctime32_s                0045f8e0 f   libucrtd:ctime.obj
 0001:0005e910       __ctime64                  0045f910 f   libucrtd:ctime.obj
 0001:0005e930       __ctime64_s                0045f930 f   libucrtd:ctime.obj
 0001:0005e960       __wctime32                 0045f960 f   libucrtd:ctime.obj
 0001:0005e980       __wctime32_s               0045f980 f   libucrtd:ctime.obj
 0001:0005e9b0       __wctime64                 0045f9b0 f   libucrtd:ctime.obj
 0001:0005e9d0       __wctime64_s               0045f9d0 f   libucrtd:ctime.obj
 0001:0005edf0       __time32                   0045fdf0 f   libucrtd:time.obj
 0001:0005ee10       __time64                   0045fe10 f   libucrtd:time.obj
 0001:0005ee30       __timespec32_get           0045fe30 f   libucrtd:time.obj
 0001:0005ee50       __timespec64_get           0045fe50 f   libucrtd:time.obj
 0001:0005ee80       _fabs                      0045fe80 f   libucrtd:fabs.obj
 0001:0005f520       ___acrt_get_locale_data_prefix 00460520 f i libucrtd:tolower_toupper.obj
 0001:0005f540       __chvalidchk_l             00460540 f i libucrtd:tolower_toupper.obj
 0001:0005f570       __ischartype_l             00460570 f i libucrtd:tolower_toupper.obj
 0001:0005f5d0       __tolower                  004605d0 f   libucrtd:tolower_toupper.obj
 0001:0005f5e0       __tolower_l                004605e0 f   libucrtd:tolower_toupper.obj
 0001:0005f610       __toupper                  00460610 f   libucrtd:tolower_toupper.obj
 0001:0005f620       __toupper_l                00460620 f   libucrtd:tolower_toupper.obj
 0001:0005f650       _tolower                   00460650 f   libucrtd:tolower_toupper.obj
 0001:0005f6c0       _toupper                   004606c0 f   libucrtd:tolower_toupper.obj
 0001:0005f730       _strncmp                   00460730 f   libucrtd:strncmp.obj
 0001:0005f7d0       __errcode                  004607d0 f   libucrtd:fpexcept.obj
 0001:0005f860       __except1                  00460860 f   libucrtd:fpexcept.obj
 0001:0005f9a0       __except2                  004609a0 f   libucrtd:fpexcept.obj
 0001:0005fb50       __handle_exc               00460b50 f   libucrtd:fpexcept.obj
 0001:0005ff30       __handle_qnan2             00460f30 f   libucrtd:fpexcept.obj
 0001:0005ff50       __raise_exc                00460f50 f   libucrtd:fpexcept.obj
 0001:0005ff90       __raise_exc_ex             00460f90 f   libucrtd:fpexcept.obj
 0001:00060670       __raise_excf               00461670 f   libucrtd:fpexcept.obj
 0001:000606b0       __set_errno_from_matherr   004616b0 f   libucrtd:fpexcept.obj
 0001:00060700       __umatherr                 00461700 f   libucrtd:fpexcept.obj
 0001:00060830       __seh_filter_dll           00461830 f   libucrtd:exception_filter.obj
 0001:00060860       __seh_filter_exe           00461860 f   libucrtd:exception_filter.obj
 0001:00060d00       ___acrt_report_runtime_error 00461d00 f   libucrtd:report_runtime_error.obj
 0001:00060f70       __invoke_watson_if_error   00461f70 f i libucrtd:report_runtime_error.obj
 0001:00060fb0       __query_app_type           00461fb0 f   libucrtd:report_runtime_error.obj
 0001:00060fc0       __set_app_type             00461fc0 f   libucrtd:report_runtime_error.obj
 0001:00060fe0       ??$__crt_fast_decode_pointer@P6AHPAU_exception@@@Z@@YAP6AHPAU_exception@@@ZQ6AH0@Z@Z 00461fe0 f i libucrtd:matherr.obj
 0001:00061020       ??$__crt_fast_encode_pointer@P6AHPAU_exception@@@Z@@YAP6AHPAU_exception@@@ZQ6AH0@Z@Z 00462020 f i libucrtd:matherr.obj
 0001:00061060       ?get_current_state_index@__crt_state_management@@YAIXZ 00462060 f i libucrtd:matherr.obj
 0001:00061070       ?initialize@?$dual_state_global@P6AHPAU_exception@@@Z@__crt_state_management@@QAEXQ6AHPAU_exception@@@Z@Z 00462070 f i libucrtd:matherr.obj
 0001:000610c0       ?value@?$dual_state_global@P6AHPAU_exception@@@Z@__crt_state_management@@QAEAAP6AHPAU_exception@@@ZXZ 004620c0 f i libucrtd:matherr.obj
 0001:000610e0       ___acrt_has_user_matherr   004620e0 f   libucrtd:matherr.obj
 0001:00061130       ___acrt_initialize_user_matherr 00462130 f   libucrtd:matherr.obj
 0001:00061150       ___acrt_invoke_user_matherr 00462150 f   libucrtd:matherr.obj
 0001:000611b0       ___setusermatherr          004621b0 f   libucrtd:matherr.obj
 0001:000611e0       ??$?RE@__crt_internal_free_policy@@QBEXQBE@Z 004621e0 f i libucrtd:argv_parsing.obj
 0001:00061210       ??$?RPAD@__crt_internal_free_policy@@QBEXQBQAD@Z 00462210 f i libucrtd:argv_parsing.obj
 0001:00061240       ??$?RPA_W@__crt_internal_free_policy@@QBEXQBQA_W@Z 00462240 f i libucrtd:argv_parsing.obj
 0001:00061910       ??$get_module_file_name@$$TAAY0BAF@DH@?$__crt_char_traits@D@@SAK$$QA$$TAAY0BAF@D$$QAH@Z 00462910 f i libucrtd:argv_parsing.obj
 0001:00061940       ??$get_module_file_name@$$TAAY0BAF@_WH@?$__crt_char_traits@_W@@SAK$$QA$$TAAY0BAF@_W$$QAH@Z 00462940 f i libucrtd:argv_parsing.obj
 0001:00062230       ??$set_program_name@PAD@?$__crt_char_traits@D@@SAX$$QAPAD@Z 00463230 f i libucrtd:argv_parsing.obj
 0001:00062250       ??$set_program_name@PA_W@?$__crt_char_traits@_W@@SAX$$QAPA_W@Z 00463250 f i libucrtd:argv_parsing.obj
 0001:000622b0       ??0?$__crt_unique_heap_ptr@EU__crt_internal_free_policy@@@@QAE@QAE@Z 004632b0 f i libucrtd:argv_parsing.obj
 0001:000622d0       ??0?$__crt_unique_heap_ptr@PADU__crt_internal_free_policy@@@@QAE@QAPAD@Z 004632d0 f i libucrtd:argv_parsing.obj
 0001:000622f0       ??0?$__crt_unique_heap_ptr@PA_WU__crt_internal_free_policy@@@@QAE@QAPA_W@Z 004632f0 f i libucrtd:argv_parsing.obj
 0001:00062310       ??1?$__crt_unique_heap_ptr@EU__crt_internal_free_policy@@@@QAE@XZ 00463310 f i libucrtd:argv_parsing.obj
 0001:00062330       ??1?$__crt_unique_heap_ptr@PADU__crt_internal_free_policy@@@@QAE@XZ 00463330 f i libucrtd:argv_parsing.obj
 0001:00062350       ??1?$__crt_unique_heap_ptr@PA_WU__crt_internal_free_policy@@@@QAE@XZ 00463350 f i libucrtd:argv_parsing.obj
 0001:00062370       ??B?$__crt_unique_heap_ptr@EU__crt_internal_free_policy@@@@QBE_NXZ 00463370 f i libucrtd:argv_parsing.obj
 0001:00062450       ?detach@?$__crt_unique_heap_ptr@EU__crt_internal_free_policy@@@@QAEPAEXZ 00463450 f i libucrtd:argv_parsing.obj
 0001:00062480       ?detach@?$__crt_unique_heap_ptr@PADU__crt_internal_free_policy@@@@QAEPAPADXZ 00463480 f i libucrtd:argv_parsing.obj
 0001:000624b0       ?detach@?$__crt_unique_heap_ptr@PA_WU__crt_internal_free_policy@@@@QAEPAPA_WXZ 004634b0 f i libucrtd:argv_parsing.obj
 0001:00062540       ?get@?$__crt_unique_heap_ptr@EU__crt_internal_free_policy@@@@QBEPAEXZ 00463540 f i libucrtd:argv_parsing.obj
 0001:00062560       ?get@?$__crt_unique_heap_ptr@PADU__crt_internal_free_policy@@@@QBEPAPADXZ 00463560 f i libucrtd:argv_parsing.obj
 0001:00062580       ?get@?$__crt_unique_heap_ptr@PA_WU__crt_internal_free_policy@@@@QBEPAPA_WXZ 00463580 f i libucrtd:argv_parsing.obj
 0001:000625a0       ?get_address_of@?$__crt_unique_heap_ptr@PADU__crt_internal_free_policy@@@@QAEPAPAPADXZ 004635a0 f i libucrtd:argv_parsing.obj
 0001:000625c0       ?get_address_of@?$__crt_unique_heap_ptr@PA_WU__crt_internal_free_policy@@@@QAEPAPAPA_WXZ 004635c0 f i libucrtd:argv_parsing.obj
 0001:00062620       ?is_valid@?$__crt_unique_heap_ptr@EU__crt_internal_free_policy@@@@QBE_NXZ 00463620 f i libucrtd:argv_parsing.obj
 0001:00062660       ?release@?$__crt_unique_heap_ptr@EU__crt_internal_free_policy@@@@QAEXXZ 00463660 f i libucrtd:argv_parsing.obj
 0001:00062690       ?release@?$__crt_unique_heap_ptr@PADU__crt_internal_free_policy@@@@QAEXXZ 00463690 f i libucrtd:argv_parsing.obj
 0001:000626c0       ?release@?$__crt_unique_heap_ptr@PA_WU__crt_internal_free_policy@@@@QAEXXZ 004636c0 f i libucrtd:argv_parsing.obj
 0001:00062740       ___acrt_allocate_buffer_for_argv 00463740 f   libucrtd:argv_parsing.obj
 0001:00062830       __configure_narrow_argv    00463830 f   libucrtd:argv_parsing.obj
 0001:00062850       __configure_wide_argv      00463850 f   libucrtd:argv_parsing.obj
 0001:00062870       __set_pgmptr               00463870 f i libucrtd:argv_parsing.obj
 0001:00062890       __set_wpgmptr              00463890 f i libucrtd:argv_parsing.obj
 0001:000628a2       ??$?R_W@__crt_internal_free_policy@@QBEXQB_W@Z 004638a2 f i libucrtd:environment_initialization.obj
 0001:00062e27       ??$get_environment_from_os@$$V@?$__crt_char_traits@D@@SAPADXZ 00463e27 f i libucrtd:environment_initialization.obj
 0001:00062e2c       ??$get_environment_from_os@$$V@?$__crt_char_traits@_W@@SAPA_WXZ 00463e2c f i libucrtd:environment_initialization.obj
 0001:00062f9d       ??$set_variable_in_environment_nolock@PADH@?$__crt_char_traits@D@@SAH$$QAPAD$$QAH@Z 00463f9d f i libucrtd:environment_initialization.obj
 0001:00062fbb       ??$set_variable_in_environment_nolock@PA_WH@?$__crt_char_traits@_W@@SAH$$QAPA_W$$QAH@Z 00463fbb f i libucrtd:environment_initialization.obj
 0001:00062fd9       ??$tcscpy_s@PADABIAAPAD@?$__crt_char_traits@D@@SAH$$QAPADABIAAPAD@Z 00463fd9 f i libucrtd:environment_initialization.obj
 0001:00062ffe       ??$tcscpy_s@PA_WABIAAPA_W@?$__crt_char_traits@_W@@SAH$$QAPA_WABIAAPA_W@Z 00463ffe f i libucrtd:environment_initialization.obj
 0001:00063023       ??$tcslen@AAPAD@?$__crt_char_traits@D@@SAIAAPAD@Z 00464023 f i libucrtd:environment_initialization.obj
 0001:00063041       ??$tcslen@AAPA_W@?$__crt_char_traits@_W@@SAIAAPA_W@Z 00464041 f i libucrtd:environment_initialization.obj
 0001:00063066       ??$uninitialize@A6AXAAPAPAD@Z@?$dual_state_global@PAPAD@__crt_state_management@@QAEXA6AXAAPAPAD@Z@Z 00464066 f i libucrtd:environment_initialization.obj
 0001:00063099       ??$uninitialize@A6AXAAPAPA_W@Z@?$dual_state_global@PAPA_W@__crt_state_management@@QAEXA6AXAAPAPA_W@Z@Z 00464099 f i libucrtd:environment_initialization.obj
 0001:0006310e       ??0?$__crt_unique_heap_ptr@_WU__crt_internal_free_policy@@@@QAE@QA_W@Z 0046410e f i libucrtd:environment_initialization.obj
 0001:00063122       ??1?$__crt_unique_heap_ptr@_WU__crt_internal_free_policy@@@@QAE@XZ 00464122 f i libucrtd:environment_initialization.obj
 0001:0006313c       ??B?$__crt_unique_heap_ptr@PADU__crt_internal_free_policy@@@@QBE_NXZ 0046413c f i libucrtd:environment_initialization.obj
 0001:00063143       ??B?$__crt_unique_heap_ptr@PA_WU__crt_internal_free_policy@@@@QBE_NXZ 00464143 f i libucrtd:environment_initialization.obj
 0001:0006314a       ??B?$__crt_unique_heap_ptr@_WU__crt_internal_free_policy@@@@QBE_NXZ 0046414a f i libucrtd:environment_initialization.obj
 0001:00063151       ?__crt_compute_required_transform_buffer_count@@YAIIQBD@Z 00464151 f i libucrtd:environment_initialization.obj
 0001:00063174       ?__crt_compute_required_transform_buffer_count@@YAIIQB_W@Z 00464174 f i libucrtd:environment_initialization.obj
 0001:00063199       ?__crt_transform_string@@YAIIQBDQA_WI@Z 00464199 f i libucrtd:environment_initialization.obj
 0001:000631bf       ?__crt_transform_string@@YAIIQB_WQADI@Z 004641bf f i libucrtd:environment_initialization.obj
 0001:000631e9       ?detach@?$__crt_unique_heap_ptr@DU__crt_internal_free_policy@@@@QAEPADXZ 004641e9 f i libucrtd:environment_initialization.obj
 0001:000631ef       ?detach@?$__crt_unique_heap_ptr@_WU__crt_internal_free_policy@@@@QAEPA_WXZ 004641ef f i libucrtd:environment_initialization.obj
 0001:000631f5       ?get@?$__crt_unique_heap_ptr@_WU__crt_internal_free_policy@@@@QBEPA_WXZ 004641f5 f i libucrtd:environment_initialization.obj
 0001:0006321c       ?initialize@?$dual_state_global@PAPAD@__crt_state_management@@QAEXQAPAD@Z 0046421c f i libucrtd:environment_initialization.obj
 0001:0006324b       ?initialize@?$dual_state_global@PAPA_W@__crt_state_management@@QAEXQAPA_W@Z 0046424b f i libucrtd:environment_initialization.obj
 0001:0006327a       ?is_valid@?$__crt_unique_heap_ptr@PADU__crt_internal_free_policy@@@@QBE_NXZ 0046427a f i libucrtd:environment_initialization.obj
 0001:00063281       ?is_valid@?$__crt_unique_heap_ptr@PA_WU__crt_internal_free_policy@@@@QBE_NXZ 00464281 f i libucrtd:environment_initialization.obj
 0001:00063288       ?is_valid@?$__crt_unique_heap_ptr@_WU__crt_internal_free_policy@@@@QBE_NXZ 00464288 f i libucrtd:environment_initialization.obj
 0001:00063297       ?release@?$__crt_unique_heap_ptr@_WU__crt_internal_free_policy@@@@QAEXXZ 00464297 f i libucrtd:environment_initialization.obj
 0001:000632b1       ?value@?$dual_state_global@PAPAD@__crt_state_management@@QAEAAPAPADXZ 004642b1 f i libucrtd:environment_initialization.obj
 0001:000632b4       ?value@?$dual_state_global@PAPA_W@__crt_state_management@@QAEAAPAPA_WXZ 004642b4 f i libucrtd:environment_initialization.obj
 0001:000632b7       ___dcrt_get_or_create_narrow_environment_nolock 004642b7 f   libucrtd:environment_initialization.obj
 0001:000632bc       ___dcrt_get_or_create_wide_environment_nolock 004642bc f   libucrtd:environment_initialization.obj
 0001:000632c1       ___dcrt_uninitialize_environments_nolock 004642c1 f   libucrtd:environment_initialization.obj
 0001:00063305       ___p__environ              00464305 f   libucrtd:environment_initialization.obj
 0001:0006330b       ___p__wenviron             0046430b f   libucrtd:environment_initialization.obj
 0001:00063311       __get_initial_narrow_environment 00464311 f   libucrtd:environment_initialization.obj
 0001:0006332a       __get_initial_wide_environment 0046432a f   libucrtd:environment_initialization.obj
 0001:00063343       __initialize_narrow_environment 00464343 f   libucrtd:environment_initialization.obj
 0001:00063348       __initialize_wide_environment 00464348 f   libucrtd:environment_initialization.obj
 0001:00063350       __initterm                 00464350 f   libucrtd:initterm.obj
 0001:000633b0       __initterm_e               004643b0 f   libucrtd:initterm.obj
 0001:00063420       ??$__crt_interlocked_read@H@@YAHPDH@Z 00464420 f i libucrtd:setmode.obj
 0001:00063440       ?value@?$dual_state_global@H@__crt_state_management@@QAEAAHXZ 00464440 f i libucrtd:setmode.obj
 0001:00063460       __get_fmode                00464460 f   libucrtd:setmode.obj
 0001:00063530       __set_fmode                00464530 f   libucrtd:setmode.obj
 0001:00063610       __setmode                  00464610 f   libucrtd:setmode.obj
 0001:00063970       __setmode_nolock           00464970 f   libucrtd:setmode.obj
 0001:00063c10       ___acrt_initialize_command_line 00464c10 f   libucrtd:argv_data.obj
 0001:00063c40       ___acrt_uninitialize_command_line 00464c40 f   libucrtd:argv_data.obj
 0001:00063c50       ___p___argc                00464c50 f   libucrtd:argv_data.obj
 0001:00063c60       ___p___argv                00464c60 f   libucrtd:argv_data.obj
 0001:00063c70       ___p___wargv               00464c70 f   libucrtd:argv_data.obj
 0001:00063c80       ___p__acmdln               00464c80 f   libucrtd:argv_data.obj
 0001:00063c90       ___p__pgmptr               00464c90 f   libucrtd:argv_data.obj
 0001:00063ca0       ___p__wcmdln               00464ca0 f   libucrtd:argv_data.obj
 0001:00063cb0       ___p__wpgmptr              00464cb0 f   libucrtd:argv_data.obj
 0001:00063cc0       __get_pgmptr               00464cc0 f   libucrtd:argv_data.obj
 0001:00063e20       __get_wpgmptr              00464e20 f   libucrtd:argv_data.obj
 0001:00063f90       ??$?RU__crt_locale_data@@@__crt_internal_free_policy@@QBEXQBU__crt_locale_data@@@Z 00464f90 f i libucrtd:wsetlocale.obj
 0001:00063fc0       ??$?RU__crt_locale_pointers@@@__crt_internal_free_policy@@QBEXQBU__crt_locale_pointers@@@Z 00464fc0 f i libucrtd:wsetlocale.obj
 0001:00063ff0       ??$?RU__crt_multibyte_data@@@__crt_internal_free_policy@@QBEXQBU__crt_multibyte_data@@@Z 00464ff0 f i libucrtd:wsetlocale.obj
 0001:00064470       ??$__vcrt_va_start_verify_argument_type@H@@YAXXZ 00465470 f i libucrtd:wsetlocale.obj
 0001:00064750       ??0?$__crt_unique_heap_ptr@U__crt_locale_data@@U__crt_internal_free_policy@@@@QAE@QAU__crt_locale_data@@@Z 00465750 f i libucrtd:wsetlocale.obj
 0001:00064770       ??0?$__crt_unique_heap_ptr@U__crt_locale_pointers@@U__crt_internal_free_policy@@@@QAE@QAU__crt_locale_pointers@@@Z 00465770 f i libucrtd:wsetlocale.obj
 0001:00064790       ??0?$__crt_unique_heap_ptr@U__crt_multibyte_data@@U__crt_internal_free_policy@@@@QAE@QAU__crt_multibyte_data@@@Z 00465790 f i libucrtd:wsetlocale.obj
 0001:000647b0       ??1?$__crt_unique_heap_ptr@U__crt_locale_data@@U__crt_internal_free_policy@@@@QAE@XZ 004657b0 f i libucrtd:wsetlocale.obj
 0001:000647d0       ??1?$__crt_unique_heap_ptr@U__crt_locale_pointers@@U__crt_internal_free_policy@@@@QAE@XZ 004657d0 f i libucrtd:wsetlocale.obj
 0001:000647f0       ??1?$__crt_unique_heap_ptr@U__crt_multibyte_data@@U__crt_internal_free_policy@@@@QAE@XZ 004657f0 f i libucrtd:wsetlocale.obj
 0001:00064810       ??B?$__crt_unique_heap_ptr@U__crt_locale_data@@U__crt_internal_free_policy@@@@QBE_NXZ 00465810 f i libucrtd:wsetlocale.obj
 0001:00064830       ??B?$__crt_unique_heap_ptr@U__crt_locale_pointers@@U__crt_internal_free_policy@@@@QBE_NXZ 00465830 f i libucrtd:wsetlocale.obj
 0001:00064850       ??B?$__crt_unique_heap_ptr@U__crt_multibyte_data@@U__crt_internal_free_policy@@@@QBE_NXZ 00465850 f i libucrtd:wsetlocale.obj
 0001:00064d60       ?detach@?$__crt_unique_heap_ptr@U__crt_locale_data@@U__crt_internal_free_policy@@@@QAEPAU__crt_locale_data@@XZ 00465d60 f i libucrtd:wsetlocale.obj
 0001:00064d90       ?detach@?$__crt_unique_heap_ptr@U__crt_locale_pointers@@U__crt_internal_free_policy@@@@QAEPAU__crt_locale_pointers@@XZ 00465d90 f i libucrtd:wsetlocale.obj
 0001:00064dc0       ?detach@?$__crt_unique_heap_ptr@U__crt_multibyte_data@@U__crt_internal_free_policy@@@@QAEPAU__crt_multibyte_data@@XZ 00465dc0 f i libucrtd:wsetlocale.obj
 0001:00064df0       ?get@?$__crt_unique_heap_ptr@U__crt_locale_data@@U__crt_internal_free_policy@@@@QBEPAU__crt_locale_data@@XZ 00465df0 f i libucrtd:wsetlocale.obj
 0001:00064e10       ?get@?$__crt_unique_heap_ptr@U__crt_locale_pointers@@U__crt_internal_free_policy@@@@QBEPAU__crt_locale_pointers@@XZ 00465e10 f i libucrtd:wsetlocale.obj
 0001:00064e30       ?get@?$__crt_unique_heap_ptr@U__crt_multibyte_data@@U__crt_internal_free_policy@@@@QBEPAU__crt_multibyte_data@@XZ 00465e30 f i libucrtd:wsetlocale.obj
 0001:00064e50       ?is_valid@?$__crt_unique_heap_ptr@U__crt_locale_data@@U__crt_internal_free_policy@@@@QBE_NXZ 00465e50 f i libucrtd:wsetlocale.obj
 0001:00064e90       ?is_valid@?$__crt_unique_heap_ptr@U__crt_locale_pointers@@U__crt_internal_free_policy@@@@QBE_NXZ 00465e90 f i libucrtd:wsetlocale.obj
 0001:00064ed0       ?is_valid@?$__crt_unique_heap_ptr@U__crt_multibyte_data@@U__crt_internal_free_policy@@@@QBE_NXZ 00465ed0 f i libucrtd:wsetlocale.obj
 0001:00064f10       ?release@?$__crt_unique_heap_ptr@U__crt_locale_data@@U__crt_internal_free_policy@@@@QAEXXZ 00465f10 f i libucrtd:wsetlocale.obj
 0001:00064f40       ?release@?$__crt_unique_heap_ptr@U__crt_locale_pointers@@U__crt_internal_free_policy@@@@QAEXXZ 00465f40 f i libucrtd:wsetlocale.obj
 0001:00064f70       ?release@?$__crt_unique_heap_ptr@U__crt_multibyte_data@@U__crt_internal_free_policy@@@@QAEXXZ 00465f70 f i libucrtd:wsetlocale.obj
 0001:00064fa0       ?value@?$dual_state_global@PAU__crt_locale_data@@@__crt_state_management@@QAEAAPAU__crt_locale_data@@XZ 00465fa0 f i libucrtd:wsetlocale.obj
 0001:00064fc0       ___acrt_copy_locale_name   00465fc0 f   libucrtd:wsetlocale.obj
 0001:00065090       ___acrt_set_locale_changed 00466090 f   libucrtd:wsetlocale.obj
 0001:000650b0       ___acrt_uninitialize_locale 004660b0 f   libucrtd:wsetlocale.obj
 0001:000650e0       ___lc_lctowcs              004660e0 f   libucrtd:wsetlocale.obj
 0001:000651c0       ___lc_wcstolc              004661c0 f   libucrtd:wsetlocale.obj
 0001:000654b0       __configthreadlocale       004664b0 f   libucrtd:wsetlocale.obj
 0001:00065680       __create_locale            00466680 f   libucrtd:wsetlocale.obj
 0001:00065710       __expandlocale             00466710 f   libucrtd:wsetlocale.obj
 0001:00065e10       __free_locale              00466e10 f   libucrtd:wsetlocale.obj
 0001:00065f90       __get_current_locale       00466f90 f   libucrtd:wsetlocale.obj
 0001:00066090       __wcreate_locale           00467090 f   libucrtd:wsetlocale.obj
 0001:00066350       __wcscats                  00467350 f   libucrtd:wsetlocale.obj
 0001:000663f0       __wsetlocale               004673f0 f   libucrtd:wsetlocale.obj
 0001:00067710       ?value@?$dual_state_global@J@__crt_state_management@@QAEAAJXZ 00468710 f i libucrtd:new_mode.obj
 0001:00067730       __query_new_mode           00468730 f   libucrtd:new_mode.obj
 0001:00067750       __set_new_mode             00468750 f   libucrtd:new_mode.obj
 0001:00067820       ___p__commode              00468820 f   libucrtd:ncommode.obj
 0001:00067830       ??$?BP6AXXZ@__crt_fast_encoded_nullptr_t@@QBEPAP6AXXZXZ 00468830 f i libucrtd:onexit.obj
 0001:00067850       ??$?RP6AXXZ@__crt_internal_free_policy@@QBEXQBQ6AXXZ@Z 00468850 f i libucrtd:onexit.obj
 0001:00067a60       ??$__crt_fast_encode_pointer@P6AHXZ@@YAP6AHXZQ6AHXZ@Z 00468a60 f i libucrtd:onexit.obj
 0001:00067bb0       ??0?$__crt_unique_heap_ptr@P6AXXZU__crt_internal_free_policy@@@@QAE@QAP6AXXZ@Z 00468bb0 f i libucrtd:onexit.obj
 0001:00067bd0       ??1?$__crt_unique_heap_ptr@P6AXXZU__crt_internal_free_policy@@@@QAE@XZ 00468bd0 f i libucrtd:onexit.obj
 0001:00067bf0       ??1scoped_global_state_reset@__crt_state_management@@QAE@XZ 00468bf0 f i libucrtd:onexit.obj
 0001:00068190       ?detach@?$__crt_unique_heap_ptr@P6AXXZU__crt_internal_free_policy@@@@QAEPAP6AXXZXZ 00469190 f i libucrtd:onexit.obj
 0001:000681c0       ?release@?$__crt_unique_heap_ptr@P6AXXZU__crt_internal_free_policy@@@@QAEXXZ 004691c0 f i libucrtd:onexit.obj
 0001:000681f0       __crt_at_quick_exit        004691f0 f   libucrtd:onexit.obj
 0001:00068210       __crt_atexit               00469210 f   libucrtd:onexit.obj
 0001:00068230       __execute_onexit_table     00469230 f   libucrtd:onexit.obj
 0001:00068260       __initialize_onexit_table  00469260 f   libucrtd:onexit.obj
 0001:000682e0       __register_onexit_function 004692e0 f   libucrtd:onexit.obj
 0001:00068610       ?initialize@?$dual_state_global@PAU__crt_locale_data@@@__crt_state_management@@QAEXQAU__crt_locale_data@@@Z 00469610 f i libucrtd:initialization.obj
 0001:00068660       ___acrt_initialize         00469660 f   libucrtd:initialization.obj
 0001:00068680       ___acrt_thread_attach      00469680 f   libucrtd:initialization.obj
 0001:000686a0       ___acrt_thread_detach      004696a0 f   libucrtd:initialization.obj
 0001:000686c0       ___acrt_uninitialize       004696c0 f   libucrtd:initialization.obj
 0001:000686e0       ___acrt_uninitialize_critical 004696e0 f   libucrtd:initialization.obj
 0001:00068700       __controlfp_s              00469700 f   libucrtd:contrlfp.obj
 0001:00068860       __get_terminate            00469860 f   libucrtd:terminate.obj
 0001:00068880       _set_terminate             00469880 f   libucrtd:terminate.obj
 0001:000688c0       _terminate                 004698c0 f   libucrtd:terminate.obj
 0001:00068980       ??$__vcrt_va_start_verify_argument_type@QBD@@YAXXZ 00469980 f i libucrtd:debug_heap.obj
 0001:0006a7c0       __CrtCheckMemory           0046b7c0 f   libucrtd:debug_heap.obj
 0001:0006a9b0       __CrtDoForAllClientObjects 0046b9b0 f   libucrtd:debug_heap.obj
 0001:0006ab50       __CrtDumpMemoryLeaks       0046bb50 f   libucrtd:debug_heap.obj
 0001:0006ac10       __CrtGetAllocHook          0046bc10 f   libucrtd:debug_heap.obj
 0001:0006ac20       __CrtGetDumpClient         0046bc20 f   libucrtd:debug_heap.obj
 0001:0006ac30       __CrtIsMemoryBlock         0046bc30 f   libucrtd:debug_heap.obj
 0001:0006add0       __CrtIsValidHeapPointer    0046bdd0 f   libucrtd:debug_heap.obj
 0001:0006ae10       __CrtIsValidPointer        0046be10 f   libucrtd:debug_heap.obj
 0001:0006ae40       __CrtMemCheckpoint         0046be40 f   libucrtd:debug_heap.obj
 0001:0006b100       __CrtMemDifference         0046c100 f   libucrtd:debug_heap.obj
 0001:0006b410       __CrtMemDumpAllObjectsSince 0046c410 f   libucrtd:debug_heap.obj
 0001:0006b4d0       __CrtMemDumpStatistics     0046c4d0 f   libucrtd:debug_heap.obj
 0001:0006b640       __CrtReportBlockType       0046c640 f   libucrtd:debug_heap.obj
 0001:0006b680       __CrtSetAllocHook          0046c680 f   libucrtd:debug_heap.obj
 0001:0006b6b0       __CrtSetBreakAlloc         0046c6b0 f   libucrtd:debug_heap.obj
 0001:0006b6e0       __CrtSetDbgBlockType       0046c6e0 f   libucrtd:debug_heap.obj
 0001:0006b7f0       __CrtSetDbgFlag            0046c7f0 f   libucrtd:debug_heap.obj
 0001:0006b9c0       __CrtSetDumpClient         0046c9c0 f   libucrtd:debug_heap.obj
 0001:0006b9f0       ___p__crtBreakAlloc        0046c9f0 f   libucrtd:debug_heap.obj
 0001:0006ba00       ___p__crtDbgFlag           0046ca00 f   libucrtd:debug_heap.obj
 0001:0006ba10       __aligned_free_dbg         0046ca10 f   libucrtd:debug_heap.obj
 0001:0006baf0       __aligned_malloc_dbg       0046caf0 f   libucrtd:debug_heap.obj
 0001:0006bb20       __aligned_msize_dbg        0046cb20 f   libucrtd:debug_heap.obj
 0001:0006bc90       __aligned_offset_malloc_dbg 0046cc90 f   libucrtd:debug_heap.obj
 0001:0006bee0       __aligned_offset_realloc_dbg 0046cee0 f   libucrtd:debug_heap.obj
 0001:0006c2b0       __aligned_offset_recalloc_dbg 0046d2b0 f   libucrtd:debug_heap.obj
 0001:0006c3a0       __aligned_realloc_dbg      0046d3a0 f   libucrtd:debug_heap.obj
 0001:0006c3d0       __aligned_recalloc_dbg     0046d3d0 f   libucrtd:debug_heap.obj
 0001:0006c410       __calloc_dbg               0046d410 f   libucrtd:debug_heap.obj
 0001:0006c4a0       __expand_dbg               0046d4a0 f   libucrtd:debug_heap.obj
 0001:0006c620       __free_dbg                 0046d620 f   libucrtd:debug_heap.obj
 0001:0006c700       __invoke_watson_if_oneof   0046d700 f i libucrtd:debug_heap.obj
 0001:0006c750       __malloc_dbg               0046d750 f   libucrtd:debug_heap.obj
 0001:0006c780       __msize_dbg                0046d780 f   libucrtd:debug_heap.obj
 0001:0006c970       __realloc_dbg              0046d970 f   libucrtd:debug_heap.obj
 0001:0006ca40       __recalloc_dbg             0046da40 f   libucrtd:debug_heap.obj
 0001:0006cef0       _strcpy_s                  0046def0 f   libucrtd:strcpy_s.obj
 0001:0006cf20       __set_abort_behavior       0046df20 f   libucrtd:abort.obj
 0001:0006cf60       _abort                     0046df60 f   libucrtd:abort.obj
 0001:0006cff0       ??$?RU?$__crt_report_hook_node@D@@@__crt_internal_free_policy@@QBEXQBU?$__crt_report_hook_node@D@@@Z 0046dff0 f i libucrtd:dbgrpt.obj
 0001:0006d020       ??$?RU?$__crt_report_hook_node@_W@@@__crt_internal_free_policy@@QBEXQBU?$__crt_report_hook_node@_W@@@Z 0046e020 f i libucrtd:dbgrpt.obj
 0001:0006d230       ??$__vcrt_va_start_verify_argument_type@QB_W@@YAXXZ 0046e230 f i libucrtd:dbgrpt.obj
 0001:0006e180       ??$get_module_file_name@AAPAUHINSTANCE__@@AAY0BAF@DK@?$__crt_char_traits@D@@SAKAAPAUHINSTANCE__@@AAY0BAF@D$$QAK@Z 0046f180 f i libucrtd:dbgrpt.obj
 0001:0006e1b0       ??$get_module_file_name@AAPAUHINSTANCE__@@AAY0BAF@_WK@?$__crt_char_traits@_W@@SAKAAPAUHINSTANCE__@@AAY0BAF@_W$$QAK@Z 0046f1b0 f i libucrtd:dbgrpt.obj
 0001:0006e1e0       ??$tcscpy_s@AAY0BAF@DIPBD@?$__crt_char_traits@D@@SAHAAY0BAF@D$$QAI$$QAPBD@Z 0046f1e0 f i libucrtd:dbgrpt.obj
 0001:0006e210       ??$tcscpy_s@AAY0BAF@_WIPB_W@?$__crt_char_traits@_W@@SAHAAY0BAF@_W$$QAI$$QAPB_W@Z 0046f210 f i libucrtd:dbgrpt.obj
 0001:0006e240       ??$tcslen@AAY0BAF@D@?$__crt_char_traits@D@@SAIAAY0BAF@D@Z 0046f240 f i libucrtd:dbgrpt.obj
 0001:0006e260       ??$tcslen@AAY0BAF@_W@?$__crt_char_traits@_W@@SAIAAY0BAF@_W@Z 0046f260 f i libucrtd:dbgrpt.obj
 0001:0006e280       ??$tcslen@ABQBD@?$__crt_char_traits@D@@SAIABQBD@Z 0046f280 f i libucrtd:dbgrpt.obj
 0001:0006e2a0       ??$tcslen@ABQB_W@?$__crt_char_traits@_W@@SAIABQB_W@Z 0046f2a0 f i libucrtd:dbgrpt.obj
 0001:0006e3e0       ??0?$__crt_unique_heap_ptr@U?$__crt_report_hook_node@D@@U__crt_internal_free_policy@@@@QAE@QAU?$__crt_report_hook_node@D@@@Z 0046f3e0 f i libucrtd:dbgrpt.obj
 0001:0006e400       ??0?$__crt_unique_heap_ptr@U?$__crt_report_hook_node@_W@@U__crt_internal_free_policy@@@@QAE@QAU?$__crt_report_hook_node@_W@@@Z 0046f400 f i libucrtd:dbgrpt.obj
 0001:0006e420       ??1?$__crt_unique_heap_ptr@U?$__crt_report_hook_node@D@@U__crt_internal_free_policy@@@@QAE@XZ 0046f420 f i libucrtd:dbgrpt.obj
 0001:0006e440       ??1?$__crt_unique_heap_ptr@U?$__crt_report_hook_node@_W@@U__crt_internal_free_policy@@@@QAE@XZ 0046f440 f i libucrtd:dbgrpt.obj
 0001:0006e460       ??B?$__crt_unique_heap_ptr@U?$__crt_report_hook_node@D@@U__crt_internal_free_policy@@@@QBE_NXZ 0046f460 f i libucrtd:dbgrpt.obj
 0001:0006e480       ??B?$__crt_unique_heap_ptr@U?$__crt_report_hook_node@_W@@U__crt_internal_free_policy@@@@QBE_NXZ 0046f480 f i libucrtd:dbgrpt.obj
 0001:0006eb20       ?detach@?$__crt_unique_heap_ptr@U?$__crt_report_hook_node@D@@U__crt_internal_free_policy@@@@QAEPAU?$__crt_report_hook_node@D@@XZ 0046fb20 f i libucrtd:dbgrpt.obj
 0001:0006eb50       ?detach@?$__crt_unique_heap_ptr@U?$__crt_report_hook_node@_W@@U__crt_internal_free_policy@@@@QAEPAU?$__crt_report_hook_node@_W@@XZ 0046fb50 f i libucrtd:dbgrpt.obj
 0001:0006eb80       ?get@?$__crt_unique_heap_ptr@U?$__crt_report_hook_node@D@@U__crt_internal_free_policy@@@@QBEPAU?$__crt_report_hook_node@D@@XZ 0046fb80 f i libucrtd:dbgrpt.obj
 0001:0006eba0       ?get@?$__crt_unique_heap_ptr@U?$__crt_report_hook_node@_W@@U__crt_internal_free_policy@@@@QBEPAU?$__crt_report_hook_node@_W@@XZ 0046fba0 f i libucrtd:dbgrpt.obj
 0001:0006ec20       ?is_valid@?$__crt_unique_heap_ptr@U?$__crt_report_hook_node@D@@U__crt_internal_free_policy@@@@QBE_NXZ 0046fc20 f i libucrtd:dbgrpt.obj
 0001:0006ec60       ?is_valid@?$__crt_unique_heap_ptr@U?$__crt_report_hook_node@_W@@U__crt_internal_free_policy@@@@QBE_NXZ 0046fc60 f i libucrtd:dbgrpt.obj
 0001:0006eca0       ?release@?$__crt_unique_heap_ptr@U?$__crt_report_hook_node@D@@U__crt_internal_free_policy@@@@QAEXXZ 0046fca0 f i libucrtd:dbgrpt.obj
 0001:0006ecd0       ?release@?$__crt_unique_heap_ptr@U?$__crt_report_hook_node@_W@@U__crt_internal_free_policy@@@@QAEXXZ 0046fcd0 f i libucrtd:dbgrpt.obj
 0001:0006ed00       __CrtDbgReport             0046fd00 f   libucrtd:dbgrpt.obj
 0001:0006ed60       __CrtDbgReportW            0046fd60 f   libucrtd:dbgrpt.obj
 0001:0006edc0       __CrtSetReportHook2        0046fdc0 f   libucrtd:dbgrpt.obj
 0001:0006ede0       __CrtSetReportHookW2       0046fde0 f   libucrtd:dbgrpt.obj
 0001:0006ee00       ___acrt_MessageWindowA     0046fe00 f   libucrtd:dbgrpt.obj
 0001:0006ee30       ___acrt_MessageWindowW     0046fe30 f   libucrtd:dbgrpt.obj
 0001:0006ee60       __snwprintf_s              0046fe60 f i libucrtd:dbgrpt.obj
 0001:0006eec0       __vsnwprintf_s_l           0046fec0 f i libucrtd:dbgrpt.obj
 0001:0006ef30       _wcsncmp                   0046ff30 f   libucrtd:wcsncmp.obj
 0001:0006efa0       ??$is_overflow_condition@K@__crt_strtox@@YA_NIK@Z 0046ffa0 f i libucrtd:atox.obj
 0001:0006f010       ??$is_overflow_condition@_K@__crt_strtox@@YA_NI_K@Z 00470010 f i libucrtd:atox.obj
 0001:0006f0c0       ??$make_c_string_character_source@D$$T@__crt_strtox@@YA?AV?$c_string_character_source@D@0@QBD$$T@Z 004700c0 f i libucrtd:atox.obj
 0001:0006f0e0       ??$make_c_string_character_source@_W$$T@__crt_strtox@@YA?AV?$c_string_character_source@_W@0@QB_W$$T@Z 004700e0 f i libucrtd:atox.obj
 0001:0006f100       ??$parse_integer@KV?$c_string_character_source@D@__crt_strtox@@@__crt_strtox@@YAKQAU__crt_locale_pointers@@V?$c_string_character_source@D@0@H_N@Z 00470100 f i libucrtd:atox.obj
 0001:0006f550       ??$parse_integer@KV?$c_string_character_source@_W@__crt_strtox@@@__crt_strtox@@YAKQAU__crt_locale_pointers@@V?$c_string_character_source@_W@0@H_N@Z 00470550 f i libucrtd:atox.obj
 0001:0006f9a0       ??$parse_integer@_KV?$c_string_character_source@D@__crt_strtox@@@__crt_strtox@@YA_KQAU__crt_locale_pointers@@V?$c_string_character_source@D@0@H_N@Z 004709a0 f i libucrtd:atox.obj
 0001:0006fec0       ??$parse_integer@_KV?$c_string_character_source@_W@__crt_strtox@@@__crt_strtox@@YA_KQAU__crt_locale_pointers@@V?$c_string_character_source@_W@0@H_N@Z 00470ec0 f i libucrtd:atox.obj
 0001:00070400       ??$parse_integer_from_string@JD$$T@__crt_strtox@@YAJQBD$$THQAU__crt_locale_pointers@@@Z 00471400 f i libucrtd:atox.obj
 0001:00070450       ??$parse_integer_from_string@J_W$$T@__crt_strtox@@YAJQB_W$$THQAU__crt_locale_pointers@@@Z 00471450 f i libucrtd:atox.obj
 0001:000704a0       ??$parse_integer_from_string@_JD$$T@__crt_strtox@@YA_JQBD$$THQAU__crt_locale_pointers@@@Z 004714a0 f i libucrtd:atox.obj
 0001:000704f0       ??$parse_integer_from_string@_J_W$$T@__crt_strtox@@YA_JQB_W$$THQAU__crt_locale_pointers@@@Z 004714f0 f i libucrtd:atox.obj
 0001:00070540       ??0?$c_string_character_source@D@__crt_strtox@@QAE@QBDQAPBD@Z 00471540 f i libucrtd:atox.obj
 0001:00070580       ??0?$c_string_character_source@_W@__crt_strtox@@QAE@QB_WQAPB_W@Z 00471580 f i libucrtd:atox.obj
 0001:000705c0       ??1?$c_string_character_source@D@__crt_strtox@@QAE@XZ 004715c0 f i libucrtd:atox.obj
 0001:000705f0       ??1?$c_string_character_source@_W@__crt_strtox@@QAE@XZ 004715f0 f i libucrtd:atox.obj
 0001:00070620       ?get@?$c_string_character_source@D@__crt_strtox@@QAEDXZ 00471620 f i libucrtd:atox.obj
 0001:00070660       ?get@?$c_string_character_source@_W@__crt_strtox@@QAE_WXZ 00471660 f i libucrtd:atox.obj
 0001:000706a0       ?is_space@__crt_strtox@@YA_NDQAU__crt_locale_pointers@@@Z 004716a0 f i libucrtd:atox.obj
 0001:000706f0       ?is_space@__crt_strtox@@YA_N_WPAU__crt_locale_pointers@@@Z 004716f0 f i libucrtd:atox.obj
 0001:00070730       ?maximum_signed_value@__crt_strtox@@YAJK@Z 00471730 f i libucrtd:atox.obj
 0001:00070740       ?maximum_signed_value@__crt_strtox@@YA_J_K@Z 00471740 f i libucrtd:atox.obj
 0001:00070760       ?minimum_signed_value@__crt_strtox@@YAJK@Z 00471760 f i libucrtd:atox.obj
 0001:00070770       ?minimum_signed_value@__crt_strtox@@YA_J_K@Z 00471770 f i libucrtd:atox.obj
 0001:00070790       ?parse_digit@__crt_strtox@@YAID@Z 00471790 f i libucrtd:atox.obj
 0001:00070810       ?parse_digit@__crt_strtox@@YAI_W@Z 00471810 f i libucrtd:atox.obj
 0001:000708b0       ?restore_state@?$c_string_character_source@D@__crt_strtox@@QAE_NQBD@Z 004718b0 f i libucrtd:atox.obj
 0001:000708d0       ?restore_state@?$c_string_character_source@_W@__crt_strtox@@QAE_NQB_W@Z 004718d0 f i libucrtd:atox.obj
 0001:000708f0       ?save_state@?$c_string_character_source@D@__crt_strtox@@QBEPBDXZ 004718f0 f i libucrtd:atox.obj
 0001:00070910       ?save_state@?$c_string_character_source@_W@__crt_strtox@@QBEPB_WXZ 00471910 f i libucrtd:atox.obj
 0001:00070930       ?unget@?$c_string_character_source@D@__crt_strtox@@QAEXD@Z 00471930 f i libucrtd:atox.obj
 0001:00070a00       ?unget@?$c_string_character_source@_W@__crt_strtox@@QAEX_W@Z 00471a00 f i libucrtd:atox.obj
 0001:00070ad0       ?validate@?$c_string_character_source@D@__crt_strtox@@QBE_NXZ 00471ad0 f i libucrtd:atox.obj
 0001:00070b90       ?validate@?$c_string_character_source@_W@__crt_strtox@@QBE_NXZ 00471b90 f i libucrtd:atox.obj
 0001:00070c50       ?wide_character_to_digit@__crt_strtox@@YAH_W@Z 00471c50 f i libucrtd:atox.obj
 0001:00071040       __atoi64                   00472040 f   libucrtd:atox.obj
 0001:00071060       __atoi64_l                 00472060 f   libucrtd:atox.obj
 0001:00071090       __atoi_l                   00472090 f   libucrtd:atox.obj
 0001:000710c0       __atol_l                   004720c0 f   libucrtd:atox.obj
 0001:000710f0       __atoll_l                  004720f0 f   libucrtd:atox.obj
 0001:00071120       __wtoi                     00472120 f   libucrtd:atox.obj
 0001:00071140       __wtoi64                   00472140 f   libucrtd:atox.obj
 0001:00071160       __wtoi64_l                 00472160 f   libucrtd:atox.obj
 0001:00071190       __wtoi_l                   00472190 f   libucrtd:atox.obj
 0001:000711c0       __wtol                     004721c0 f   libucrtd:atox.obj
 0001:000711e0       __wtol_l                   004721e0 f   libucrtd:atox.obj
 0001:00071210       __wtoll                    00472210 f   libucrtd:atox.obj
 0001:00071230       __wtoll_l                  00472230 f   libucrtd:atox.obj
 0001:00071260       _atoi                      00472260 f   libucrtd:atox.obj
 0001:00071280       _atol                      00472280 f   libucrtd:atox.obj
 0001:000712a0       _atoll                     004722a0 f   libucrtd:atox.obj
 0001:000712c0       ??$__crt_fast_decode_pointer@P6AXPB_W00II@Z@@YAP6AXPB_W00II@ZQ6AX000II@Z@Z 004722c0 f i libucrtd:invalid_parameter.obj
 0001:00071300       ??$__crt_fast_encode_pointer@P6AXPB_W00II@Z@@YAP6AXPB_W00II@ZQ6AX000II@Z@Z 00472300 f i libucrtd:invalid_parameter.obj
 0001:00071340       ??$initialize_from_array@$$BY00Q6AXPB_W00II@Z@?$dual_state_global@P6AXPB_W00II@Z@__crt_state_management@@QAAXAAY00Q6AXPB_W00II@Z@Z 00472340 f i libucrtd:invalid_parameter.obj
 0001:000713a0       ?dangerous_get_state_array@?$dual_state_global@P6AXPB_W00II@Z@__crt_state_management@@QAEPAP6AXPB_W00II@ZXZ 004723a0 f i libucrtd:invalid_parameter.obj
 0001:000713c0       ?value@?$dual_state_global@P6AXPB_W00II@Z@__crt_state_management@@QAEAAP6AXPB_W00II@ZXZ 004723c0 f i libucrtd:invalid_parameter.obj
 0001:000713e0       ___acrt_call_reportfault   004723e0 f   libucrtd:invalid_parameter.obj
 0001:00071590       ___acrt_initialize_invalid_parameter_handler 00472590 f   libucrtd:invalid_parameter.obj
 0001:000715c0       __get_invalid_parameter_handler 004725c0 f   libucrtd:invalid_parameter.obj
 0001:000715f0       __get_thread_local_invalid_parameter_handler 004725f0 f   libucrtd:invalid_parameter.obj
 0001:00071620       __invalid_parameter        00472620 f   libucrtd:invalid_parameter.obj
 0001:00071710       __invalid_parameter_noinfo 00472710 f   libucrtd:invalid_parameter.obj
 0001:00071730       __invalid_parameter_noinfo_noreturn 00472730 f   libucrtd:invalid_parameter.obj
 0001:00071770       __invoke_watson            00472770 f   libucrtd:invalid_parameter.obj
 0001:000717c0       __set_invalid_parameter_handler 004727c0 f   libucrtd:invalid_parameter.obj
 0001:00071820       __set_thread_local_invalid_parameter_handler 00472820 f   libucrtd:invalid_parameter.obj
 0001:00071860       ___acrt_errno_from_os_error 00472860 f   libucrtd:errno.obj
 0001:00071900       ___acrt_errno_map_os_error 00472900 f   libucrtd:errno.obj
 0001:00071940       ___doserrno                00472940 f   libucrtd:errno.obj
 0001:00071970       __errno                    00472970 f   libucrtd:errno.obj
 0001:000719a0       __get_doserrno             004729a0 f   libucrtd:errno.obj
 0001:00071a50       __get_errno                00472a50 f   libucrtd:errno.obj
 0001:00071b00       __set_doserrno             00472b00 f   libucrtd:errno.obj
 0001:00071b40       __set_errno                00472b40 f   libucrtd:errno.obj
 0001:00071ba0       ??$?B$$A6GHPA_WKJ@Z@__crt_fast_encoded_nullptr_t@@QBEP6GHPA_WKJ@ZXZ 00472ba0 f i libucrtd:winapi_thunks.obj
 0001:00071cb0       ??$__crt_fast_decode_pointer@P6GHPA_WKJ@Z@@YAP6GHPA_WKJ@ZQ6GH0KJ@Z@Z 00472cb0 f i libucrtd:winapi_thunks.obj
 0001:00071cf0       ??$__crt_fast_encode_pointer@P6GHPA_WKJ@Z@@YAP6GHPA_WKJ@ZQ6GH0KJ@Z@Z 00472cf0 f i libucrtd:winapi_thunks.obj
 0001:000729b0       _GetCurrentThreadEffectiveToken 004739b0 f i libucrtd:winapi_thunks.obj
 0001:000729c0       ___acrt_AppPolicyGetProcessTerminationMethodInternal@4 004739c0 f   libucrtd:winapi_thunks.obj
 0001:00072a10       ___acrt_AppPolicyGetShowDeveloperDiagnosticInternal@4 00473a10 f   libucrtd:winapi_thunks.obj
 0001:00072a60       ___acrt_AppPolicyGetThreadInitializationTypeInternal@4 00473a60 f   libucrtd:winapi_thunks.obj
 0001:00072ab0       ___acrt_AppPolicyGetWindowingModelInternal@4 00473ab0 f   libucrtd:winapi_thunks.obj
 0001:00072b00       ___acrt_AreFileApisANSI@0  00473b00 f   libucrtd:winapi_thunks.obj
 0001:00072b40       ___acrt_CompareStringEx@36 00473b40 f   libucrtd:winapi_thunks.obj
 0001:00072be0       ___acrt_EnumSystemLocalesEx@16 00473be0 f   libucrtd:winapi_thunks.obj
 0001:00072c50       ___acrt_FlsAlloc@4         00473c50 f   libucrtd:winapi_thunks.obj
 0001:00072ca0       ___acrt_FlsFree@4          00473ca0 f   libucrtd:winapi_thunks.obj
 0001:00072cf0       ___acrt_FlsGetValue@4      00473cf0 f   libucrtd:winapi_thunks.obj
 0001:00072d40       ___acrt_FlsSetValue@8      00473d40 f   libucrtd:winapi_thunks.obj
 0001:00072da0       ___acrt_GetDateFormatEx@28 00473da0 f   libucrtd:winapi_thunks.obj
 0001:00072e30       ___acrt_GetEnabledXStateFeatures@0 00473e30 f   libucrtd:winapi_thunks.obj
 0001:00072e70       ___acrt_GetLocaleInfoEx@16 00473e70 f   libucrtd:winapi_thunks.obj
 0001:00072ef0       ___acrt_GetSystemTimePreciseAsFileTime@4 00473ef0 f   libucrtd:winapi_thunks.obj
 0001:00072f40       ___acrt_GetTimeFormatEx@24 00473f40 f   libucrtd:winapi_thunks.obj
 0001:00072fd0       ___acrt_GetUserDefaultLocaleName@8 00473fd0 f   libucrtd:winapi_thunks.obj
 0001:00073040       ___acrt_GetXStateFeaturesMask@8 00474040 f   libucrtd:winapi_thunks.obj
 0001:00073090       ___acrt_InitializeCriticalSectionEx@12 00474090 f   libucrtd:winapi_thunks.obj
 0001:000730f0       ___acrt_IsValidLocaleName@4 004740f0 f   libucrtd:winapi_thunks.obj
 0001:00073150       ___acrt_LCIDToLocaleName@16 00474150 f   libucrtd:winapi_thunks.obj
 0001:000731c0       ___acrt_LCMapStringEx@36   004741c0 f   libucrtd:winapi_thunks.obj
 0001:00073260       ___acrt_LocaleNameToLCID@8 00474260 f   libucrtd:winapi_thunks.obj
 0001:000732c0       ___acrt_LocateXStateFeature@12 004742c0 f   libucrtd:winapi_thunks.obj
 0001:00073320       ___acrt_MessageBoxA@16     00474320 f   libucrtd:winapi_thunks.obj
 0001:00073380       ___acrt_MessageBoxW@16     00474380 f   libucrtd:winapi_thunks.obj
 0001:000733e0       ___acrt_RoInitialize@4     004743e0 f   libucrtd:winapi_thunks.obj
 0001:00073430       ___acrt_RoUninitialize@0   00474430 f   libucrtd:winapi_thunks.obj
 0001:00073470       ___acrt_RtlGenRandom@8     00474470 f   libucrtd:winapi_thunks.obj
 0001:000734c0       ___acrt_SetThreadStackGuarantee@4 004744c0 f   libucrtd:winapi_thunks.obj
 0001:00073510       ___acrt_can_show_message_box 00474510 f   libucrtd:winapi_thunks.obj
 0001:00073550       ___acrt_can_use_vista_locale_apis 00474550 f   libucrtd:winapi_thunks.obj
 0001:00073580       ___acrt_can_use_xstate_apis 00474580 f   libucrtd:winapi_thunks.obj
 0001:000735b0       ___acrt_eagerly_load_locale_apis 004745b0 f   libucrtd:winapi_thunks.obj
 0001:00073600       ___acrt_get_parent_window  00474600 f   libucrtd:winapi_thunks.obj
 0001:00073680       ___acrt_initialize_winapi_thunks 00474680 f   libucrtd:winapi_thunks.obj
 0001:00073700       ___acrt_is_interactive     00474700 f   libucrtd:winapi_thunks.obj
 0001:000737d0       ___acrt_uninitialize_winapi_thunks 004747d0 f   libucrtd:winapi_thunks.obj
 0001:00073860       __fcloseall                00474860 f   libucrtd:closeall.obj
 0001:000739e0       ___acrt_stdio_free_buffer_nolock 004749e0 f   libucrtd:_freebuf.obj
 0001:00073e30       ___acrt_initialize_lowio   00474e30 f   libucrtd:ioinit.obj
 0001:00073ef0       ___acrt_uninitialize_lowio 00474ef0 f   libucrtd:ioinit.obj
 0001:000742c0       __close                    004752c0 f   libucrtd:close.obj
 0001:00074490       __close_nolock             00475490 f   libucrtd:close.obj
 0001:00074500       __fileno                   00475500 f   libucrtd:fileno.obj
 0001:000745d0       ??$?RU__crt_stdio_stream_data@@@__crt_internal_free_policy@@QBEXQBU__crt_stdio_stream_data@@@Z 004755d0 f i libucrtd:stream.obj
 0001:00074600       ??0?$__crt_unique_heap_ptr@U__crt_stdio_stream_data@@U__crt_internal_free_policy@@@@QAE@QAU__crt_stdio_stream_data@@@Z 00475600 f i libucrtd:stream.obj
 0001:00074620       ??0__crt_stdio_stream@@QAE@XZ 00475620 f i libucrtd:stream.obj
 0001:00074640       ??1?$__crt_unique_heap_ptr@U__crt_stdio_stream_data@@U__crt_internal_free_policy@@@@QAE@XZ 00475640 f i libucrtd:stream.obj
 0001:00074660       ?__acrt_stdio_allocate_stream@@YA?AV__crt_stdio_stream@@XZ 00475660 f   libucrtd:stream.obj
 0001:00074790       ?__acrt_stdio_free_stream@@YAXV__crt_stdio_stream@@@Z 00475790 f   libucrtd:stream.obj
 0001:00074830       ?deallocate@__crt_stdio_stream@@QAEXXZ 00475830 f i libucrtd:stream.obj
 0001:00074850       ?detach@?$__crt_unique_heap_ptr@U__crt_stdio_stream_data@@U__crt_internal_free_policy@@@@QAEPAU__crt_stdio_stream_data@@XZ 00475850 f i libucrtd:stream.obj
 0001:00074a10       ?lock@__crt_stdio_stream@@QBEXXZ 00475a10 f i libucrtd:stream.obj
 0001:00074a40       ?release@?$__crt_unique_heap_ptr@U__crt_stdio_stream_data@@U__crt_internal_free_policy@@@@QAEXXZ 00475a40 f i libucrtd:stream.obj
 0001:00074a70       ?try_allocate@__crt_stdio_stream@@QAE_NXZ 00475a70 f i libucrtd:stream.obj
 0001:00074ad0       ??$__acrt_stdio_parse_mode@D@@YA?AU__acrt_stdio_stream_mode@@QBD@Z 00475ad0 f i libucrtd:openfile.obj
 0001:00075560       ??$__acrt_stdio_parse_mode@_W@@YA?AU__acrt_stdio_stream_mode@@QB_W@Z 00476560 f i libucrtd:openfile.obj
 0001:000763d0       ??$tcsncmp@AAPBDAAY02$$CBDI@?$__crt_char_traits@D@@SAHAAPBDAAY02$$CBD$$QAI@Z 004773d0 f i libucrtd:openfile.obj
 0001:00076400       ??$tcsncmp@AAPB_WAAY02$$CB_WI@?$__crt_char_traits@_W@@SAHAAPB_WAAY02$$CB_W$$QAI@Z 00477400 f i libucrtd:openfile.obj
 0001:00076430       ??$tcsnicmp@AAPBDAAY04$$CBDI@?$__crt_char_traits@D@@SAHAAPBDAAY04$$CBD$$QAI@Z 00477430 f i libucrtd:openfile.obj
 0001:00076460       ??$tcsnicmp@AAPBDAAY06$$CBDI@?$__crt_char_traits@D@@SAHAAPBDAAY06$$CBD$$QAI@Z 00477460 f i libucrtd:openfile.obj
 0001:00076490       ??$tcsnicmp@AAPBDAAY07$$CBDI@?$__crt_char_traits@D@@SAHAAPBDAAY07$$CBD$$QAI@Z 00477490 f i libucrtd:openfile.obj
 0001:000764c0       ??$tcsnicmp@AAPB_WAAY04$$CB_WI@?$__crt_char_traits@_W@@SAHAAPB_WAAY04$$CB_W$$QAI@Z 004774c0 f i libucrtd:openfile.obj
 0001:000764f0       ??$tcsnicmp@AAPB_WAAY06$$CB_WI@?$__crt_char_traits@_W@@SAHAAPB_WAAY06$$CB_W$$QAI@Z 004774f0 f i libucrtd:openfile.obj
 0001:00076520       ??$tcsnicmp@AAPB_WAAY07$$CB_WI@?$__crt_char_traits@_W@@SAHAAPB_WAAY07$$CB_W$$QAI@Z 00477520 f i libucrtd:openfile.obj
 0001:00076550       ??$tsopen_s@PAHABQBDABHABHH@?$__crt_char_traits@D@@SAH$$QAPAHABQBDABH2$$QAH@Z 00477550 f i libucrtd:openfile.obj
 0001:00076590       ??$tsopen_s@PAHABQB_WABHABHH@?$__crt_char_traits@_W@@SAH$$QAPAHABQB_WABH2$$QAH@Z 00477590 f i libucrtd:openfile.obj
 0001:000765d0       ?__acrt_stdio_parse_mode_D@@YA_NAAU__acrt_stdio_stream_mode@@@Z 004775d0 f i libucrtd:openfile.obj
 0001:00076600       ?__acrt_stdio_parse_mode_N@@YA_NAAU__acrt_stdio_stream_mode@@@Z 00477600 f i libucrtd:openfile.obj
 0001:00076620       ?__acrt_stdio_parse_mode_R@@YA_NAAU__acrt_stdio_stream_mode@@AA_N@Z 00477620 f i libucrtd:openfile.obj
 0001:00076660       ?__acrt_stdio_parse_mode_S@@YA_NAAU__acrt_stdio_stream_mode@@AA_N@Z 00477660 f i libucrtd:openfile.obj
 0001:000766a0       ?__acrt_stdio_parse_mode_T@@YA_NAAU__acrt_stdio_stream_mode@@@Z 004776a0 f i libucrtd:openfile.obj
 0001:000766e0       ?__acrt_stdio_parse_mode_b@@YA_NAAU__acrt_stdio_stream_mode@@@Z 004776e0 f i libucrtd:openfile.obj
 0001:00076720       ?__acrt_stdio_parse_mode_c@@YA_NAAU__acrt_stdio_stream_mode@@AA_N@Z 00477720 f i libucrtd:openfile.obj
 0001:00076760       ?__acrt_stdio_parse_mode_n@@YA_NAAU__acrt_stdio_stream_mode@@AA_N@Z 00477760 f i libucrtd:openfile.obj
 0001:000767a0       ?__acrt_stdio_parse_mode_plus@@YA_NAAU__acrt_stdio_stream_mode@@AA_N@Z 004777a0 f i libucrtd:openfile.obj
 0001:00076820       ?__acrt_stdio_parse_mode_t@@YA_NAAU__acrt_stdio_stream_mode@@@Z 00477820 f i libucrtd:openfile.obj
 0001:00076860       ?__acrt_stdio_parse_mode_x@@YA_NAAU__acrt_stdio_stream_mode@@@Z 00477860 f i libucrtd:openfile.obj
 0001:000768a0       __openfile                 004778a0 f   libucrtd:openfile.obj
 0001:000768e0       __wopenfile                004778e0 f   libucrtd:openfile.obj
 0001:00077340       ___acrt_stdio_flush_and_write_narrow_nolock 00478340 f   libucrtd:_flsbuf.obj
 0001:00077370       ___acrt_stdio_flush_and_write_wide_nolock 00478370 f   libucrtd:_flsbuf.obj
 0001:00078010       __read                     00479010 f   libucrtd:read.obj
 0001:000783b0       __read_nolock              004793b0 f   libucrtd:read.obj
 0001:00079910       ___acrt_stdio_refill_and_read_narrow_nolock 0047a910 f   libucrtd:_filbuf.obj
 0001:00079940       ___acrt_stdio_refill_and_read_wide_nolock 0047a940 f   libucrtd:_filbuf.obj
 0001:0007a2b0       __lseek                    0047b2b0 f   libucrtd:lseek.obj
 0001:0007a2e0       __lseek_nolock             0047b2e0 f   libucrtd:lseek.obj
 0001:0007a310       __lseeki64                 0047b310 f   libucrtd:lseek.obj
 0001:0007a340       __lseeki64_nolock          0047b340 f   libucrtd:lseek.obj
 0001:0007a440       ___acrt_MultiByteToWideChar 0047b440 f   libucrtd:multibytetowidechar.obj
 0001:0007a4a0       ??$?RU__acrt_ptd@@@__crt_internal_free_policy@@QBEXQBU__acrt_ptd@@@Z 0047b4a0 f i libucrtd:per_thread_data.obj
 0001:0007aa60       ??0?$__crt_unique_heap_ptr@U__acrt_ptd@@U__crt_internal_free_policy@@@@QAE@QAU__acrt_ptd@@@Z 0047ba60 f i libucrtd:per_thread_data.obj
 0001:0007aa80       ??0__crt_scoped_get_last_error_reset@@QAE@XZ 0047ba80 f i libucrtd:per_thread_data.obj
 0001:0007aab0       ??1?$__crt_unique_heap_ptr@U__acrt_ptd@@U__crt_internal_free_policy@@@@QAE@XZ 0047bab0 f i libucrtd:per_thread_data.obj
 0001:0007aad0       ??1__crt_scoped_get_last_error_reset@@QAE@XZ 0047bad0 f i libucrtd:per_thread_data.obj
 0001:0007aaf0       ??B?$__crt_unique_heap_ptr@U__acrt_ptd@@U__crt_internal_free_policy@@@@QBE_NXZ 0047baf0 f i libucrtd:per_thread_data.obj
 0001:0007aeb0       ?dangerous_get_state_array@?$dual_state_global@PAU__crt_locale_data@@@__crt_state_management@@QAEPAPAU__crt_locale_data@@XZ 0047beb0 f i libucrtd:per_thread_data.obj
 0001:0007b090       ?detach@?$__crt_unique_heap_ptr@U__acrt_ptd@@U__crt_internal_free_policy@@@@QAEPAU__acrt_ptd@@XZ 0047c090 f i libucrtd:per_thread_data.obj
 0001:0007b0c0       ?get@?$__crt_unique_heap_ptr@U__acrt_ptd@@U__crt_internal_free_policy@@@@QBEPAU__acrt_ptd@@XZ 0047c0c0 f i libucrtd:per_thread_data.obj
 0001:0007b0e0       ?get_current_state_index@__crt_state_management@@YAIABV__crt_scoped_get_last_error_reset@@@Z 0047c0e0 f i libucrtd:per_thread_data.obj
 0001:0007b2a0       ?is_valid@?$__crt_unique_heap_ptr@U__acrt_ptd@@U__crt_internal_free_policy@@@@QBE_NXZ 0047c2a0 f i libucrtd:per_thread_data.obj
 0001:0007b2e0       ?release@?$__crt_unique_heap_ptr@U__acrt_ptd@@U__crt_internal_free_policy@@@@QAEXXZ 0047c2e0 f i libucrtd:per_thread_data.obj
 0001:0007b3f0       ___acrt_freeptd            0047c3f0 f   libucrtd:per_thread_data.obj
 0001:0007b430       ___acrt_getptd             0047c430 f   libucrtd:per_thread_data.obj
 0001:0007b460       ___acrt_getptd_head        0047c460 f   libucrtd:per_thread_data.obj
 0001:0007b490       ___acrt_getptd_noexit      0047c490 f   libucrtd:per_thread_data.obj
 0001:0007b4a0       ___acrt_initialize_ptd     0047c4a0 f   libucrtd:per_thread_data.obj
 0001:0007b4f0       ___acrt_uninitialize_ptd   0047c4f0 f   libucrtd:per_thread_data.obj
 0001:0007b520       ___threadhandle            0047c520 f   libucrtd:per_thread_data.obj
 0001:0007b530       ___threadid                0047c530 f   libucrtd:per_thread_data.obj
 0001:0007b540       ?value@?$dual_state_global@PAU__crt_multibyte_data@@@__crt_state_management@@QAEAAPAU__crt_multibyte_data@@XZ 0047c540 f i libucrtd:locale_update.obj
 0001:0007b560       ___acrt_update_locale_info 0047c560 f   libucrtd:locale_update.obj
 0001:0007b5b0       ___acrt_update_multibyte_info 0047c5b0 f   libucrtd:locale_update.obj
 0001:0007b600       __wremove                  0047c600 f   libucrtd:wunlink.obj
 0001:0007b640       __wunlink                  0047c640 f   libucrtd:wunlink.obj
 0001:0007b660       ___p___mb_cur_max          0047c660 f   libucrtd:nlsdata.obj
 0001:0007b6a0       __wrename                  0047c6a0 f   libucrtd:wrename.obj
 0001:0007b700       ___isascii                 0047c700 f i libucrtd:_ctype.obj
 0001:0007b730       ___iscsym                  0047c730 f i libucrtd:_ctype.obj
 0001:0007b780       ___iscsymf                 0047c780 f i libucrtd:_ctype.obj
 0001:0007b7c0       ___toascii                 0047c7c0 f i libucrtd:_ctype.obj
 0001:0007b7d0       __isalnum_l                0047c7d0 f i libucrtd:_ctype.obj
 0001:0007b820       __isalpha_l                0047c820 f i libucrtd:_ctype.obj
 0001:0007b870       __isblank_l                0047c870 f i libucrtd:_ctype.obj
 0001:0007b8e0       __iscntrl_l                0047c8e0 f i libucrtd:_ctype.obj
 0001:0007b930       __iscsym_l                 0047c930 f i libucrtd:_ctype.obj
 0001:0007b980       __iscsymf_l                0047c980 f i libucrtd:_ctype.obj
 0001:0007b9d0       __isdigit_l                0047c9d0 f i libucrtd:_ctype.obj
 0001:0007ba20       __isgraph_l                0047ca20 f i libucrtd:_ctype.obj
 0001:0007ba70       __islower_l                0047ca70 f i libucrtd:_ctype.obj
 0001:0007bac0       __isprint_l                0047cac0 f i libucrtd:_ctype.obj
 0001:0007bb10       __ispunct_l                0047cb10 f i libucrtd:_ctype.obj
 0001:0007bb60       __isspace_l                0047cb60 f i libucrtd:_ctype.obj
 0001:0007bbb0       __isupper_l                0047cbb0 f i libucrtd:_ctype.obj
 0001:0007bc00       __isxdigit_l               0047cc00 f i libucrtd:_ctype.obj
 0001:0007bc50       _isalnum                   0047cc50 f i libucrtd:_ctype.obj
 0001:0007bca0       _isalpha                   0047cca0 f i libucrtd:_ctype.obj
 0001:0007bcf0       _isblank                   0047ccf0 f i libucrtd:_ctype.obj
 0001:0007bd60       _iscntrl                   0047cd60 f i libucrtd:_ctype.obj
 0001:0007bdb0       _isdigit                   0047cdb0 f i libucrtd:_ctype.obj
 0001:0007be00       _isgraph                   0047ce00 f i libucrtd:_ctype.obj
 0001:0007be50       _islower                   0047ce50 f i libucrtd:_ctype.obj
 0001:0007bea0       _isprint                   0047cea0 f i libucrtd:_ctype.obj
 0001:0007bef0       _ispunct                   0047cef0 f i libucrtd:_ctype.obj
 0001:0007bf40       _isspace                   0047cf40 f i libucrtd:_ctype.obj
 0001:0007bf90       _isupper                   0047cf90 f i libucrtd:_ctype.obj
 0001:0007bfe0       _isxdigit                  0047cfe0 f i libucrtd:_ctype.obj
 0001:0007c030       __CrtGetDebugFillThreshold 0047d030 f   libucrtd:debug_fill_threshold.obj
 0001:0007c040       __CrtSetDebugFillThreshold 0047d040 f   libucrtd:debug_fill_threshold.obj
 0001:0007c070       ??$make_c_string_character_source@DPAPAD@__crt_strtox@@YA?AV?$c_string_character_source@D@0@QBDQAPAD@Z 0047d070 f i libucrtd:strtox.obj
 0001:0007c090       ??$make_c_string_character_source@_WPAPA_W@__crt_strtox@@YA?AV?$c_string_character_source@_W@0@QB_WQAPA_W@Z 0047d090 f i libucrtd:strtox.obj
 0001:0007c0b0       ??$parse_integer_from_string@JDPAPAD@__crt_strtox@@YAJQBDQAPADHQAU__crt_locale_pointers@@@Z 0047d0b0 f i libucrtd:strtox.obj
 0001:0007c100       ??$parse_integer_from_string@J_WPAPA_W@__crt_strtox@@YAJQB_WQAPA_WHQAU__crt_locale_pointers@@@Z 0047d100 f i libucrtd:strtox.obj
 0001:0007c150       ??$parse_integer_from_string@KDPAPAD@__crt_strtox@@YAKQBDQAPADHQAU__crt_locale_pointers@@@Z 0047d150 f i libucrtd:strtox.obj
 0001:0007c1a0       ??$parse_integer_from_string@K_WPAPA_W@__crt_strtox@@YAKQB_WQAPA_WHQAU__crt_locale_pointers@@@Z 0047d1a0 f i libucrtd:strtox.obj
 0001:0007c1f0       ??$parse_integer_from_string@_JDPAPAD@__crt_strtox@@YA_JQBDQAPADHQAU__crt_locale_pointers@@@Z 0047d1f0 f i libucrtd:strtox.obj
 0001:0007c240       ??$parse_integer_from_string@_J_WPAPA_W@__crt_strtox@@YA_JQB_WQAPA_WHQAU__crt_locale_pointers@@@Z 0047d240 f i libucrtd:strtox.obj
 0001:0007c290       ??$parse_integer_from_string@_KDPAPAD@__crt_strtox@@YA_KQBDQAPADHQAU__crt_locale_pointers@@@Z 0047d290 f i libucrtd:strtox.obj
 0001:0007c2e0       ??$parse_integer_from_string@_K_WPAPA_W@__crt_strtox@@YA_KQB_WQAPA_WHQAU__crt_locale_pointers@@@Z 0047d2e0 f i libucrtd:strtox.obj
 0001:0007c330       __strtoi64                 0047d330 f   libucrtd:strtox.obj
 0001:0007c360       __strtoi64_l               0047d360 f   libucrtd:strtox.obj
 0001:0007c390       __strtoimax_l              0047d390 f   libucrtd:strtox.obj
 0001:0007c3c0       __strtol_l                 0047d3c0 f   libucrtd:strtox.obj
 0001:0007c3f0       __strtoll_l                0047d3f0 f   libucrtd:strtox.obj
 0001:0007c420       __strtoui64                0047d420 f   libucrtd:strtox.obj
 0001:0007c450       __strtoui64_l              0047d450 f   libucrtd:strtox.obj
 0001:0007c480       __strtoul_l                0047d480 f   libucrtd:strtox.obj
 0001:0007c4b0       __strtoull_l               0047d4b0 f   libucrtd:strtox.obj
 0001:0007c4e0       __strtoumax_l              0047d4e0 f   libucrtd:strtox.obj
 0001:0007c510       __wcstoi64                 0047d510 f   libucrtd:strtox.obj
 0001:0007c540       __wcstoi64_l               0047d540 f   libucrtd:strtox.obj
 0001:0007c570       __wcstoimax_l              0047d570 f   libucrtd:strtox.obj
 0001:0007c5a0       __wcstol_l                 0047d5a0 f   libucrtd:strtox.obj
 0001:0007c5d0       __wcstoll_l                0047d5d0 f   libucrtd:strtox.obj
 0001:0007c600       __wcstoui64                0047d600 f   libucrtd:strtox.obj
 0001:0007c630       __wcstoui64_l              0047d630 f   libucrtd:strtox.obj
 0001:0007c660       __wcstoul_l                0047d660 f   libucrtd:strtox.obj
 0001:0007c690       __wcstoull_l               0047d690 f   libucrtd:strtox.obj
 0001:0007c6c0       __wcstoumax_l              0047d6c0 f   libucrtd:strtox.obj
 0001:0007c6f0       _strtoimax                 0047d6f0 f   libucrtd:strtox.obj
 0001:0007c720       _strtol                    0047d720 f   libucrtd:strtox.obj
 0001:0007c750       _strtoll                   0047d750 f   libucrtd:strtox.obj
 0001:0007c780       _strtoul                   0047d780 f   libucrtd:strtox.obj
 0001:0007c7b0       _strtoull                  0047d7b0 f   libucrtd:strtox.obj
 0001:0007c7e0       _strtoumax                 0047d7e0 f   libucrtd:strtox.obj
 0001:0007c810       _wcstoimax                 0047d810 f   libucrtd:strtox.obj
 0001:0007c840       _wcstol                    0047d840 f   libucrtd:strtox.obj
 0001:0007c870       _wcstoll                   0047d870 f   libucrtd:strtox.obj
 0001:0007c8a0       _wcstoul                   0047d8a0 f   libucrtd:strtox.obj
 0001:0007c8d0       _wcstoull                  0047d8d0 f   libucrtd:strtox.obj
 0001:0007c900       _wcstoumax                 0047d900 f   libucrtd:strtox.obj
 0001:0007c930       __mbtowc_l                 0047d930 f   libucrtd:mbtowc.obj
 0001:0007cd10       _mbtowc                    0047dd10 f   libucrtd:mbtowc.obj
 0001:0007cd40       __wctomb_l                 0047dd40 f   libucrtd:wctomb.obj
 0001:0007cde0       __wctomb_s_l               0047dde0 f   libucrtd:wctomb.obj
 0001:0007d290       _wctomb                    0047e290 f   libucrtd:wctomb.obj
 0001:0007d2f0       _wctomb_s                  0047e2f0 f   libucrtd:wctomb.obj
 0001:0007e360       ??1?$__crt_simd_cleanup_guard@$00@@QAE@XZ 0047f360 f i libucrtd:strnlen.obj
 0001:0007e380       ??1?$__crt_simd_cleanup_guard@$0A@@@QAE@XZ 0047f380 f i libucrtd:strnlen.obj
 0001:0007e390       ?compare_equals@?$__crt_simd_traits@$00E@@SA?AT__m256i@@T2@0@Z 0047f390 f i libucrtd:strnlen.obj
 0001:0007e3e0       ?compare_equals@?$__crt_simd_traits@$00G@@SA?AT__m256i@@T2@0@Z 0047f3e0 f i libucrtd:strnlen.obj
 0001:0007e430       ?compare_equals@?$__crt_simd_traits@$0A@E@@SA?AT__m128i@@T2@0@Z 0047f430 f i libucrtd:strnlen.obj
 0001:0007e480       ?compare_equals@?$__crt_simd_traits@$0A@G@@SA?AT__m128i@@T2@0@Z 0047f480 f i libucrtd:strnlen.obj
 0001:0007e4d0       ?compute_byte_mask@?$__crt_simd_pack_traits@$00@@SAHT__m256i@@@Z 0047f4d0 f i libucrtd:strnlen.obj
 0001:0007e510       ?compute_byte_mask@?$__crt_simd_pack_traits@$0A@@@SAHT__m128i@@@Z 0047f510 f i libucrtd:strnlen.obj
 0001:0007e550       ?get_zero_pack@?$__crt_simd_pack_traits@$00@@SA?AT__m256i@@XZ 0047f550 f i libucrtd:strnlen.obj
 0001:0007e590       ?get_zero_pack@?$__crt_simd_pack_traits@$0A@@@SA?AT__m128i@@XZ 0047f590 f i libucrtd:strnlen.obj
 0001:0007e5d0       _strnlen                   0047f5d0 f   libucrtd:strnlen.obj
 0001:0007e5f0       _wcslen                    0047f5f0 f   libucrtd:strnlen.obj
 0001:0007e610       _wcsnlen                   0047f610 f   libucrtd:strnlen.obj
 0001:0007e630       ?__acrt_fp_classify@@YA?AW4__acrt_fp_class@@ABN@Z 0047f630 f i libucrtd:cvt.obj
 0001:0007e790       ?__acrt_fp_is_negative@@YA_NABN@Z 0047f790 f i libucrtd:cvt.obj
 0001:0007fc80       ?strrchr@@YAPADQADH@Z      00480c80 f i libucrtd:cvt.obj
 0001:0007fca0       ___acrt_fp_format          00480ca0 f   libucrtd:cvt.obj
 0001:00080250       __fputwc_nolock            00481250 f   libucrtd:fputwc.obj
 0001:000804b0       __fputwchar                004814b0 f   libucrtd:fputwc.obj
 0001:000804e0       __putwc_nolock             004814e0 f   libucrtd:fputwc.obj
 0001:00080500       _fputwc                    00481500 f   libucrtd:fputwc.obj
 0001:00080650       _putwc                     00481650 f   libucrtd:fputwc.obj
 0001:00080670       _putwchar                  00481670 f   libucrtd:fputwc.obj
 0001:00080690       __get_printf_count_output  00481690 f   libucrtd:printf_count_output.obj
 0001:000806d0       __set_printf_count_output  004816d0 f   libucrtd:printf_count_output.obj
 0001:00080740       ?has_temporary_buffer@__crt_stdio_stream@@QBE_NXZ 00481740 f i libucrtd:_sftbuf.obj
 0001:00080760       ___acrt_stdio_begin_temporary_buffering_nolock 00481760 f   libucrtd:_sftbuf.obj
 0001:00080990       ___acrt_stdio_end_temporary_buffering_nolock 00481990 f   libucrtd:_sftbuf.obj
 0001:00080a30       ___acrt_initialize_locks   00481a30 f   libucrtd:locks.obj
 0001:00080ab0       ___acrt_lock               00481ab0 f   libucrtd:locks.obj
 0001:00080ad0       ___acrt_uninitialize_locks 00481ad0 f   libucrtd:locks.obj
 0001:00080b30       ___acrt_unlock             00481b30 f   libucrtd:locks.obj
 0001:00080b50       __lock_locales             00481b50 f   libucrtd:locks.obj
 0001:00080b70       __unlock_locales           00481b70 f   libucrtd:locks.obj
 0001:00080fa0       ___acrt_get_begin_thread_init_policy 00481fa0 f   libucrtd:win_policies.obj
 0001:00080fc0       ___acrt_get_developer_information_policy 00481fc0 f   libucrtd:win_policies.obj
 0001:00080fe0       ___acrt_get_process_end_policy 00481fe0 f   libucrtd:win_policies.obj
 0001:00081000       ___acrt_get_windowing_model_policy 00482000 f   libucrtd:win_policies.obj
 0001:000812b0       __commit                   004822b0 f   libucrtd:commit.obj
 0001:00082ef0       __write                    00483ef0 f   libucrtd:write.obj
 0001:000831d0       __write_nolock             004841d0 f   libucrtd:write.obj
 0001:00083730       ??$__crt_time_is_leap_year@H@@YA_NH@Z 00484730 f i libucrtd:asctime.obj
 0001:00084cb0       ?__crt_get_2digit_year@@YAHH@Z 00485cb0 f i libucrtd:asctime.obj
 0001:00084cd0       ?__crt_get_century@@YAHH@Z 00485cd0 f i libucrtd:asctime.obj
 0001:00084cf0       ?__crt_time_is_day_valid@@YA_NHHH@Z 00485cf0 f i libucrtd:asctime.obj
 0001:00084dd0       __wasctime                 00485dd0 f   libucrtd:asctime.obj
 0001:00084df0       __wasctime_s               00485df0 f   libucrtd:asctime.obj
 0001:00084e20       _asctime                   00485e20 f   libucrtd:asctime.obj
 0001:00084e40       _asctime_s                 00485e40 f   libucrtd:asctime.obj
 0001:00085b90       ??$gmtime_s@ABQAUtm@@ABQBJ@?$__crt_integer_traits@J@@SAHABQAUtm@@ABQBJ@Z 00486b90 f i libucrtd:localtime.obj
 0001:00085bc0       ??$gmtime_s@ABQAUtm@@ABQB_J@?$__crt_integer_traits@_J@@SAHABQAUtm@@ABQB_J@Z 00486bc0 f i libucrtd:localtime.obj
 0001:00085bf0       ??$gmtime_s@ABQAUtm@@PAJ@?$__crt_integer_traits@J@@SAHABQAUtm@@$$QAPAJ@Z 00486bf0 f i libucrtd:localtime.obj
 0001:00085c20       ??$gmtime_s@ABQAUtm@@PA_J@?$__crt_integer_traits@_J@@SAHABQAUtm@@$$QAPA_J@Z 00486c20 f i libucrtd:localtime.obj
 0001:00085c50       ??$localtime_s@ABQAUtm@@ABQBJ@?$__crt_integer_traits@J@@SAHABQAUtm@@ABQBJ@Z 00486c50 f i libucrtd:localtime.obj
 0001:00085c80       ??$localtime_s@ABQAUtm@@ABQB_J@?$__crt_integer_traits@_J@@SAHABQAUtm@@ABQB_J@Z 00486c80 f i libucrtd:localtime.obj
 0001:00085cb0       __localtime32              00486cb0 f   libucrtd:localtime.obj
 0001:00085cd0       __localtime32_s            00486cd0 f   libucrtd:localtime.obj
 0001:00085cf0       __localtime64              00486cf0 f   libucrtd:localtime.obj
 0001:00085d10       __localtime64_s            00486d10 f   libucrtd:localtime.obj
 0001:00085d30       ___iswcsym                 00486d30 f i libucrtd:_wctype.obj
 0001:00085d80       ___iswcsymf                00486d80 f i libucrtd:_wctype.obj
 0001:00085dd0       __isleadbyte_l             00486dd0 f i libucrtd:_wctype.obj
 0001:00085e30       __iswalnum_l               00486e30 f i libucrtd:_wctype.obj
 0001:00085e50       __iswalpha_l               00486e50 f i libucrtd:_wctype.obj
 0001:00085e70       __iswblank_l               00486e70 f i libucrtd:_wctype.obj
 0001:00085eb0       __iswcntrl_l               00486eb0 f i libucrtd:_wctype.obj
 0001:00085ed0       __iswcsym_l                00486ed0 f i libucrtd:_wctype.obj
 0001:00085f20       __iswcsymf_l               00486f20 f i libucrtd:_wctype.obj
 0001:00085f70       __iswdigit_l               00486f70 f i libucrtd:_wctype.obj
 0001:00085f90       __iswgraph_l               00486f90 f i libucrtd:_wctype.obj
 0001:00085fb0       __iswlower_l               00486fb0 f i libucrtd:_wctype.obj
 0001:00085fd0       __iswprint_l               00486fd0 f i libucrtd:_wctype.obj
 0001:00085ff0       __iswpunct_l               00486ff0 f i libucrtd:_wctype.obj
 0001:00086010       __iswspace_l               00487010 f i libucrtd:_wctype.obj
 0001:00086030       __iswupper_l               00487030 f i libucrtd:_wctype.obj
 0001:00086050       __iswxdigit_l              00487050 f i libucrtd:_wctype.obj
 0001:00086070       _isleadbyte                00487070 f i libucrtd:_wctype.obj
 0001:00086090       _iswalnum                  00487090 f i libucrtd:_wctype.obj
 0001:000860b0       _iswalpha                  004870b0 f i libucrtd:_wctype.obj
 0001:000860d0       _iswascii                  004870d0 f i libucrtd:_wctype.obj
 0001:00086110       _iswblank                  00487110 f i libucrtd:_wctype.obj
 0001:00086150       _iswcntrl                  00487150 f i libucrtd:_wctype.obj
 0001:00086170       _iswdigit                  00487170 f i libucrtd:_wctype.obj
 0001:00086190       _iswgraph                  00487190 f i libucrtd:_wctype.obj
 0001:000861b0       _iswlower                  004871b0 f i libucrtd:_wctype.obj
 0001:000861d0       _iswprint                  004871d0 f i libucrtd:_wctype.obj
 0001:000861f0       _iswpunct                  004871f0 f i libucrtd:_wctype.obj
 0001:00086210       _iswspace                  00487210 f i libucrtd:_wctype.obj
 0001:00086230       _iswupper                  00487230 f i libucrtd:_wctype.obj
 0001:00086250       _iswxdigit                 00487250 f i libucrtd:_wctype.obj
 0001:00086270       __chvalidator              00487270 f   libucrtd:isctype.obj
 0001:000862d0       __chvalidator_l            004872d0 f   libucrtd:isctype.obj
 0001:00086370       __isctype                  00487370 f   libucrtd:isctype.obj
 0001:000863c0       __isctype_l                004873c0 f   libucrtd:isctype.obj
 0001:000865a0       ??0?$__crt_scoped_stack_ptr@_W@@QAE@U?$__crt_scoped_stack_ptr_tag@_W@@@Z 004875a0 f i libucrtd:lcmapstringa.obj
 0001:000865c0       ??0?$__crt_scoped_stack_ptr_tag@_W@@QAE@QA_W@Z 004875c0 f i libucrtd:lcmapstringa.obj
 0001:000865e0       ??1?$__crt_scoped_stack_ptr@_W@@QAE@XZ 004875e0 f i libucrtd:lcmapstringa.obj
 0001:00086610       ??B?$__crt_scoped_stack_ptr@_W@@QBE_NXZ 00487610 f i libucrtd:lcmapstringa.obj
 0001:00086b00       ?get@?$__crt_scoped_stack_ptr@_W@@QBEPA_WXZ 00487b00 f i libucrtd:lcmapstringa.obj
 0001:00086b20       __MallocaComputeSize       00487b20 f i libucrtd:lcmapstringa.obj
 0001:00086b60       __MarkAllocaS              00487b60 f i libucrtd:lcmapstringa.obj
 0001:00086b90       ___acrt_LCMapStringA       00487b90 f   libucrtd:lcmapstringa.obj
 0001:00086c00       __freea_crt                00487c00 f i libucrtd:lcmapstringa.obj
 0001:00086c90       __add_exp                  00487c90 f   libucrtd:util.obj
 0001:00086cd0       __decomp                   00487cd0 f   libucrtd:util.obj
 0001:00086e40       __get_exp                  00487e40 f   libucrtd:util.obj
 0001:00086e80       __set_bexp                 00487e80 f   libucrtd:util.obj
 0001:00086ec0       __set_exp                  00487ec0 f   libucrtd:util.obj
 0001:00086f10       __sptype                   00487f10 f   libucrtd:util.obj
 0001:00086fb0       ___clrfp_sse2              00487fb0 f   libucrtd:fpctrl.obj
 0001:00087000       ___ctrlfp_sse2             00488000 f   libucrtd:fpctrl.obj
 0001:00087070       ___fclrf_sse2              00488070 f   libucrtd:fpctrl.obj
 0001:000870a0       ___get_fpsr_sse2           004880a0 f   libucrtd:fpctrl.obj
 0001:000870d0       ___set_fpsr_sse2           004880d0 f   libucrtd:fpctrl.obj
 0001:000871e0       ___set_statfp_sse2         004881e0 f   libucrtd:fpctrl.obj
 0001:00087220       ___statfp_sse2             00488220 f   libucrtd:fpctrl.obj
 0001:00087260       __clrfp                    00488260 f   libucrtd:fpctrl.obj
 0001:00087280       __ctrlfp                   00488280 f   libucrtd:fpctrl.obj
 0001:000872c0       __set_statfp               004882c0 f   libucrtd:fpctrl.obj
 0001:00087340       __statfp                   00488340 f   libucrtd:fpctrl.obj
 0001:00087360       __set_error_mode           00488360 f   libucrtd:set_error_mode.obj
 0001:00087980       _wcscat_s                  00488980 f   libucrtd:wcscat_s.obj
 0001:00087d90       _wcscpy_s                  00488d90 f   libucrtd:wcscpy_s.obj
 0001:000882f0       _wcsncpy_s                 004892f0 f   libucrtd:wcsncpy_s.obj
 0001:000885e0       ??$message_box@$$TABQBDABQBDK@?$__crt_char_traits@D@@SAH$$QA$$TABQBD1$$QAK@Z 004895e0 f i libucrtd:crtmbox.obj
 0001:00088610       ??$message_box@$$TABQB_WABQB_WK@?$__crt_char_traits@_W@@SAH$$QA$$TABQB_W1$$QAK@Z 00489610 f i libucrtd:crtmbox.obj
 0001:00088640       ??$message_box@PAUHWND__@@ABQBDABQBDABI@?$__crt_char_traits@D@@SAH$$QAPAUHWND__@@ABQBD1ABI@Z 00489640 f i libucrtd:crtmbox.obj
 0001:00088670       ??$message_box@PAUHWND__@@ABQB_WABQB_WABI@?$__crt_char_traits@_W@@SAH$$QAPAUHWND__@@ABQB_W1ABI@Z 00489670 f i libucrtd:crtmbox.obj
 0001:000886a0       ??$output_debug_string@ABQBD@?$__crt_char_traits@D@@SAXABQBD@Z 004896a0 f i libucrtd:crtmbox.obj
 0001:000886c0       ??$output_debug_string@ABQB_W@?$__crt_char_traits@_W@@SAXABQB_W@Z 004896c0 f i libucrtd:crtmbox.obj
 0001:000886e0       ___acrt_show_narrow_message_box 004896e0 f   libucrtd:crtmbox.obj
 0001:00088710       ___acrt_show_wide_message_box 00489710 f   libucrtd:crtmbox.obj
 0001:00088a80       ??$__acrt_wcs_to_mbs_cp@U__crt_win32_buffer_internal_dynamic_resizing@@@@YAHQB_WAAV?$__crt_win32_buffer@DU__crt_win32_buffer_internal_dynamic_resizing@@@@I@Z 00489a80 f i libucrtd:argv_wildcards.obj
 0001:00089d90       ??$tcsncpy_s@AAPADIAAPADABI@?$__crt_char_traits@D@@SAHAAPAD$$QAI0ABI@Z 0048ad90 f i libucrtd:argv_wildcards.obj
 0001:00089dc0       ??$tcsncpy_s@AAPA_WIAAPA_WABI@?$__crt_char_traits@_W@@SAHAAPA_W$$QAI0ABI@Z 0048adc0 f i libucrtd:argv_wildcards.obj
 0001:00089df0       ??$tcsncpy_s@PADABIABQBDABI@?$__crt_char_traits@D@@SAH$$QAPADABIABQBD1@Z 0048adf0 f i libucrtd:argv_wildcards.obj
 0001:00089e20       ??$tcsncpy_s@PADIABQBDABI@?$__crt_char_traits@D@@SAH$$QAPAD$$QAIABQBDABI@Z 0048ae20 f i libucrtd:argv_wildcards.obj
 0001:00089e50       ??$tcsncpy_s@PA_WABIABQB_WABI@?$__crt_char_traits@_W@@SAH$$QAPA_WABIABQB_W1@Z 0048ae50 f i libucrtd:argv_wildcards.obj
 0001:00089e80       ??$tcsncpy_s@PA_WIABQB_WABI@?$__crt_char_traits@_W@@SAH$$QAPA_W$$QAIABQB_WABI@Z 0048ae80 f i libucrtd:argv_wildcards.obj
 0001:00089eb0       ??$tcspbrk@AAPADAAY02$$CBD@?$__crt_char_traits@D@@SAPADAAPADAAY02$$CBD@Z 0048aeb0 f i libucrtd:argv_wildcards.obj
 0001:00089ed0       ??$tcspbrk@AAPA_WAAY02$$CB_W@?$__crt_char_traits@_W@@SAPA_WAAPA_WAAY02$$CB_W@Z 0048aed0 f i libucrtd:argv_wildcards.obj
 0001:00089ef0       ??0?$__crt_unique_handle_t@U__crt_findfile_traits@@@@QAE@QAX@Z 0048aef0 f i libucrtd:argv_wildcards.obj
 0001:00089f10       ??0?$__crt_win32_buffer@DU__crt_win32_buffer_internal_dynamic_resizing@@@@QAE@XZ 0048af10 f i libucrtd:argv_wildcards.obj
 0001:00089ff0       ??1?$__crt_unique_handle_t@U__crt_findfile_traits@@@@QAE@XZ 0048aff0 f i libucrtd:argv_wildcards.obj
 0001:0008a010       ??1?$__crt_win32_buffer@DU__crt_win32_buffer_internal_dynamic_resizing@@@@QAE@XZ 0048b010 f i libucrtd:argv_wildcards.obj
 0001:0008a320       ?_deallocate@?$__crt_win32_buffer@DU__crt_win32_buffer_internal_dynamic_resizing@@@@AAEXXZ 0048b320 f i libucrtd:argv_wildcards.obj
 0001:0008a370       ?allocate@?$__crt_win32_buffer@DU__crt_win32_buffer_internal_dynamic_resizing@@@@QAEHI@Z 0048b370 f i libucrtd:argv_wildcards.obj
 0001:0008a510       ?capacity@?$__crt_win32_buffer@DU__crt_win32_buffer_internal_dynamic_resizing@@@@QBEIXZ 0048b510 f i libucrtd:argv_wildcards.obj
 0001:0008a530       ?close@?$__crt_unique_handle_t@U__crt_findfile_traits@@@@QAEXXZ 0048b530 f i libucrtd:argv_wildcards.obj
 0001:0008a570       ?close@__crt_findfile_traits@@SA_NPAX@Z 0048b570 f i libucrtd:argv_wildcards.obj
 0001:0008a5b0       ?data@?$__crt_win32_buffer@DU__crt_win32_buffer_internal_dynamic_resizing@@@@QAEPADXZ 0048b5b0 f i libucrtd:argv_wildcards.obj
 0001:0008a5d0       ?debug_info@?$__crt_win32_buffer@DU__crt_win32_buffer_internal_dynamic_resizing@@@@QBEABV__crt_win32_buffer_empty_debug_info@@XZ 0048b5d0 f i libucrtd:argv_wildcards.obj
 0001:0008a990       ?get@?$__crt_unique_handle_t@U__crt_findfile_traits@@@@QBEPAXXZ 0048b990 f i libucrtd:argv_wildcards.obj
 0001:0008aa10       ?get_invalid_value@__crt_findfile_traits@@SAPAXXZ 0048ba10 f i libucrtd:argv_wildcards.obj
 0001:0008aab0       ?set_to_nullptr@?$__crt_win32_buffer@DU__crt_win32_buffer_internal_dynamic_resizing@@@@QAEXXZ 0048bab0 f i libucrtd:argv_wildcards.obj
 0001:0008aaf0       ?size@?$__crt_win32_buffer@DU__crt_win32_buffer_internal_dynamic_resizing@@@@QAEXI@Z 0048baf0 f i libucrtd:argv_wildcards.obj
 0001:0008ab70       ?strpbrk@@YAPADQADQBD@Z    0048bb70 f i libucrtd:argv_wildcards.obj
 0001:0008ab90       ?wcspbrk@@YAPA_WPA_WPB_W@Z 0048bb90 f i libucrtd:argv_wildcards.obj
 0001:0008abb0       ___acrt_expand_narrow_argv_wildcards 0048bbb0 f   libucrtd:argv_wildcards.obj
 0001:0008abd0       ___acrt_expand_wide_argv_wildcards 0048bbd0 f   libucrtd:argv_wildcards.obj
 0001:0008ad70       ??$__acrt_wcs_to_mbs_cp@U__crt_win32_buffer_no_resizing@@@@YAHQB_WAAV?$__crt_win32_buffer@DU__crt_win32_buffer_no_resizing@@@@I@Z 0048bd70 f i libucrtd:getmodulefilenamea.obj
 0001:0008ada0       ??0?$__crt_win32_buffer@DU__crt_win32_buffer_no_resizing@@@@QAE@QADI@Z 0048bda0 f i libucrtd:getmodulefilenamea.obj
 0001:0008ae00       ??1?$__crt_win32_buffer@DU__crt_win32_buffer_no_resizing@@@@QAE@XZ 0048be00 f i libucrtd:getmodulefilenamea.obj
 0001:0008ae90       ?_deallocate@?$__crt_win32_buffer@DU__crt_win32_buffer_no_resizing@@@@AAEXXZ 0048be90 f i libucrtd:getmodulefilenamea.obj
 0001:0008aee0       ?allocate@?$__crt_win32_buffer@DU__crt_win32_buffer_no_resizing@@@@QAEHI@Z 0048bee0 f i libucrtd:getmodulefilenamea.obj
 0001:0008af60       ?allocate@__crt_win32_buffer_no_resizing@@SAHQAPAXIABV__crt_win32_buffer_empty_debug_info@@@Z 0048bf60 f i libucrtd:getmodulefilenamea.obj
 0001:0008af80       ?capacity@?$__crt_win32_buffer@DU__crt_win32_buffer_no_resizing@@@@QBEIXZ 0048bf80 f i libucrtd:getmodulefilenamea.obj
 0001:0008afa0       ?data@?$__crt_win32_buffer@DU__crt_win32_buffer_no_resizing@@@@QAEPADXZ 0048bfa0 f i libucrtd:getmodulefilenamea.obj
 0001:0008afc0       ?deallocate@__crt_win32_buffer_no_resizing@@SAXQAXABV__crt_win32_buffer_empty_debug_info@@@Z 0048bfc0 f i libucrtd:getmodulefilenamea.obj
 0001:0008afd0       ?debug_info@?$__crt_win32_buffer@DU__crt_win32_buffer_no_resizing@@@@QBEABV__crt_win32_buffer_empty_debug_info@@XZ 0048bfd0 f i libucrtd:getmodulefilenamea.obj
 0001:0008aff0       ?set_to_nullptr@?$__crt_win32_buffer@DU__crt_win32_buffer_no_resizing@@@@QAEXXZ 0048bff0 f i libucrtd:getmodulefilenamea.obj
 0001:0008b030       ?size@?$__crt_win32_buffer@DU__crt_win32_buffer_no_resizing@@@@QAEXI@Z 0048c030 f i libucrtd:getmodulefilenamea.obj
 0001:0008b050       ?size@?$__crt_win32_buffer@DU__crt_win32_buffer_no_resizing@@@@QBEIXZ 0048c050 f i libucrtd:getmodulefilenamea.obj
 0001:0008b070       ___acrt_GetModuleFileNameA 0048c070 f   libucrtd:getmodulefilenamea.obj
 0001:0008b240       ??$initialize_from_array@$$BY10BAA@E@?$dual_state_global@PAE@__crt_state_management@@QAAXAAY10BAA@E@Z 0048c240 f i libucrtd:mbctype.obj
 0001:0008b2a0       ??$initialize_from_array@$$BY10BAB@E@?$dual_state_global@PAE@__crt_state_management@@QAAXAAY10BAB@E@Z 0048c2a0 f i libucrtd:mbctype.obj
 0001:0008b5c0       ?dangerous_get_state_array@?$dual_state_global@PAE@__crt_state_management@@QAEPAPAEXZ 0048c5c0 f i libucrtd:mbctype.obj
 0001:0008b5e0       ?dangerous_get_state_array@?$dual_state_global@PAU__crt_multibyte_data@@@__crt_state_management@@QAEPAPAU__crt_multibyte_data@@XZ 0048c5e0 f i libucrtd:mbctype.obj
 0001:0008b6f0       ?initialize@?$dual_state_global@PAU__crt_multibyte_data@@@__crt_state_management@@QAEXQAU__crt_multibyte_data@@@Z 0048c6f0 f i libucrtd:mbctype.obj
 0001:0008c010       ?value@?$dual_state_global@PAE@__crt_state_management@@QAEAAPAEXZ 0048d010 f i libucrtd:mbctype.obj
 0001:0008c030       ___acrt_initialize_multibyte 0048d030 f   libucrtd:mbctype.obj
 0001:0008c100       ___acrt_update_thread_multibyte_data 0048d100 f   libucrtd:mbctype.obj
 0001:0008c130       ___p__mbcasemap            0048d130 f   libucrtd:mbctype.obj
 0001:0008c150       ___p__mbctype              0048d150 f   libucrtd:mbctype.obj
 0001:0008c170       __getmbcp                  0048d170 f   libucrtd:mbctype.obj
 0001:0008c200       __setmbcp                  0048d200 f   libucrtd:mbctype.obj
 0001:0008c230       __setmbcp_nolock           0048d230 f   libucrtd:mbctype.obj
 0001:0008c8fb       __ismbbalnum               0048d8fb f   libucrtd:ismbbyte.obj
 0001:0008c91c       __ismbbalnum_l             0048d91c f   libucrtd:ismbbyte.obj
 0001:0008c93f       __ismbbalpha               0048d93f f   libucrtd:ismbbyte.obj
 0001:0008c960       __ismbbalpha_l             0048d960 f   libucrtd:ismbbyte.obj
 0001:0008c983       __ismbbblank               0048d983 f   libucrtd:ismbbyte.obj
 0001:0008c9ae       __ismbbblank_l             0048d9ae f   libucrtd:ismbbyte.obj
 0001:0008c9db       __ismbbgraph               0048d9db f   libucrtd:ismbbyte.obj
 0001:0008c9fc       __ismbbgraph_l             0048d9fc f   libucrtd:ismbbyte.obj
 0001:0008ca1f       __ismbbkalnum              0048da1f f   libucrtd:ismbbyte.obj
 0001:0008ca3d       __ismbbkalnum_l            0048da3d f   libucrtd:ismbbyte.obj
 0001:0008ca5c       __ismbbkana                0048da5c f   libucrtd:ismbbyte.obj
 0001:0008ca73       __ismbbkana_l              0048da73 f   libucrtd:ismbbyte.obj
 0001:0008cad8       __ismbbkprint              0048dad8 f   libucrtd:ismbbyte.obj
 0001:0008caf6       __ismbbkprint_l            0048daf6 f   libucrtd:ismbbyte.obj
 0001:0008cb15       __ismbbkpunct              0048db15 f   libucrtd:ismbbyte.obj
 0001:0008cb33       __ismbbkpunct_l            0048db33 f   libucrtd:ismbbyte.obj
 0001:0008cb52       __ismbblead                0048db52 f   libucrtd:ismbbyte.obj
 0001:0008cb70       __ismbblead_l              0048db70 f   libucrtd:ismbbyte.obj
 0001:0008cb8f       __ismbbprint               0048db8f f   libucrtd:ismbbyte.obj
 0001:0008cbb0       __ismbbprint_l             0048dbb0 f   libucrtd:ismbbyte.obj
 0001:0008cbd3       __ismbbpunct               0048dbd3 f   libucrtd:ismbbyte.obj
 0001:0008cbf1       __ismbbpunct_l             0048dbf1 f   libucrtd:ismbbyte.obj
 0001:0008cc10       __ismbbtrail               0048dc10 f   libucrtd:ismbbyte.obj
 0001:0008cc2e       __ismbbtrail_l             0048dc2e f   libucrtd:ismbbyte.obj
 0001:0008cd20       ___acrt_WideCharToMultiByte 0048dd20 f   libucrtd:widechartomultibyte.obj
 0001:0008ceaa       ___dcrt_get_narrow_environment_from_os 0048deaa f   libucrtd:get_environment_from_os.obj
 0001:0008cf63       ___dcrt_get_wide_environment_from_os 0048df63 f   libucrtd:get_environment_from_os.obj
 0001:0008db64       ??$get_or_create_environment_nolock@$$V@?$__crt_char_traits@D@@SAPAPADXZ 0048eb64 f i libucrtd:setenv.obj
 0001:0008db69       ??$get_or_create_environment_nolock@$$V@?$__crt_char_traits@_W@@SAPAPA_WXZ 0048eb69 f i libucrtd:setenv.obj
 0001:0008db6e       ??$set_environment_variable@ABQADQAD@?$__crt_char_traits@D@@SAHABQAD$$QBQAD@Z 0048eb6e f i libucrtd:setenv.obj
 0001:0008db8c       ??$set_environment_variable@ABQA_WQA_W@?$__crt_char_traits@_W@@SAHABQA_W$$QBQA_W@Z 0048eb8c f i libucrtd:setenv.obj
 0001:0008dba8       ??$tcschr@ABQADD@?$__crt_char_traits@D@@SAPADABQAD$$QAD@Z 0048eba8 f i libucrtd:setenv.obj
 0001:0008dbc8       ??$tcschr@ABQA_WD@?$__crt_char_traits@_W@@SAPA_WABQA_W$$QAD@Z 0048ebc8 f i libucrtd:setenv.obj
 0001:0008dbed       ??$tcscpy_s@AAPADABIAAPAD@?$__crt_char_traits@D@@SAHAAPADABI0@Z 0048ebed f i libucrtd:setenv.obj
 0001:0008dc12       ??$tcscpy_s@AAPA_WABIAAPA_W@?$__crt_char_traits@_W@@SAHAAPA_WABI0@Z 0048ec12 f i libucrtd:setenv.obj
 0001:0008dc37       ??$tcscpy_s@ABQADABIABQAD@?$__crt_char_traits@D@@SAHABQADABI0@Z 0048ec37 f i libucrtd:setenv.obj
 0001:0008dc5c       ??$tcscpy_s@ABQA_WABIABQA_W@?$__crt_char_traits@_W@@SAHABQA_WABI0@Z 0048ec5c f i libucrtd:setenv.obj
 0001:0008dc81       ??$tcslen@ABQAD@?$__crt_char_traits@D@@SAIABQAD@Z 0048ec81 f i libucrtd:setenv.obj
 0001:0008dc9f       ??$tcslen@ABQA_W@?$__crt_char_traits@_W@@SAIABQA_W@Z 0048ec9f f i libucrtd:setenv.obj
 0001:0008dcc4       ??$tcsnicoll@ABQBDAAPADABI@?$__crt_char_traits@D@@SAHABQBDAAPADABI@Z 0048ecc4 f i libucrtd:setenv.obj
 0001:0008dce9       ??$tcsnicoll@ABQB_WAAPA_WABI@?$__crt_char_traits@_W@@SAHABQB_WAAPA_WABI@Z 0048ece9 f i libucrtd:setenv.obj
 0001:0008dd0e       ??$tcsnlen@PADH@?$__crt_char_traits@D@@SAI$$QAPAD$$QAH@Z 0048ed0e f i libucrtd:setenv.obj
 0001:0008dd2c       ??$tcsnlen@PA_WH@?$__crt_char_traits@_W@@SAI$$QAPA_W$$QAH@Z 0048ed2c f i libucrtd:setenv.obj
 0001:0008dd6e       ?strchr@@YAPADQADH@Z       0048ed6e f i libucrtd:setenv.obj
 0001:0008dd7b       ?wcschr@@YAPA_WPA_W_W@Z    0048ed7b f i libucrtd:setenv.obj
 0001:0008dd88       ___dcrt_set_variable_in_narrow_environment_nolock 0048ed88 f   libucrtd:setenv.obj
 0001:0008dd95       ___dcrt_set_variable_in_wide_environment_nolock 0048ed95 f   libucrtd:setenv.obj
 0001:0008ddb0       ??$?RU__crt_lowio_handle_data@@@__crt_internal_free_policy@@QBEXQBU__crt_lowio_handle_data@@@Z 0048edb0 f i libucrtd:osfinfo.obj
 0001:0008dde0       ??0?$__crt_unique_heap_ptr@U__crt_lowio_handle_data@@U__crt_internal_free_policy@@@@QAE@QAU__crt_lowio_handle_data@@@Z 0048ede0 f i libucrtd:osfinfo.obj
 0001:0008de00       ??1?$__crt_unique_heap_ptr@U__crt_lowio_handle_data@@U__crt_internal_free_policy@@@@QAE@XZ 0048ee00 f i libucrtd:osfinfo.obj
 0001:0008de20       ??B?$__crt_unique_heap_ptr@U__crt_lowio_handle_data@@U__crt_internal_free_policy@@@@QBE_NXZ 0048ee20 f i libucrtd:osfinfo.obj
 0001:0008de40       ?detach@?$__crt_unique_heap_ptr@U__crt_lowio_handle_data@@U__crt_internal_free_policy@@@@QAEPAU__crt_lowio_handle_data@@XZ 0048ee40 f i libucrtd:osfinfo.obj
 0001:0008de70       ?get@?$__crt_unique_heap_ptr@U__crt_lowio_handle_data@@U__crt_internal_free_policy@@@@QBEPAU__crt_lowio_handle_data@@XZ 0048ee70 f i libucrtd:osfinfo.obj
 0001:0008de90       ?is_valid@?$__crt_unique_heap_ptr@U__crt_lowio_handle_data@@U__crt_internal_free_policy@@@@QBE_NXZ 0048ee90 f i libucrtd:osfinfo.obj
 0001:0008ded0       ?release@?$__crt_unique_heap_ptr@U__crt_lowio_handle_data@@U__crt_internal_free_policy@@@@QAEXXZ 0048eed0 f i libucrtd:osfinfo.obj
 0001:0008df00       ___acrt_lowio_create_handle_array 0048ef00 f   libucrtd:osfinfo.obj
 0001:0008e0b0       ___acrt_lowio_destroy_handle_array 0048f0b0 f   libucrtd:osfinfo.obj
 0001:0008e120       ___acrt_lowio_ensure_fh_exists 0048f120 f   libucrtd:osfinfo.obj
 0001:0008e2d0       ___acrt_lowio_lock_fh      0048f2d0 f   libucrtd:osfinfo.obj
 0001:0008e300       ___acrt_lowio_set_os_handle 0048f300 f   libucrtd:osfinfo.obj
 0001:0008e410       ___acrt_lowio_unlock_fh    0048f410 f   libucrtd:osfinfo.obj
 0001:0008e440       __alloc_osfhnd             0048f440 f   libucrtd:osfinfo.obj
 0001:0008e690       __free_osfhnd              0048f690 f   libucrtd:osfinfo.obj
 0001:0008e7b0       __get_osfhandle            0048f7b0 f   libucrtd:osfinfo.obj
 0001:0008e990       __open_osfhandle           0048f990 f   libucrtd:osfinfo.obj
 0001:0008ec10       ___p__fmode                0048fc10 f   libucrtd:txtmode.obj
 0001:0008ec30       ??$?RG@__crt_internal_free_policy@@QBEXQBG@Z 0048fc30 f i libucrtd:initctype.obj
 0001:0008ec60       ??$?RJ@__crt_internal_free_policy@@QBEXQBJ@Z 0048fc60 f i libucrtd:initctype.obj
 0001:0008ec90       ??0?$__crt_unique_heap_ptr@GU__crt_internal_free_policy@@@@QAE@QAG@Z 0048fc90 f i libucrtd:initctype.obj
 0001:0008ecb0       ??0?$__crt_unique_heap_ptr@JU__crt_internal_free_policy@@@@QAE@QAJ@Z 0048fcb0 f i libucrtd:initctype.obj
 0001:0008ecd0       ??1?$__crt_unique_heap_ptr@GU__crt_internal_free_policy@@@@QAE@XZ 0048fcd0 f i libucrtd:initctype.obj
 0001:0008ecf0       ??1?$__crt_unique_heap_ptr@JU__crt_internal_free_policy@@@@QAE@XZ 0048fcf0 f i libucrtd:initctype.obj
 0001:0008ed10       ?detach@?$__crt_unique_heap_ptr@GU__crt_internal_free_policy@@@@QAEPAGXZ 0048fd10 f i libucrtd:initctype.obj
 0001:0008ed40       ?detach@?$__crt_unique_heap_ptr@JU__crt_internal_free_policy@@@@QAEPAJXZ 0048fd40 f i libucrtd:initctype.obj
 0001:0008ed70       ?release@?$__crt_unique_heap_ptr@GU__crt_internal_free_policy@@@@QAEXXZ 0048fd70 f i libucrtd:initctype.obj
 0001:0008eda0       ?release@?$__crt_unique_heap_ptr@JU__crt_internal_free_policy@@@@QAEXXZ 0048fda0 f i libucrtd:initctype.obj
 0001:0008edd0       ____lc_codepage_func       0048fdd0 f   libucrtd:initctype.obj
 0001:0008ee10       ____lc_collate_cp_func     0048fe10 f   libucrtd:initctype.obj
 0001:0008ee50       ____lc_locale_name_func    0048fe50 f   libucrtd:initctype.obj
 0001:0008eea0       ____mb_cur_max_func        0048fea0 f   libucrtd:initctype.obj
 0001:0008eee0       ____mb_cur_max_l_func      0048fee0 f   libucrtd:initctype.obj
 0001:0008ef20       ___acrt_locale_initialize_ctype 0048ff20 f   libucrtd:initctype.obj
 0001:0008f850       ??$?RUlconv@@@__crt_internal_free_policy@@QBEXQBUlconv@@@Z 00490850 f i libucrtd:initmon.obj
 0001:0008f880       ??0?$__crt_unique_heap_ptr@Ulconv@@U__crt_internal_free_policy@@@@QAE@QAUlconv@@@Z 00490880 f i libucrtd:initmon.obj
 0001:0008f8a0       ??1?$__crt_unique_heap_ptr@Ulconv@@U__crt_internal_free_policy@@@@QAE@XZ 004908a0 f i libucrtd:initmon.obj
 0001:0008f8c0       ?detach@?$__crt_unique_heap_ptr@Ulconv@@U__crt_internal_free_policy@@@@QAEPAUlconv@@XZ 004908c0 f i libucrtd:initmon.obj
 0001:0008f8f0       ?release@?$__crt_unique_heap_ptr@Ulconv@@U__crt_internal_free_policy@@@@QAEXXZ 004908f0 f i libucrtd:initmon.obj
 0001:0008f920       ___acrt_locale_free_monetary 00490920 f   libucrtd:initmon.obj
 0001:0008fb30       ___acrt_locale_initialize_monetary 00490b30 f   libucrtd:initmon.obj
 0001:00090380       ___acrt_locale_free_numeric 00491380 f   libucrtd:initnum.obj
 0001:00090460       ___acrt_locale_initialize_numeric 00491460 f   libucrtd:initnum.obj
 0001:000909c0       ??$?RU__crt_lc_time_data@@@__crt_internal_free_policy@@QBEXQBU__crt_lc_time_data@@@Z 004919c0 f i libucrtd:inittime.obj
 0001:00090ab0       ??0?$__crt_unique_heap_ptr@U__crt_lc_time_data@@U__crt_internal_free_policy@@@@QAE@QAU__crt_lc_time_data@@@Z 00491ab0 f i libucrtd:inittime.obj
 0001:00090ad0       ??1?$__crt_unique_heap_ptr@U__crt_lc_time_data@@U__crt_internal_free_policy@@@@QAE@XZ 00491ad0 f i libucrtd:inittime.obj
 0001:00090af0       ??B?$__crt_unique_heap_ptr@U__crt_lc_time_data@@U__crt_internal_free_policy@@@@QBE_NXZ 00491af0 f i libucrtd:inittime.obj
 0001:00090b10       ?detach@?$__crt_unique_heap_ptr@U__crt_lc_time_data@@U__crt_internal_free_policy@@@@QAEPAU__crt_lc_time_data@@XZ 00491b10 f i libucrtd:inittime.obj
 0001:00090b90       ?get@?$__crt_unique_heap_ptr@U__crt_lc_time_data@@U__crt_internal_free_policy@@@@QBEPAU__crt_lc_time_data@@XZ 00491b90 f i libucrtd:inittime.obj
 0001:00091180       ?is_valid@?$__crt_unique_heap_ptr@U__crt_lc_time_data@@U__crt_internal_free_policy@@@@QBE_NXZ 00492180 f i libucrtd:inittime.obj
 0001:000911c0       ?release@?$__crt_unique_heap_ptr@U__crt_lc_time_data@@U__crt_internal_free_policy@@@@QAEXXZ 004921c0 f i libucrtd:inittime.obj
 0001:000911f0       ___acrt_locale_free_time   004921f0 f   libucrtd:inittime.obj
 0001:00091390       ___acrt_locale_initialize_time 00492390 f   libucrtd:inittime.obj
 0001:00091420       ___pctype_func             00492420 f   libucrtd:ctype.obj
 0001:00091460       ___pwctype_func            00492460 f   libucrtd:ctype.obj
 0001:00091470       _wcscmp                    00492470 f   libucrtd:wcscmp.obj
 0001:00091510       _wcscspn                   00492510 f   libucrtd:wcscspn.obj
 0001:000915a0       _wcspbrk                   004925a0 f   libucrtd:wcspbrk.obj
 0001:00091620       __wcsicmp                  00492620 f   libucrtd:wcsicmp.obj
 0001:00091860       __wcsicmp_l                00492860 f   libucrtd:wcsicmp.obj
 0001:00091b60       ___acrt_GetStringTypeA     00492b60 f   libucrtd:getstringtypea.obj
 0001:00091d80       ___acrt_add_locale_ref     00492d80 f   libucrtd:locale_refcounting.obj
 0001:00091ec0       ___acrt_free_locale        00492ec0 f   libucrtd:locale_refcounting.obj
 0001:00092230       ___acrt_locale_add_lc_time_reference 00493230 f   libucrtd:locale_refcounting.obj
 0001:00092270       ___acrt_locale_free_lc_time_if_unreferenced 00493270 f   libucrtd:locale_refcounting.obj
 0001:000922d0       ___acrt_locale_release_lc_time_reference 004932d0 f   libucrtd:locale_refcounting.obj
 0001:00092310       ___acrt_release_locale_ref 00493310 f   libucrtd:locale_refcounting.obj
 0001:00092460       ___acrt_update_thread_locale_data 00493460 f   libucrtd:locale_refcounting.obj
 0001:00092570       __updatetlocinfoEx_nolock  00493570 f   libucrtd:locale_refcounting.obj
 0001:00093420       ___acrt_get_qualified_locale 00494420 f   libucrtd:get_qualified_locale.obj
 0001:00094830       ___acrt_get_qualified_locale_downlevel 00495830 f   libucrtd:getqloc_downlevel.obj
 0001:00094b80       _localeconv                00495b80 f   libucrtd:localeconv.obj
 0001:00094bd0       ___acrt_getheap            00495bd0 f   libucrtd:heap_handle.obj
 0001:00094c20       ___acrt_initialize_heap    00495c20 f   libucrtd:heap_handle.obj
 0001:00094c50       ___acrt_uninitialize_heap  00495c50 f   libucrtd:heap_handle.obj
 0001:00094c70       __get_heap_handle          00495c70 f   libucrtd:heap_handle.obj
 0001:00094cc0       ___acrt_execute_initializers 00495cc0 f   libucrtd:shared_initialization.obj
 0001:00094da0       ___acrt_execute_uninitializers 00495da0 f   libucrtd:shared_initialization.obj
 0001:00094e10       ??$?B$$A6AHI@Z@__crt_fast_encoded_nullptr_t@@QBEP6AHI@ZXZ 00495e10 f i libucrtd:new_handler.obj
 0001:00094e30       ??$__crt_fast_decode_pointer@P6AHI@Z@@YAP6AHI@ZQ6AHI@Z@Z 00495e30 f i libucrtd:new_handler.obj
 0001:00094e70       ??$__crt_fast_encode_pointer@P6AHI@Z@@YAP6AHI@ZQ6AHI@Z@Z 00495e70 f i libucrtd:new_handler.obj
 0001:00094eb0       ?_set_new_handler@@YAP6AHI@ZH@Z 00495eb0 f   libucrtd:new_handler.obj
 0001:00094f20       ?initialize@?$dual_state_global@P6AHI@Z@__crt_state_management@@QAEXQ6AHI@Z@Z 00495f20 f i libucrtd:new_handler.obj
 0001:00094f70       ?value@?$dual_state_global@P6AHI@Z@__crt_state_management@@QAEAAP6AHI@ZXZ 00495f70 f i libucrtd:new_handler.obj
 0001:00094f90       ___acrt_initialize_new_handler 00495f90 f   libucrtd:new_handler.obj
 0001:00094fb0       __callnewh                 00495fb0 f   libucrtd:new_handler.obj
 0001:00095000       __query_new_handler        00496000 f   libucrtd:new_handler.obj
 0001:000950c0       __set_new_handler          004960c0 f   libucrtd:new_handler.obj
 0001:000951a0       ??$?B$$A6AXH@Z@__crt_fast_encoded_nullptr_t@@QBEP6AXH@ZXZ 004961a0 f i libucrtd:signal.obj
 0001:000952b0       ??$__crt_fast_decode_pointer@P6AXH@Z@@YAP6AXH@ZQ6AXH@Z@Z 004962b0 f i libucrtd:signal.obj
 0001:000952f0       ??$__crt_fast_encode_pointer@P6AXH@Z@@YAP6AXH@ZQ6AXH@Z@Z 004962f0 f i libucrtd:signal.obj
 0001:00095660       ?initialize@?$dual_state_global@P6AXH@Z@__crt_state_management@@QAEXQ6AXH@Z@Z 00496660 f i libucrtd:signal.obj
 0001:00095800       ?value@?$dual_state_global@P6AXH@Z@__crt_state_management@@QAEAAP6AXH@ZXZ 00496800 f i libucrtd:signal.obj
 0001:00095820       ___acrt_get_sigabrt_handler 00496820 f   libucrtd:signal.obj
 0001:00095850       ___acrt_initialize_signal_handlers 00496850 f   libucrtd:signal.obj
 0001:000958a0       ___fpecode                 004968a0 f   libucrtd:signal.obj
 0001:000958c0       ___pxcptinfoptrs           004968c0 f   libucrtd:signal.obj
 0001:000958e0       _raise                     004968e0 f   libucrtd:signal.obj
 0001:00095da0       _signal                    00496da0 f   libucrtd:signal.obj
 0001:00096350       ___control87_2             00497350 f   libucrtd:ieee87.obj
 0001:000964c0       ___fpreset_sse2            004974c0 f   libucrtd:ieee87.obj
 0001:00096910       __clearfp                  00497910 f   libucrtd:ieee87.obj
 0001:00096970       __control87                00497970 f   libucrtd:ieee87.obj
 0001:00096a50       __controlfp                00497a50 f   libucrtd:ieee87.obj
 0001:00096a80       __fpreset                  00497a80 f   libucrtd:ieee87.obj
 0001:00096cb0       __set_controlfp            00497cb0 f   libucrtd:ieee87.obj
 0001:00096d60       __statusfp                 00497d60 f   libucrtd:ieee87.obj
 0001:00096dc0       __statusfp2                00497dc0 f   libucrtd:ieee87.obj
 0001:00096e20       __free_base                00497e20 f   libucrtd:free_base.obj
 0001:00096e80       __realloc_base             00497e80 f   libucrtd:realloc_base.obj
 0001:00096fb0       __expand                   00497fb0 f   libucrtd:expand.obj
 0001:00096fe0       __expand_base              00497fe0 f   libucrtd:expand.obj
 0001:00097160       __CrtDefaultAllocHook      00498160 f   libucrtd:debug_heap_hook.obj
 0001:00097170       __CrtGetReportHook         00498170 f   libucrtd:dbgrptt.obj
 0001:00097180       __CrtSetReportFile         00498180 f   libucrtd:dbgrptt.obj
 0001:000972b0       __CrtSetReportHook         004982b0 f   libucrtd:dbgrptt.obj
 0001:000972e0       __CrtSetReportMode         004982e0 f   libucrtd:dbgrptt.obj
 0001:00097470       __VCrtDbgReportA           00498470 f   libucrtd:dbgrptt.obj
 0001:00097f10       __VCrtDbgReportW           00498f10 f   libucrtd:dbgrptt.obj
 0001:00098b30       __snprintf_s               00499b30 f i libucrtd:dbgrptt.obj
 0001:00098b90       __vsnprintf_s              00499b90 f i libucrtd:dbgrptt.obj
 0001:00098bc0       __vsnprintf_s_l            00499bc0 f i libucrtd:dbgrptt.obj
 0001:00098c30       __iswctype_l               00499c30 f   libucrtd:iswctype.obj
 0001:00098c50       _iswctype                  00499c50 f   libucrtd:iswctype.obj
 0001:00098f10       ___acrt_DownlevelLCIDToLocaleName 00499f10 f   libucrtd:lcidtoname_downlevel.obj
 0001:00099010       ___acrt_DownlevelLocaleNameToLCID 0049a010 f   libucrtd:lcidtoname_downlevel.obj
 0001:00099060       __wcsnicmp                 0049a060 f   libucrtd:wcsnicmp.obj
 0001:000992d0       __wcsnicmp_l               0049a2d0 f   libucrtd:wcsnicmp.obj
 0001:000995d0       __strnicmp                 0049a5d0 f   libucrtd:strnicmp.obj
 0001:00099810       __strnicmp_l               0049a810 f   libucrtd:strnicmp.obj
 0001:00099cc0       ??$__vcrt_va_start_verify_argument_type@$$CBH@@YAXXZ 0049acc0 f i libucrtd:open.obj
 0001:0009a770       ??$tsopen_nolock@PAHABQAHABQBDABHABHABHABH@?$__crt_char_traits@D@@SAH$$QAPAHABQAHABQBDABH333@Z 0049b770 f i libucrtd:open.obj
 0001:0009a7c0       ??$tsopen_nolock@PAHABQAHABQB_WABHABHABHABH@?$__crt_char_traits@_W@@SAH$$QAPAHABQAHABQB_WABH333@Z 0049b7c0 f i libucrtd:open.obj
 0001:0009a810       ??$tsopen_nolock@PAHPAHABQBDABHHABHH@?$__crt_char_traits@D@@SAH$$QAPAH0ABQBDABH$$QAH23@Z 0049b810 f i libucrtd:open.obj
 0001:0009a860       ??$tsopen_nolock@PAHPAHABQB_WABHHABHH@?$__crt_char_traits@_W@@SAH$$QAPAH0ABQB_WABH$$QAH23@Z 0049b860 f i libucrtd:open.obj
 0001:0009b6e0       __open                     0049c6e0 f   libucrtd:open.obj
 0001:0009b740       __sopen                    0049c740 f   libucrtd:open.obj
 0001:0009b7d0       __sopen_dispatch           0049c7d0 f   libucrtd:open.obj
 0001:0009b800       __sopen_nolock             0049c800 f   libucrtd:open.obj
 0001:0009b8a0       __sopen_s                  0049c8a0 f   libucrtd:open.obj
 0001:0009b8d0       __wopen                    0049c8d0 f   libucrtd:open.obj
 0001:0009b930       __wsopen                   0049c930 f   libucrtd:open.obj
 0001:0009b9c0       __wsopen_dispatch          0049c9c0 f   libucrtd:open.obj
 0001:0009b9f0       __wsopen_nolock            0049c9f0 f   libucrtd:open.obj
 0001:0009c0f0       __wsopen_s                 0049d0f0 f   libucrtd:open.obj
 0001:0009c120       __isatty                   0049d120 f   libucrtd:isatty.obj
 0001:0009c220       ___acrt_stdio_allocate_buffer_nolock 0049d220 f   libucrtd:_getbuf.obj
 0001:0009c400       ?__mbrtowc_utf8@__crt_mbstring@@YAIPA_WPBDIPAU_Mbstatet@@@Z 0049d400 f   libucrtd:mbrtowc.obj
 0001:0009c470       ?__mbsrtowcs_utf8@__crt_mbstring@@YAIPA_WPAPBDIPAU_Mbstatet@@@Z 0049d470 f   libucrtd:mbrtowc.obj
 0001:0009cf00       _btowc                     0049df00 f   libucrtd:mbrtowc.obj
 0001:0009cf90       _mbrlen                    0049df90 f   libucrtd:mbrtowc.obj
 0001:0009cff0       _mbrtowc                   0049dff0 f   libucrtd:mbrtowc.obj
 0001:0009d0a0       _mbsrtowcs                 0049e0a0 f   libucrtd:mbrtowc.obj
 0001:0009d0d0       _mbsrtowcs_s               0049e0d0 f   libucrtd:mbrtowc.obj
 0001:0009d4f0       ?__c32rtomb_utf8@__crt_mbstring@@YAIPAD_UPAU_Mbstatet@@@Z 0049e4f0 f   libucrtd:c32rtomb.obj
 0001:0009d740       ?reset_and_return@__crt_mbstring@@YAIIPAU_Mbstatet@@@Z 0049e740 f i libucrtd:c32rtomb.obj
 0001:0009d770       ?return_illegal_sequence@__crt_mbstring@@YAIPAU_Mbstatet@@@Z 0049e770 f i libucrtd:c32rtomb.obj
 0001:0009d7b0       _c32rtomb                  0049e7b0 f   libucrtd:c32rtomb.obj
 0001:0009d7e0       ___acrt_fp_strflt_to_string 0049e7e0 f   libucrtd:_fptostr.obj
 0001:0009e380       ??0big_integer@__crt_strtox@@QAE@ABU01@@Z 0049f380 f i libucrtd:cfout.obj
 0001:0009e3d0       ??0big_integer@__crt_strtox@@QAE@XZ 0049f3d0 f i libucrtd:cfout.obj
 0001:0009e4a0       ??4big_integer@__crt_strtox@@QAEAAU01@ABU01@@Z 0049f4a0 f i libucrtd:cfout.obj
 0001:0009e4f0       ??8__crt_strtox@@YA_NABUbig_integer@0@0@Z 0049f4f0 f i libucrtd:cfout.obj
 0001:0009e560       ??9__crt_strtox@@YA_NABUbig_integer@0@0@Z 0049f560 f i libucrtd:cfout.obj
 0001:0009e5b0       ?add_carry@__crt_strtox@@YAIAAIII@Z 0049f5b0 f i libucrtd:cfout.obj
 0001:0009e600       ?add_multiply_carry@__crt_strtox@@YAIAAIIII@Z 0049f600 f i libucrtd:cfout.obj
 0001:0009e650       ?bit_scan_reverse@__crt_strtox@@YAII@Z 0049f650 f i libucrtd:cfout.obj
 0001:0009e690       ?count_sequential_high_zeroes@__crt_strtox@@YAII@Z 0049f690 f i libucrtd:cfout.obj
 0001:0009e6e0       ?divide@__crt_strtox@@YA_KAAUbig_integer@1@ABU21@@Z 0049f6e0 f i libucrtd:cfout.obj
 0001:0009f400       ?is_zero@__crt_strtox@@YA_NABUbig_integer@1@@Z 004a0400 f i libucrtd:cfout.obj
 0001:0009f430       ?make_big_integer@__crt_strtox@@YA?AUbig_integer@1@_K@Z 004a0430 f i libucrtd:cfout.obj
 0001:0009f510       ?make_big_integer_power_of_two@__crt_strtox@@YA?AUbig_integer@1@I@Z 004a0510 f i libucrtd:cfout.obj
 0001:0009f5f0       ?multiply@__crt_strtox@@YA_NAAUbig_integer@1@ABU21@@Z 004a05f0 f i libucrtd:cfout.obj
 0001:0009fa50       ?multiply@__crt_strtox@@YA_NAAUbig_integer@1@I@Z 004a0a50 f i libucrtd:cfout.obj
 0001:0009fb50       ?multiply_64_32@__crt_strtox@@YA_K_KI@Z 004a0b50 f i libucrtd:cfout.obj
 0001:0009fb70       ?multiply_by_power_of_ten@__crt_strtox@@YA_NAAUbig_integer@1@I@Z 004a0b70 f i libucrtd:cfout.obj
 0001:0009fd70       ?multiply_core@__crt_strtox@@YAIQAIII@Z 004a0d70 f i libucrtd:cfout.obj
 0001:0009fdf0       ?shift_left@__crt_strtox@@YA_NAAUbig_integer@1@I@Z 004a0df0 f i libucrtd:cfout.obj
 0001:000a0210       ___acrt_fltout             004a1210 f   libucrtd:cfout.obj
 0001:000a07a9       __putwch                   004a17a9 f   libucrtd:putwch.obj
 0001:000a07e3       __putwch_nolock            004a17e3 f   libucrtd:putwch.obj
 0001:000a0830       ?dangerous_get_state_array@?$dual_state_global@PAPAD@__crt_state_management@@QAEPAPAPADXZ 004a1830 f i libucrtd:timeset.obj
 0001:000a0850       ?initialize@?$dual_state_global@H@__crt_state_management@@QAEXH@Z 004a1850 f i libucrtd:timeset.obj
 0001:000a08a0       ?initialize@?$dual_state_global@J@__crt_state_management@@QAEXJ@Z 004a18a0 f i libucrtd:timeset.obj
 0001:000a08f0       ___acrt_initialize_timeset 004a18f0 f   libucrtd:timeset.obj
 0001:000a0980       ___daylight                004a1980 f   libucrtd:timeset.obj
 0001:000a09a0       ___dstbias                 004a19a0 f   libucrtd:timeset.obj
 0001:000a09c0       ___timezone                004a19c0 f   libucrtd:timeset.obj
 0001:000a09e0       ___tzname                  004a19e0 f   libucrtd:timeset.obj
 0001:000a0a00       __get_daylight             004a1a00 f   libucrtd:timeset.obj
 0001:000a0ac0       __get_dstbias              004a1ac0 f   libucrtd:timeset.obj
 0001:000a0b80       __get_timezone             004a1b80 f   libucrtd:timeset.obj
 0001:000a0c40       __get_tzname               004a1c40 f   libucrtd:timeset.obj
 0001:000a0ed0       ??$?RUtm@@@__crt_internal_free_policy@@QBEXQBUtm@@@Z 004a1ed0 f i libucrtd:gmtime.obj
 0001:000a0f00       ??$__crt_time_elapsed_leap_years@H@@YAHH@Z 004a1f00 f i libucrtd:gmtime.obj
 0001:000a16c0       ??0?$__crt_unique_heap_ptr@Utm@@U__crt_internal_free_policy@@@@QAE@QAUtm@@@Z 004a26c0 f i libucrtd:gmtime.obj
 0001:000a16e0       ??1?$__crt_unique_heap_ptr@Utm@@U__crt_internal_free_policy@@@@QAE@XZ 004a26e0 f i libucrtd:gmtime.obj
 0001:000a1930       ?detach@?$__crt_unique_heap_ptr@Utm@@U__crt_internal_free_policy@@@@QAEPAUtm@@XZ 004a2930 f i libucrtd:gmtime.obj
 0001:000a1960       ?release@?$__crt_unique_heap_ptr@Utm@@U__crt_internal_free_policy@@@@QAEXXZ 004a2960 f i libucrtd:gmtime.obj
 0001:000a1990       ___getgmtimebuf            004a2990 f   libucrtd:gmtime.obj
 0001:000a1a40       __gmtime32                 004a2a40 f   libucrtd:gmtime.obj
 0001:000a1a60       __gmtime32_s               004a2a60 f   libucrtd:gmtime.obj
 0001:000a1a80       __gmtime64                 004a2a80 f   libucrtd:gmtime.obj
 0001:000a1aa0       __gmtime64_s               004a2aa0 f   libucrtd:gmtime.obj
 0001:000a1f00       ?_set_daylight@@YAXH@Z     004a2f00 f i libucrtd:tzset.obj
 0001:000a1f20       ?_set_dstbias@@YAXJ@Z      004a2f20 f i libucrtd:tzset.obj
 0001:000a1f40       ?_set_timezone@@YAXJ@Z     004a2f40 f i libucrtd:tzset.obj
 0001:000a2b40       ___tzset                   004a3b40 f   libucrtd:tzset.obj
 0001:000a2c10       __isindst                  004a3c10 f   libucrtd:tzset.obj
 0001:000a2cc0       __tzset                    004a3cc0 f   libucrtd:tzset.obj
 0001:000a2d50       ___strncnt                 004a3d50 f   libucrtd:strncnt.obj
 0001:000a2db0       ___acrt_OutputDebugStringA@4 004a3db0 f   libucrtd:outputdebugstringa.obj
 0001:000a2fc0       _qsort                     004a3fc0 f   libucrtd:qsort.obj
 0001:000a3cf0       _strncpy_s                 004a4cf0 f   libucrtd:strncpy_s.obj
 0001:000a3d20       _strpbrk                   004a4d20 f   libucrtd:strpbrk.obj
 0001:000a3d70       __mbsdec                   004a4d70 f   libucrtd:mbsdec.obj
 0001:000a3d8c       __mbsdec_l                 004a4d8c f   libucrtd:mbsdec.obj
 0001:000a3ee0       __wcsnicoll                004a4ee0 f   libucrtd:wcsnicol.obj
 0001:000a41d0       __wcsnicoll_l              004a51d0 f   libucrtd:wcsnicol.obj
 0001:000a4570       __strnicoll                004a5570 f   libucrtd:strnicol.obj
 0001:000a45d0       __strnicoll_l              004a55d0 f   libucrtd:strnicol.obj
 0001:000a4ae0       ___acrt_SetEnvironmentVariableA 004a5ae0 f   libucrtd:setenvironmentvariablea.obj
 0001:000a4da0       ___acrt_GetLocaleInfoA     004a5da0 f   libucrtd:getlocaleinfoa.obj
 0001:000a5240       __towlower_l               004a6240 f   libucrtd:towlower.obj
 0001:000a53e0       _towlower                  004a63e0 f   libucrtd:towlower.obj
 0001:000a6930       __i64toa                   004a7930 f   libucrtd:xtoa.obj
 0001:000a69a0       __i64toa_s                 004a79a0 f   libucrtd:xtoa.obj
 0001:000a6a10       __i64tow                   004a7a10 f   libucrtd:xtoa.obj
 0001:000a6a80       __i64tow_s                 004a7a80 f   libucrtd:xtoa.obj
 0001:000a6af0       __itoa                     004a7af0 f   libucrtd:xtoa.obj
 0001:000a6b50       __itoa_s                   004a7b50 f   libucrtd:xtoa.obj
 0001:000a6bb0       __itow                     004a7bb0 f   libucrtd:xtoa.obj
 0001:000a6c10       __itow_s                   004a7c10 f   libucrtd:xtoa.obj
 0001:000a6c70       __ltoa                     004a7c70 f   libucrtd:xtoa.obj
 0001:000a6cd0       __ltoa_s                   004a7cd0 f   libucrtd:xtoa.obj
 0001:000a6d30       __ltow                     004a7d30 f   libucrtd:xtoa.obj
 0001:000a6d90       __ltow_s                   004a7d90 f   libucrtd:xtoa.obj
 0001:000a6df0       __ui64toa                  004a7df0 f   libucrtd:xtoa.obj
 0001:000a6e20       __ui64toa_s                004a7e20 f   libucrtd:xtoa.obj
 0001:000a6e50       __ui64tow                  004a7e50 f   libucrtd:xtoa.obj
 0001:000a6e80       __ui64tow_s                004a7e80 f   libucrtd:xtoa.obj
 0001:000a6eb0       __ultoa                    004a7eb0 f   libucrtd:xtoa.obj
 0001:000a6ee0       __ultoa_s                  004a7ee0 f   libucrtd:xtoa.obj
 0001:000a6f10       __ultow                    004a7f10 f   libucrtd:xtoa.obj
 0001:000a6f40       __ultow_s                  004a7f40 f   libucrtd:xtoa.obj
 0001:000a6f70       __malloc_base              004a7f70 f   libucrtd:malloc_base.obj
 0001:000a74f0       __mbstowcs_l               004a84f0 f   libucrtd:mbstowcs.obj
 0001:000a7520       __mbstowcs_s_l             004a8520 f   libucrtd:mbstowcs.obj
 0001:000a79d0       _mbstowcs                  004a89d0 f   libucrtd:mbstowcs.obj
 0001:000a7a30       _mbstowcs_s                004a8a30 f   libucrtd:mbstowcs.obj
 0001:000a82d0       __wcstombs_l               004a92d0 f   libucrtd:wcstombs.obj
 0001:000a8300       __wcstombs_s_l             004a9300 f   libucrtd:wcstombs.obj
 0001:000a8740       _wcstombs                  004a9740 f   libucrtd:wcstombs.obj
 0001:000a8770       _wcstombs_s                004a9770 f   libucrtd:wcstombs.obj
 0001:000a8cb0       _strcat_s                  004a9cb0 f   libucrtd:strcat_s.obj
 0001:000a8ce0       ___acrt_GetStringTypeW     004a9ce0 f   libucrtd:getstringtypew.obj
 0001:000a8d10       ___ascii_strnicmp          004a9d10 f   libucrtd:_strnicm.obj
 0001:000a8f10       ??0__crt_seek_guard@@QAE@H_J@Z 004a9f10 f i libucrtd:chsize.obj
 0001:000a8fa0       ??1__crt_seek_guard@@QAE@XZ 004a9fa0 f i libucrtd:chsize.obj
 0001:000a90f0       __chsize                   004aa0f0 f   libucrtd:chsize.obj
 0001:000a9130       __chsize_nolock            004aa130 f   libucrtd:chsize.obj
 0001:000a9410       __chsize_s                 004aa410 f   libucrtd:chsize.obj
 0001:000a9690       __umask                    004aa690 f   libucrtd:umask.obj
 0001:000a96d0       __umask_s                  004aa6d0 f   libucrtd:umask.obj
 0001:000a9830       ?__mbrtoc32_utf8@__crt_mbstring@@YAIPA_UPBDIPAU_Mbstatet@@@Z 004aa830 f   libucrtd:mbrtoc32.obj
 0001:000a9bb0       _mbrtoc32                  004aabb0 f   libucrtd:mbrtoc32.obj
 0001:000a9be0       _log10                     004aabe0 f   libucrtd:log10.obj
 0001:000a9c40       _ceil                      004aac40 f   libucrtd:ceil_pentium4.obj
 0001:000a9c80       __ceil_pentium4            004aac80 f   libucrtd:ceil_pentium4.obj
 0001:000a9db0       _fegetenv                  004aadb0 f   libucrtd:fegetenv.obj
 0001:000a9de0       _fesetenv                  004aade0 f   libucrtd:fesetenv.obj
 0001:000a9e60       _feholdexcept              004aae60 f   libucrtd:feholdexcept.obj
 0001:000a9fb9       ___dcrt_lowio_ensure_console_output_initialized 004aafb9 f   libucrtd:initcon.obj
 0001:000a9fdf       ___dcrt_terminate_console_output 004aafdf f   libucrtd:initcon.obj
 0001:000a9ffb       ___dcrt_write_console      004aaffb f   libucrtd:initcon.obj
 0001:000aac40       ??$tcscpy_s@AAPADABIABQBD@?$__crt_char_traits@D@@SAHAAPADABIABQBD@Z 004abc40 f i libucrtd:getenv.obj
 0001:000aac65       ??$tcscpy_s@AAPA_WABIABQB_W@?$__crt_char_traits@_W@@SAHAAPA_WABIABQB_W@Z 004abc65 f i libucrtd:getenv.obj
 0001:000aac8a       ??$tcscpy_s@ABQADABIABQBD@?$__crt_char_traits@D@@SAHABQADABIABQBD@Z 004abc8a f i libucrtd:getenv.obj
 0001:000aacaf       ??$tcscpy_s@ABQA_WABIABQB_W@?$__crt_char_traits@_W@@SAHABQA_WABIABQB_W@Z 004abcaf f i libucrtd:getenv.obj
 0001:000aacd4       ??$tcsnicoll@AAPADABQBDABI@?$__crt_char_traits@D@@SAHAAPADABQBDABI@Z 004abcd4 f i libucrtd:getenv.obj
 0001:000aacf9       ??$tcsnicoll@AAPA_WABQB_WABI@?$__crt_char_traits@_W@@SAHAAPA_WABQB_WABI@Z 004abcf9 f i libucrtd:getenv.obj
 0001:000aad1e       ??$tcsnlen@ABQBDH@?$__crt_char_traits@D@@SAIABQBD$$QAH@Z 004abd1e f i libucrtd:getenv.obj
 0001:000aad3c       ??$tcsnlen@ABQB_WH@?$__crt_char_traits@_W@@SAIABQB_W$$QAH@Z 004abd3c f i libucrtd:getenv.obj
 0001:000aad5a       __dupenv_s                 004abd5a f   libucrtd:getenv.obj
 0001:000aad7f       __dupenv_s_dbg             004abd7f f   libucrtd:getenv.obj
 0001:000aad8c       __wdupenv_s                004abd8c f   libucrtd:getenv.obj
 0001:000aadb1       __wdupenv_s_dbg            004abdb1 f   libucrtd:getenv.obj
 0001:000aadbe       __wgetenv                  004abdbe f   libucrtd:getenv.obj
 0001:000aadcb       __wgetenv_s                004abdcb f   libucrtd:getenv.obj
 0001:000aadd8       _getenv                    004abdd8 f   libucrtd:getenv.obj
 0001:000aade5       _getenv_s                  004abde5 f   libucrtd:getenv.obj
 0001:000aae00       ___acrt_CompareStringW     004abe00 f   libucrtd:comparestringw.obj
 0001:000ab490       ___acrt_CompareStringA     004ac490 f   libucrtd:comparestringa.obj
 0001:000ab500       ___acrt_LCMapStringW       004ac500 f   libucrtd:lcmapstringw.obj
 0001:000ab580       ?__wcsrtombs_utf8@__crt_mbstring@@YAIPADPAPB_WIPAU_Mbstatet@@@Z 004ac580 f   libucrtd:wcrtomb.obj
 0001:000abf50       _wcrtomb                   004acf50 f   libucrtd:wcrtomb.obj
 0001:000abfb0       _wcrtomb_s                 004acfb0 f   libucrtd:wcrtomb.obj
 0001:000ac110       _wcsrtombs                 004ad110 f   libucrtd:wcrtomb.obj
 0001:000ac140       _wcsrtombs_s               004ad140 f   libucrtd:wcrtomb.obj
 0001:000ac560       _wctob                     004ad560 f   libucrtd:wcrtomb.obj
 0001:000ac600       ___acrt_initialize_sse2    004ad600 f   libucrtd:mathfcns.obj
 0001:000ac620       __set_SSE2_enable          004ad620 f   libucrtd:mathfcns.obj
 0001:000ac680       __CIlog10                  004ad680 f   libucrtd:log10_impl.obj
 0001:000ac6bb       __CIlog10_default          004ad6bb f   libucrtd:log10_impl.obj
 0001:000ac6cf       __log10_default            004ad6cf     libucrtd:log10_impl.obj
 0001:000ac7e0       __CIlog10_pentium4         004ad7e0 f   libucrtd:log10_pentium4.obj
 0001:000ac7f8       __log10_pentium4           004ad7f8     libucrtd:log10_pentium4.obj
 0001:000acb20       ___libm_error_support      004adb20 f   libucrtd:libm_error.obj
 0001:000ad250       ___libm_setusermatherr     004ae250 f   libucrtd:libm_error.obj
 0001:000ad290       __ceil_default             004ae290 f   libucrtd:ceil.obj
 0001:000ad3f0       ??$__acrt_fenv_shift_bits@W4__acrt_fenv_abstract_control@@@@YA?AW4__acrt_fenv_abstract_control@@W40@0I@Z 004ae3f0 f i libucrtd:_fenvutils.obj
 0001:000ad420       ??$__acrt_fenv_shift_bits@W4__acrt_fenv_abstract_status@@@@YA?AW4__acrt_fenv_abstract_status@@W40@0I@Z 004ae420 f i libucrtd:_fenvutils.obj
 0001:000ad450       ??$__acrt_fenv_translate_bit@W4__acrt_fenv_abstract_control@@W4__acrt_fenv_machine_sse_control@@@@YA?AW4__acrt_fenv_abstract_control@@W4__acrt_fenv_machine_sse_control@@0W40@1@Z 004ae450 f i libucrtd:_fenvutils.obj
 0001:000ad4a0       ??$__acrt_fenv_translate_bit@W4__acrt_fenv_abstract_control@@W4__acrt_fenv_machine_x87_control@@@@YA?AW4__acrt_fenv_abstract_control@@W4__acrt_fenv_machine_x87_control@@0W40@1@Z 004ae4a0 f i libucrtd:_fenvutils.obj
 0001:000ad4f0       ??$__acrt_fenv_translate_bit@W4__acrt_fenv_abstract_status@@W4__acrt_fenv_machine_sse_status@@@@YA?AW4__acrt_fenv_abstract_status@@W4__acrt_fenv_machine_sse_status@@0W40@1@Z 004ae4f0 f i libucrtd:_fenvutils.obj
 0001:000ad540       ??$__acrt_fenv_translate_bit@W4__acrt_fenv_abstract_status@@W4__acrt_fenv_machine_x87_status@@@@YA?AW4__acrt_fenv_abstract_status@@W4__acrt_fenv_machine_x87_status@@0W40@1@Z 004ae540 f i libucrtd:_fenvutils.obj
 0001:000ad590       ??$__acrt_fenv_translate_bit@W4__acrt_fenv_machine_sse_control@@W4__acrt_fenv_abstract_control@@@@YA?AW4__acrt_fenv_machine_sse_control@@W4__acrt_fenv_abstract_control@@0W40@1@Z 004ae590 f i libucrtd:_fenvutils.obj
 0001:000ad5e0       ??$__acrt_fenv_translate_bit@W4__acrt_fenv_machine_sse_status@@W4__acrt_fenv_abstract_status@@@@YA?AW4__acrt_fenv_machine_sse_status@@W4__acrt_fenv_abstract_status@@0W40@1@Z 004ae5e0 f i libucrtd:_fenvutils.obj
 0001:000ad630       ??$__acrt_fenv_translate_bit@W4__acrt_fenv_machine_x87_control@@W4__acrt_fenv_abstract_control@@@@YA?AW4__acrt_fenv_machine_x87_control@@W4__acrt_fenv_abstract_control@@0W40@1@Z 004ae630 f i libucrtd:_fenvutils.obj
 0001:000ad680       ??$__acrt_fenv_translate_bit@W4__acrt_fenv_machine_x87_status@@W4__acrt_fenv_abstract_status@@@@YA?AW4__acrt_fenv_machine_x87_status@@W4__acrt_fenv_abstract_status@@0W40@1@Z 004ae680 f i libucrtd:_fenvutils.obj
 0001:000ad6d0       ??$__acrt_fenv_unshift_bits@W4__acrt_fenv_abstract_control@@@@YA?AW4__acrt_fenv_abstract_control@@W40@0I@Z 004ae6d0 f i libucrtd:_fenvutils.obj
 0001:000ad700       ??$__acrt_fenv_unshift_bits@W4__acrt_fenv_abstract_status@@@@YA?AW4__acrt_fenv_abstract_status@@W40@0I@Z 004ae700 f i libucrtd:_fenvutils.obj
 0001:000ae3c0       ??I@YA?AW4__acrt_fenv_abstract_control@@W40@0@Z 004af3c0 f i libucrtd:_fenvutils.obj
 0001:000ae3d0       ??I@YA?AW4__acrt_fenv_abstract_status@@W40@0@Z 004af3d0 f i libucrtd:_fenvutils.obj
 0001:000ae3e0       ??I@YA?AW4__acrt_fenv_machine_sse_control@@W40@0@Z 004af3e0 f i libucrtd:_fenvutils.obj
 0001:000ae400       ??I@YA?AW4__acrt_fenv_machine_sse_status@@W40@0@Z 004af400 f i libucrtd:_fenvutils.obj
 0001:000ae410       ??I@YA?AW4__acrt_fenv_machine_x87_control@@W40@0@Z 004af410 f i libucrtd:_fenvutils.obj
 0001:000ae430       ??I@YA?AW4__acrt_fenv_machine_x87_status@@W40@0@Z 004af430 f i libucrtd:_fenvutils.obj
 0001:000ae440       ??U@YA?AW4__acrt_fenv_abstract_control@@W40@0@Z 004af440 f i libucrtd:_fenvutils.obj
 0001:000ae450       ??U@YA?AW4__acrt_fenv_abstract_status@@W40@0@Z 004af450 f i libucrtd:_fenvutils.obj
 0001:000ae460       ??U@YA?AW4__acrt_fenv_machine_sse_control@@W40@0@Z 004af460 f i libucrtd:_fenvutils.obj
 0001:000ae480       ??U@YA?AW4__acrt_fenv_machine_x87_control@@W40@0@Z 004af480 f i libucrtd:_fenvutils.obj
 0001:000ae4a0       ??_5@YAAAW4__acrt_fenv_abstract_control@@AAW40@W40@@Z 004af4a0 f i libucrtd:_fenvutils.obj
 0001:000ae4c0       ??_5@YAAAW4__acrt_fenv_abstract_status@@AAW40@W40@@Z 004af4c0 f i libucrtd:_fenvutils.obj
 0001:000ae4e0       ??_5@YAAAW4__acrt_fenv_machine_sse_control@@AAW40@W40@@Z 004af4e0 f i libucrtd:_fenvutils.obj
 0001:000ae510       ??_5@YAAAW4__acrt_fenv_machine_sse_status@@AAW40@W40@@Z 004af510 f i libucrtd:_fenvutils.obj
 0001:000ae530       ??_5@YAAAW4__acrt_fenv_machine_x87_control@@AAW40@W40@@Z 004af530 f i libucrtd:_fenvutils.obj
 0001:000ae560       ??_5@YAAAW4__acrt_fenv_machine_x87_status@@AAW40@W40@@Z 004af560 f i libucrtd:_fenvutils.obj
 0001:000ae580       ?__acrt_fenv_shift_abstract_sse_control@@YA?AW4__acrt_fenv_abstract_control@@W41@@Z 004af580 f i libucrtd:_fenvutils.obj
 0001:000ae5d0       ?__acrt_fenv_shift_abstract_sse_status@@YA?AW4__acrt_fenv_abstract_status@@W41@@Z 004af5d0 f i libucrtd:_fenvutils.obj
 0001:000ae5f0       ?__acrt_fenv_shift_abstract_x87_control@@YA?AW4__acrt_fenv_abstract_control@@W41@@Z 004af5f0 f i libucrtd:_fenvutils.obj
 0001:000ae640       ?__acrt_fenv_shift_abstract_x87_status@@YA?AW4__acrt_fenv_abstract_status@@W41@@Z 004af640 f i libucrtd:_fenvutils.obj
 0001:000ae660       ?__acrt_fenv_unshift_abstract_sse_control@@YA?AW4__acrt_fenv_abstract_control@@W41@@Z 004af660 f i libucrtd:_fenvutils.obj
 0001:000ae6b0       ?__acrt_fenv_unshift_abstract_sse_status@@YA?AW4__acrt_fenv_abstract_status@@W41@@Z 004af6b0 f i libucrtd:_fenvutils.obj
 0001:000ae6d0       ?__acrt_fenv_unshift_abstract_x87_control@@YA?AW4__acrt_fenv_abstract_control@@W41@@Z 004af6d0 f i libucrtd:_fenvutils.obj
 0001:000ae720       ?__acrt_fenv_unshift_abstract_x87_status@@YA?AW4__acrt_fenv_abstract_status@@W41@@Z 004af720 f i libucrtd:_fenvutils.obj
 0001:000aed80       ___acrt_fenv_expand_round_control 004afd80 f   libucrtd:_fenvutils.obj
 0001:000aedd0       ___acrt_fenv_get_common_round_control 004afdd0 f   libucrtd:_fenvutils.obj
 0001:000aee40       ___acrt_fenv_get_control   004afe40 f   libucrtd:_fenvutils.obj
 0001:000aeee0       ___acrt_fenv_get_fp_status_word_from_exception_mask 004afee0 f   libucrtd:_fenvutils.obj
 0001:000aef30       ___acrt_fenv_get_status    004aff30 f   libucrtd:_fenvutils.obj
 0001:000aefc0       ___acrt_fenv_set_control   004affc0 f   libucrtd:_fenvutils.obj
 0001:000af010       ___acrt_fenv_set_status    004b0010 f   libucrtd:_fenvutils.obj
 0001:000af050       ?__c16rtomb_utf8@__crt_mbstring@@YAIPAD_SPAU_Mbstatet@@@Z 004b0050 f   libucrtd:c16rtomb.obj
 0001:000af2b0       _c16rtomb                  004b02b0 f   libucrtd:c16rtomb.obj
 0001:000af300       __fFEXP                    004b0300 f   libucrtd:87tran.obj
 0001:000af357       __rtinfpopse               004b0357     libucrtd:87tran.obj
 0001:000af359       __rtinfnpopse              004b0359     libucrtd:87tran.obj
 0001:000af369       __fFLN                     004b0369     libucrtd:87tran.obj
 0001:000af41e       __rtinfpop                 004b041e     libucrtd:87tran.obj
 0001:000af420       __rtinfnpop                004b0420     libucrtd:87tran.obj
 0001:000af430       __rtforexpinf              004b0430 f   libucrtd:87tran.obj
 0001:000af43d       __ffexpm1                  004b043d     libucrtd:87tran.obj
 0001:000af570       __trandisp1                004b0570 f   libucrtd:87disp.obj
 0001:000af5e5       __trandisp2                004b05e5 f   libucrtd:87disp.obj
 0001:000af67f       __rttospopde               004b067f     libucrtd:87disp.obj
 0001:000af684       __rttospop                 004b0684     libucrtd:87disp.obj
 0001:000af690       __rtnospop                 004b0690 f   libucrtd:87disp.obj
 0001:000af6a0       __rttosnpop                004b06a0 f   libucrtd:87disp.obj
 0001:000af6a1       __rtnospopde               004b06a1     libucrtd:87disp.obj
 0001:000af6a8       __rtzeropop                004b06a8     libucrtd:87disp.obj
 0001:000af6aa       __rtzeronpop               004b06aa     libucrtd:87disp.obj
 0001:000af6b0       __rtzerospop               004b06b0 f   libucrtd:87disp.obj
 0001:000af6bd       __rtonepop                 004b06bd     libucrtd:87disp.obj
 0001:000af6c0       __rtonenpop                004b06c0 f   libucrtd:87disp.obj
 0001:000af6d0       __tosnan1                  004b06d0 f   libucrtd:87disp.obj
 0001:000af700       __nosnan2                  004b0700 f   libucrtd:87disp.obj
 0001:000af710       __tosnan2                  004b0710 f   libucrtd:87disp.obj
 0001:000af740       __nan2                     004b0740 f   libucrtd:87disp.obj
 0001:000af780       __rtindfpop                004b0780 f   libucrtd:87disp.obj
 0001:000af782       __rtindfnpop               004b0782     libucrtd:87disp.obj
 0001:000af793       __rttosnpopde              004b0793     libucrtd:87disp.obj
 0001:000af7a0       __rtatan2inf               004b07a0 f   libucrtd:87disp.obj
 0001:000af7bd       __rtchsifneg               004b07bd     libucrtd:87disp.obj
 0001:000af860       ___setfflag                004b0860 f   libucrtd:fp_flags.obj
 0001:000af890       __twoToTOS                 004b0890 f   libucrtd:common.obj
 0001:000af8a5       __load_CW                  004b08a5 f   libucrtd:common.obj
 0001:000af8bc       __convertTOStoQNaN         004b08bc f   libucrtd:common.obj
 0001:000af8d5       __fload_withFB             004b08d5 f   libucrtd:common.obj
 0001:000af918       __checkTOS_withFB          004b0918 f   libucrtd:common.obj
 0001:000af92e       __fast_exit                004b092e f   libucrtd:common.obj
 0001:000af93b       __math_exit                004b093b f   libucrtd:common.obj
 0001:000af965       __check_overflow_exit      004b0965 f   libucrtd:common.obj
 0001:000af979       __check_range_exit         004b0979 f   libucrtd:common.obj
 0001:000afa80       __startTwoArgErrorHandling 004b0a80 f   libucrtd:genexcep.obj
 0001:000afa97       __startOneArgErrorHandling 004b0a97 f   libucrtd:genexcep.obj
 0001:000afaf0       __frnd                     004b0af0 f   libucrtd:frnd.obj
 0001:000afb10       __d_inttype                004b0b10 f   libucrtd:powhlp.obj
 0001:000afbc0       __powhlp                   004b0bc0 f   libucrtd:powhlp.obj
 0001:000afdd0       __87except                 004b0dd0 f   libucrtd:87except.obj
 0001:000b0040       __chgsign                  004b1040 f   libucrtd:ieeemisc.obj
 0001:000b0080       __chgsignf                 004b1080 f   libucrtd:ieeemisc.obj
 0001:000b00d0       __copysign                 004b10d0 f   libucrtd:ieeemisc.obj
 0001:000b0110       __copysignf                004b1110 f   libucrtd:ieeemisc.obj
 0001:000b0170       __finite                   004b1170 f   libucrtd:ieeemisc.obj
 0001:000b01a0       __fpclass                  004b11a0 f   libucrtd:ieeemisc.obj
 0001:000b02d0       __isnan                    004b12d0 f   libucrtd:ieeemisc.obj
 0001:000b0330       __logb                     004b1330 f   libucrtd:ieeemisc.obj
 0001:000b0490       __nextafter                004b1490 f   libucrtd:ieeemisc.obj
 0001:000b04c0       __scalb                    004b14c0 f   libucrtd:ieeemisc.obj
 0001:000b04f0       _ldexp                     004b14f0 f   libucrtd:ldexp.obj
 0001:000b08a0       _nextafter                 004b18a0 f   libucrtd:nextafter.obj
 0001:000b08d0       _nexttoward                004b18d0 f   libucrtd:nexttoward.obj
 0001:000b0e10       __d_int                    004b1e10 f   libucrtd:_test.obj
 0001:000b1160       __dtest                    004b2160 f   libucrtd:_test.obj
 0001:000b12c0       __fd_int                   004b22c0 f   libucrtd:_test.obj
 0001:000b1510       __fdtest                   004b2510 f   libucrtd:_test.obj
 0001:000b1610       __fperrraise               004b2610 f   libucrtd:_test.obj
 0001:000b1650       __ld_int                   004b2650 f   libucrtd:_test.obj
 0001:000b1670       __ldtest                   004b2670 f   libucrtd:_test.obj
 0001:000b1690       ??_4@YAAAW4__acrt_fenv_abstract_status@@AAW40@W40@@Z 004b2690 f i libucrtd:fegetexceptflag.obj
 0001:000b16b0       _fegetexceptflag           004b26b0 f   libucrtd:fegetexceptflag.obj
 0001:000b1710       ??S@YA?AW4__acrt_fenv_abstract_status@@W40@@Z 004b2710 f i libucrtd:fesetexceptflag.obj
 0001:000b1720       _fesetexceptflag           004b2720 f   libucrtd:fesetexceptflag.obj
 0001:000b1810       _fetestexcept              004b2810 f   libucrtd:fetestexcept.obj
 0001:000b1840       _UnhandledExceptionFilter@4 004b2840 f   kernel32:KERNEL32.dll
 0001:000b1846       _SetUnhandledExceptionFilter@4 004b2846 f   kernel32:KERNEL32.dll
 0001:000b184c       _GetCurrentProcess@0       004b284c f   kernel32:KERNEL32.dll
 0001:000b1852       _TerminateProcess@8        004b2852 f   kernel32:KERNEL32.dll
 0001:000b1858       _IsProcessorFeaturePresent@4 004b2858 f   kernel32:KERNEL32.dll
 0001:000b185e       _QueryPerformanceCounter@4 004b285e f   kernel32:KERNEL32.dll
 0001:000b1864       _GetCurrentProcessId@0     004b2864 f   kernel32:KERNEL32.dll
 0001:000b186a       _GetCurrentThreadId@0      004b286a f   kernel32:KERNEL32.dll
 0001:000b1870       _GetSystemTimeAsFileTime@4 004b2870 f   kernel32:KERNEL32.dll
 0001:000b1876       _InitializeSListHead@4     004b2876 f   kernel32:KERNEL32.dll
 0001:000b187c       _IsDebuggerPresent@0       004b287c f   kernel32:KERNEL32.dll
 0001:000b1882       _GetStartupInfoW@4         004b2882 f   kernel32:KERNEL32.dll
 0001:000b1888       _GetModuleHandleW@4        004b2888 f   kernel32:KERNEL32.dll
 0001:000b188e       _InterlockedPushEntrySList@8 004b288e f   kernel32:KERNEL32.dll
 0001:000b1894       _InterlockedFlushSList@4   004b2894 f   kernel32:KERNEL32.dll
 0001:000b189a       _RtlUnwind@16              004b289a f   kernel32:KERNEL32.dll
 0001:000b18a0       _GetLastError@0            004b28a0 f   kernel32:KERNEL32.dll
 0001:000b18a6       _SetLastError@4            004b28a6 f   kernel32:KERNEL32.dll
 0001:000b18ac       _EnterCriticalSection@4    004b28ac f   kernel32:KERNEL32.dll
 0001:000b18b2       _LeaveCriticalSection@4    004b28b2 f   kernel32:KERNEL32.dll
 0001:000b18b8       _DeleteCriticalSection@4   004b28b8 f   kernel32:KERNEL32.dll
 0001:000b18be       _InitializeCriticalSectionAndSpinCount@8 004b28be f   kernel32:KERNEL32.dll
 0001:000b18c4       _TlsAlloc@0                004b28c4 f   kernel32:KERNEL32.dll
 0001:000b18ca       _TlsGetValue@4             004b28ca f   kernel32:KERNEL32.dll
 0001:000b18d0       _TlsSetValue@8             004b28d0 f   kernel32:KERNEL32.dll
 0001:000b18d6       _TlsFree@4                 004b28d6 f   kernel32:KERNEL32.dll
 0001:000b18dc       _FreeLibrary@4             004b28dc f   kernel32:KERNEL32.dll
 0001:000b18e2       _GetProcAddress@8          004b28e2 f   kernel32:KERNEL32.dll
 0001:000b18e8       _LoadLibraryExW@12         004b28e8 f   kernel32:KERNEL32.dll
 0001:000b18ee       _EncodePointer@4           004b28ee f   kernel32:KERNEL32.dll
 0001:000b18f4       _RaiseException@16         004b28f4 f   kernel32:KERNEL32.dll
 0001:000b18fa       _ReadFile@20               004b28fa f   kernel32:KERNEL32.dll
 0001:000b1900       _ExitProcess@4             004b2900 f   kernel32:KERNEL32.dll
 0001:000b1906       _GetModuleHandleExW@12     004b2906 f   kernel32:KERNEL32.dll
 0001:000b190c       _GetStdHandle@4            004b290c f   kernel32:KERNEL32.dll
 0001:000b1912       _WriteFile@20              004b2912 f   kernel32:KERNEL32.dll
 0001:000b1918       _GetModuleFileNameW@12     004b2918 f   kernel32:KERNEL32.dll
 0001:000b191e       _GetCommandLineA@0         004b291e f   kernel32:KERNEL32.dll
 0001:000b1924       _GetCommandLineW@0         004b2924 f   kernel32:KERNEL32.dll
 0001:000b192a       _HeapAlloc@12              004b292a f   kernel32:KERNEL32.dll
 0001:000b1930       _HeapValidate@12           004b2930 f   kernel32:KERNEL32.dll
 0001:000b1936       _GetSystemInfo@4           004b2936 f   kernel32:KERNEL32.dll
 0001:000b193c       _GetDateFormatW@24         004b293c f   kernel32:KERNEL32.dll
 0001:000b1942       _GetTimeFormatW@24         004b2942 f   kernel32:KERNEL32.dll
 0001:000b1948       _CompareStringW@24         004b2948 f   kernel32:KERNEL32.dll
 0001:000b194e       _LCMapStringW@24           004b294e f   kernel32:KERNEL32.dll
 0001:000b1954       _GetLocaleInfoW@16         004b2954 f   kernel32:KERNEL32.dll
 0001:000b195a       _IsValidLocale@8           004b295a f   kernel32:KERNEL32.dll
 0001:000b1960       _GetUserDefaultLCID@0      004b2960 f   kernel32:KERNEL32.dll
 0001:000b1966       _EnumSystemLocalesW@8      004b2966 f   kernel32:KERNEL32.dll
 0001:000b196c       _GetFileType@4             004b296c f   kernel32:KERNEL32.dll
 0001:000b1972       _CloseHandle@4             004b2972 f   kernel32:KERNEL32.dll
 0001:000b1978       _GetFileSizeEx@8           004b2978 f   kernel32:KERNEL32.dll
 0001:000b197e       _SetFilePointerEx@20       004b297e f   kernel32:KERNEL32.dll
 0001:000b1984       _GetConsoleMode@8          004b2984 f   kernel32:KERNEL32.dll
 0001:000b198a       _ReadConsoleW@20           004b298a f   kernel32:KERNEL32.dll
 0001:000b1990       _MultiByteToWideChar@24    004b2990 f   kernel32:KERNEL32.dll
 0001:000b1996       _GetCurrentThread@0        004b2996 f   kernel32:KERNEL32.dll
 0001:000b199c       _DeleteFileW@4             004b299c f   kernel32:KERNEL32.dll
 0001:000b19a2       _MoveFileExW@12            004b29a2 f   kernel32:KERNEL32.dll
 0001:000b19a8       _FlushFileBuffers@4        004b29a8 f   kernel32:KERNEL32.dll
 0001:000b19ae       _GetConsoleCP@0            004b29ae f   kernel32:KERNEL32.dll
 0001:000b19b4       _OutputDebugStringW@4      004b29b4 f   kernel32:KERNEL32.dll
 0001:000b19ba       _FindClose@4               004b29ba f   kernel32:KERNEL32.dll
 0001:000b19c0       _FindFirstFileExW@24       004b29c0 f   kernel32:KERNEL32.dll
 0001:000b19c6       _FindNextFileW@8           004b29c6 f   kernel32:KERNEL32.dll
 0001:000b19cc       _IsValidCodePage@4         004b29cc f   kernel32:KERNEL32.dll
 0001:000b19d2       _GetACP@0                  004b29d2 f   kernel32:KERNEL32.dll
 0001:000b19d8       _GetOEMCP@0                004b29d8 f   kernel32:KERNEL32.dll
 0001:000b19de       _GetCPInfo@8               004b29de f   kernel32:KERNEL32.dll
 0001:000b19e4       _WideCharToMultiByte@32    004b29e4 f   kernel32:KERNEL32.dll
 0001:000b19ea       _GetEnvironmentStringsW@0  004b29ea f   kernel32:KERNEL32.dll
 0001:000b19f0       _FreeEnvironmentStringsW@4 004b29f0 f   kernel32:KERNEL32.dll
 0001:000b19f6       _SetEnvironmentVariableW@8 004b29f6 f   kernel32:KERNEL32.dll
 0001:000b19fc       _SetStdHandle@8            004b29fc f   kernel32:KERNEL32.dll
 0001:000b1a02       _GetStringTypeW@16         004b2a02 f   kernel32:KERNEL32.dll
 0001:000b1a08       _GetProcessHeap@0          004b2a08 f   kernel32:KERNEL32.dll
 0001:000b1a0e       _SetConsoleCtrlHandler@8   004b2a0e f   kernel32:KERNEL32.dll
 0001:000b1a14       _HeapFree@12               004b2a14 f   kernel32:KERNEL32.dll
 0001:000b1a1a       _HeapReAlloc@16            004b2a1a f   kernel32:KERNEL32.dll
 0001:000b1a20       _HeapSize@12               004b2a20 f   kernel32:KERNEL32.dll
 0001:000b1a26       _HeapQueryInformation@20   004b2a26 f   kernel32:KERNEL32.dll
 0001:000b1a2c       _WriteConsoleW@20          004b2a2c f   kernel32:KERNEL32.dll
 0001:000b1a32       _CreateFileW@28            004b2a32 f   kernel32:KERNEL32.dll
 0001:000b1a38       _GetTimeZoneInformation@4  004b2a38 f   kernel32:KERNEL32.dll
 0001:000b1a3e       _SetEndOfFile@4            004b2a3e f   kernel32:KERNEL32.dll
 0001:000b1a44       _DecodePointer@4           004b2a44 f   kernel32:KERNEL32.dll
 0001:000b1a50       __FindPESection            004b2a50 f   LIBCMTD:pesect.obj
 0001:000b1ae0       __IsNonwritableInCurrentImage 004b2ae0 f   LIBCMTD:pesect.obj
 0001:000b1c60       __ValidateImageBase        004b2c60 f   LIBCMTD:pesect.obj
 0001:000b1ce0       __allshl                   004b2ce0 f   LIBCMTD:llshl.obj
 0001:000b1d10       __aulldiv                  004b2d10 f   LIBCMTD:ulldiv.obj
 0001:000b1da0       __aullrem                  004b2da0 f   LIBCMTD:ullrem.obj
 0001:000b1e40       ??1type_info@@UAE@XZ       004b2e40 f   LIBCMTD:std_type_info_static.obj
 0001:000b1e60       ??_Gtype_info@@UAEPAXI@Z   004b2e60 f i LIBCMTD:std_type_info_static.obj
 0001:000b1e60       ??_Etype_info@@UAEPAXI@Z   004b2e60 f i LIBCMTD:std_type_info_static.obj
 0001:000b1ea0       ??3@YAXPAXI@Z              004b2ea0 f   LIBCMTD:delete_scalar_size.obj
 0001:000b1ec0       __alldiv                   004b2ec0 f   LIBCMTD:lldiv.obj
 0001:000b1fa0       __allmul                   004b2fa0 f   LIBCMTD:llmul.obj
 0001:000b1ff0       __alloca_probe             004b2ff0 f   LIBCMTD:chkstk.obj
 0001:000b1ff0       __chkstk                   004b2ff0 f   LIBCMTD:chkstk.obj
 0001:000b2030       __allrem                   004b3030 f   LIBCMTD:llrem.obj
 0001:000b2110       __aullshr                  004b3110 f   LIBCMTD:ullshr.obj
 0001:000b2140       __ftol2_sse                004b3140 f   LIBCMTD:ftol2.obj
 0001:000b2149       __ftol2_pentium4           004b3149 f   LIBCMTD:ftol2.obj
 0001:000b215c       __ftol2_sse_excpt          004b315c f   LIBCMTD:ftol2.obj
 0001:000b2180       __ftol2                    004b3180 f   LIBCMTD:ftol2.obj
 0001:000b2230       __SEH_prolog4              004b3230 f   LIBCMTD:sehprolg4.obj
 0001:000b2276       __SEH_epilog4              004b3276 f   LIBCMTD:sehprolg4.obj
 0001:000b22b0       __alloca_probe_16          004b32b0 f   LIBCMTD:alloca16.obj
 0001:000b22c6       __alloca_probe_8           004b32c6     LIBCMTD:alloca16.obj
 0001:000b22f0       ??3@YAXPAX@Z               004b32f0 f   LIBCMTD:delete_scalar.obj
 0001:000b2520       _memcmp                    004b3520 f   libvcruntimed:memcmp.obj
 0001:000b3020       _strrchr                   004b4020 f   libvcruntimed:strrchr.obj
 0001:000b31b0       _strchr                    004b41b0 f   libvcruntimed:strchr.obj
 0001:000b321e       ___from_strstr_to_strchr   004b421e     libvcruntimed:strchr.obj
 0001:000b3330       _wcschr                    004b4330 f   libvcruntimed:wcschr.obj
 0002:00000000       ___xc_a                    004bb000     LIBCMTD:initializers.obj
 0002:00000208       ___xc_z                    004bb208     LIBCMTD:initializers.obj
 0002:0000030c       ___xi_a                    004bb30c     LIBCMTD:initializers.obj
 0002:00000618       ___acrt_stdio_initializer  004bb618     libucrtd:stdio_initializer.obj
 0002:0000061c       ___acrt_multibyte_initializer 004bb61c     libucrtd:multibyte_initializer.obj
 0002:00000620       ___acrt_timeset_initializer 004bb620     libucrtd:timeset_initializer.obj
 0002:00000624       ___acrt_tran_sse2_initializer 004bb624     libucrtd:sse2_initializer.obj
 0002:0000072c       ___xi_z                    004bb72c     LIBCMTD:initializers.obj
 0002:00000830       ___xp_a                    004bb830     LIBCMTD:initializers.obj
 0002:00000934       ___acrt_locale_terminator  004bb934     libucrtd:locale_initializer.obj
 0002:00000938       ___dcrt_console_output_terminator 004bb938     libucrtd:console_output_initializer.obj
 0002:00000a40       ___acrt_stdio_terminator   004bba40     libucrtd:stdio_initializer.obj
 0002:00000b44       ___xp_z                    004bbb44     LIBCMTD:initializers.obj
 0002:00000c48       ___xt_a                    004bbc48     LIBCMTD:initializers.obj
 0002:00000d4c       ___xt_z                    004bbd4c     LIBCMTD:initializers.obj
 0002:00000e50       ??_C@_09CAGALGBH@g_funcs?4h@ 004bbe50     extractfuncs.obj
 0002:00000e5c       ??_C@_0O@JIFNGALB@g_func_decs?4h@ 004bbe5c     extractfuncs.obj
 0002:00000e6c       ??_C@_01LFCBOECM@?4@       004bbe6c     extractfuncs.obj
 0002:00000e70       ??_C@_01KICIPPFI@?2@       004bbe70     extractfuncs.obj
 0002:00000e74       ??_C@_0M@FCHOHLON@g_funcs?4tmp@ 004bbe74     extractfuncs.obj
 0002:00000e84       ??_C@_0BF@LKJHJGEN@?$HL?$CC?$CFs?$CC?0?5?$CIbyte?5?$CK?$CJ?$CFs?$HN?0?6@ 004bbe84     extractfuncs.obj
 0002:00000ea0       ??_C@_07CEMGAJGD@?$HL0?0?50?$HN?6@ 004bbea0     extractfuncs.obj
 0002:00000eac       ??_C@_02JDPG@rb@           004bbeac     extractfuncs.obj
 0002:00000eb0       ??_C@_0BB@EBILFMCD@debug?2g_save?4obj@ 004bbeb0     extractfuncs.obj
 0002:00000ec4       ??_C@_0BB@NJFPCMFN@debug?2g_save?4sbr@ 004bbec4     extractfuncs.obj
 0002:00000ed8       ??_C@_0BD@DCNELBJL@release?2g_save?4obj@ 004bbed8     extractfuncs.obj
 0002:00000ef0       ??_C@_0BD@KKAAMBOF@release?2g_save?4sbr@ 004bbef0     extractfuncs.obj
 0002:00000f08       ??_C@_0BA@MFJDKPFO@g_func_decs?4tmp@ 004bbf08     extractfuncs.obj
 0002:00000f1c       ??_C@_0M@JEGJJKJ@extern?5?$CFs?$DL?6@ 004bbf1c     extractfuncs.obj
 0002:00000f2c       ??_C@_0DB@CLKPMKME@Updated?5the?5function?5table?0?5rec@ 004bbf2c     extractfuncs.obj
 0002:00000f68       ??_C@_09BGDGKKKF@GetBotAPI@ 004bbf68     extractfuncs.obj
 0002:00000f74       ??_C@_04GHJNJNPO@main@     004bbf74     extractfuncs.obj
 0002:00000f7c       ??_C@_07HGGPAHEN@WinMain@  004bbf7c     extractfuncs.obj
 0002:00000f88       ??_C@_01CLKCMJKC@?5@       004bbf88     extractfuncs.obj
 0002:00000f8c       ??_C@_04JKNALMKK@qmax@     004bbf8c     extractfuncs.obj
 0002:00000f94       ??_C@_04IIFLFIMF@qmin@     004bbf94     extractfuncs.obj
 0002:00000f9c       ??_C@_03FPNDANKK@F?$CFd@   004bbf9c     extractfuncs.obj
 0002:00000fa0       ??_C@_08GCOIMEJE@bg_lib?4c@ 004bbfa0     extractfuncs.obj
 0002:00000fac       ??_C@_0BB@CEADDNCK@error?5opening?5?$CFs@ 004bbfac     extractfuncs.obj
 0002:00000fc0       ??_C@_06GGHJAEBN@static@   004bbfc0     extractfuncs.obj
 0002:00000fc8       ??_C@_0BF@DEOAGBJE@screwing?5up?5file?5?$CFs?6@ 004bbfc8     extractfuncs.obj
 0002:00000fe4       ??_C@_0BC@CBHACCGB@error?5opening?5?$CFs?6@ 004bbfe4     extractfuncs.obj
 0002:00000ffc       ??_C@_02GMLFBBN@wb@        004bbffc     extractfuncs.obj
 0002:00001000       ??_C@_0BO@FAHNIHBH@USAGE?3?5screwup?5?$DMfile?5filter?$DO?6@ 004bc000     extractfuncs.obj
 0002:00001024       ??_C@_0BE@DPLJFOML@openlog?5?$DMfilename?$DO?6@ 004bc024     l_log.obj
 0002:0000103c       ??_C@_0BP@DENECPGL@log?5file?5?$CFs?5is?5already?5opened?6@ 004bc03c     l_log.obj
 0002:00001064       ??_C@_0BM@MCGFOLNG@can?8t?5open?5the?5log?5file?5?$CFs?6@ 004bc064     l_log.obj
 0002:00001088       ??_C@_0BG@EDNKAKOJ@no?5log?5file?5to?5close?6@ 004bc088     l_log.obj
 0002:000010a4       ??_C@_0BJ@GMGFLNFJ@can?8t?5close?5log?5file?5?$CFs?6@ 004bc0a4     l_log.obj
 0002:000010c4       ??_C@_02HEBPBKGD@if@       004bc0c4     l_precomp.obj
 0002:000010c8       ??_C@_05LOELCHJN@ifdef@    004bc0c8     l_precomp.obj
 0002:000010d0       ??_C@_06ENONKJGC@ifndef@   004bc0d0     l_precomp.obj
 0002:000010d8       ??_C@_04GNFOIEOK@elif@     004bc0d8     l_precomp.obj
 0002:000010e0       ??_C@_04FHMCPBIP@else@     004bc0e0     l_precomp.obj
 0002:000010e8       ??_C@_05PAODFFED@endif@    004bc0e8     l_precomp.obj
 0002:000010f0       ??_C@_07FHOHOHLG@include@  004bc0f0     l_precomp.obj
 0002:000010fc       ??_C@_06EPMMJFDC@define@   004bc0fc     l_precomp.obj
 0002:00001104       ??_C@_05PKCPKOLM@undef@    004bc104     l_precomp.obj
 0002:0000110c       ??_C@_04HJPCFDOP@line@     004bc10c     l_precomp.obj
 0002:00001114       ??_C@_05KKCIMGE@error@     004bc114     l_precomp.obj
 0002:0000111c       ??_C@_06PGFLMPLC@pragma@   004bc11c     l_precomp.obj
 0002:00001124       ??_C@_04KGAGIKCD@eval@     004bc124     l_precomp.obj
 0002:0000112c       ??_C@_09BLDJOION@evalfloat@ 004bc12c     l_precomp.obj
 0002:00001138       ??_C@_07FNDAMPLK@evalint@  004bc138     l_precomp.obj
 0002:00001144       ??_C@_0BF@BJHHBLMD@Q_strncpyz?3?5NULL?5src@ 004bc144     l_precomp.obj
 0002:00001160       ??_C@_0BJ@OLBOPICM@Q_strncpyz?3?5destsize?5?$DM?51@ 004bc160     l_precomp.obj
 0002:00001180       ??_C@_0BI@DBGANKKJ@?$CFs?5recursively?5included@ 004bc180     l_precomp.obj
 0002:0000119c       ??_C@_0BE@PFGKJJGH@out?5of?5token?5space?6@ 004bc19c     l_precomp.obj
 0002:000011b4       ??_C@_0P@IFDFMCIL@missing?5?$CDendif@ 004bc1b4     l_precomp.obj
 0002:000011c8       ??_C@_0BI@CAHOPMH@define?5?$CFs?5missing?5parms@ 004bc1c8     l_precomp.obj
 0002:000011e4       ??_C@_0CE@LBMAFIHE@define?5with?5more?5than?5?$CFd?5parame@ 004bc1e4     l_precomp.obj
 0002:00001210       ??_C@_01ODHLEDKK@?$CI@     004bc210     l_precomp.obj
 0002:00001214       ??_C@_0BO@CIDPMME@define?5?$CFs?5with?5too?5many?5parms@ 004bc214     l_precomp.obj
 0002:00001238       ??_C@_0BN@LKHLCMOF@define?5?$CFs?5has?5too?5many?5parms@ 004bc238     l_precomp.obj
 0002:0000125c       ??_C@_0BF@PPHAFKBJ@define?5?$CFs?5incomplete@ 004bc25c     l_precomp.obj
 0002:00001278       ??_C@_01IHBHIGKO@?0@       004bc278     l_precomp.obj
 0002:0000127c       ??_C@_0BB@HBCKCGHH@too?5many?5comma?8s@ 004bc27c     l_precomp.obj
 0002:00001290       ??_C@_01PKGAHCOL@?$CJ@     004bc290     l_precomp.obj
 0002:00001294       ??_C@_0BF@GHJFDBAE@too?5few?5define?5parms@ 004bc294     l_precomp.obj
 0002:000012b0       ??_C@_01BJJEKLCA@?$CC@     004bc2b0     l_precomp.obj
 0002:000012b4       ??_C@_04CFMCHKOF@?$CF4d?3@ 004bc2b4     l_precomp.obj
 0002:000012bc       ??_C@_03EEBNCBOD@?5?$CFs@  004bc2bc     l_precomp.obj
 0002:000012c0       ??_C@_01EEMJAFIK@?6@       004bc2c0     l_precomp.obj
 0002:000012c4       ??_C@_08ICCNKGAE@__LINE__@ 004bc2c4     l_precomp.obj
 0002:000012d0       ??_C@_08FMJNKKCK@__FILE__@ 004bc2d0     l_precomp.obj
 0002:000012dc       ??_C@_08HHMBOFCN@__DATE__@ 004bc2dc     l_precomp.obj
 0002:000012e8       ??_C@_08JBLMAOHN@__TIME__@ 004bc2e8     l_precomp.obj
 0002:000012f4       ??_C@_02DPKJAMEF@?$CFd@    004bc2f4     l_precomp.obj
 0002:000012f8       ??_C@_0BH@FGJBFJMP@can?8t?5stringize?5tokens@ 004bc2f8     l_precomp.obj
 0002:00001314       ??_C@_0CO@FIAHGJJO@stringizing?5operator?5without?5de@ 004bc314     l_precomp.obj
 0002:0000134c       ??_C@_0BH@DDBOIAKK@can?8t?5merge?5?$CFs?5with?5?$CFs@ 004bc34c     l_precomp.obj
 0002:00001368       ??_C@_0BL@MDEODINB@?$CDinclude?5without?5file?5name@ 004bc368     l_precomp.obj
 0002:00001388       ??_C@_0BM@MKHAAFFA@?$CDinclude?5missing?5trailing?5?$DO@ 004bc388     l_precomp.obj
 0002:000013ac       ??_C@_0CH@BILCEFJF@?$CDinclude?5without?5file?5name?5betw@ 004bc3ac     l_precomp.obj
 0002:000013dc       ??_C@_0BC@ELACKGMC@file?5?$CFs?5not?5found@ 004bc3dc     l_precomp.obj
 0002:000013f4       ??_C@_0BD@IELPOLI@undef?5without?5name@ 004bc3f4     l_precomp.obj
 0002:0000140c       ??_C@_0BI@LCFFDKMI@expected?5name?0?5found?5?$CFs@ 004bc40c     l_precomp.obj
 0002:00001428       ??_C@_0P@CHOGDKAE@can?8t?5undef?5?$CFs@ 004bc428     l_precomp.obj
 0002:0000143c       ??_C@_0BF@EDHDDJPD@?$CDdefine?5without?5name@ 004bc43c     l_precomp.obj
 0002:00001458       ??_C@_0CG@PGNFJILG@expected?5name?5after?5?$CDdefine?0?5fo@ 004bc458     l_precomp.obj
 0002:00001488       ??_C@_0BC@PNHKPGCD@can?8t?5redefine?5?$CFs@ 004bc488     l_precomp.obj
 0002:000014a0       ??_C@_0BD@PFJBIMHG@redefinition?5of?5?$CFs@ 004bc4a0     l_precomp.obj
 0002:000014b8       ??_C@_0BK@OHINAMCG@expected?5define?5parameter@ 004bc4b8     l_precomp.obj
 0002:000014d8       ??_C@_0BJ@CDAIKNHD@invalid?5define?5parameter@ 004bc4d8     l_precomp.obj
 0002:000014f8       ??_C@_0BP@HPJAJOKD@two?5the?5same?5define?5parameters@ 004bc4f8     l_precomp.obj
 0002:00001520       ??_C@_0CB@JHGJFPBB@define?5parameters?5not?5terminate@ 004bc520     l_precomp.obj
 0002:00001548       ??_C@_0BG@PHCEBIF@define?5not?5terminated@ 004bc548     l_precomp.obj
 0002:00001564       ??_C@_0CF@FNOAJAKF@recursive?5define?5?$CIremoved?5recur@ 004bc564     l_precomp.obj
 0002:00001590       ??_C@_02IEBMKJDF@?$CD?$CD@ 004bc590     l_precomp.obj
 0002:00001594       ??_C@_0BJ@FCHLMCOB@define?5with?5misplaced?5?$CD?$CD@ 004bc594     l_precomp.obj
 0002:000015b4       ??_C@_07GADFAJMP@?$CKextern@ 004bc5b4     l_precomp.obj
 0002:000015c0       ??_C@_0BE@IMBJDEPK@?$CDifdef?5without?5name@ 004bc5c0     l_precomp.obj
 0002:000015d8       ??_C@_0CF@NLPAJGLD@expected?5name?5after?5?$CDifdef?0?5fou@ 004bc5d8     l_precomp.obj
 0002:00001604       ??_C@_0BA@NPOEMJCD@misplaced?5?$CDelse@ 004bc604     l_precomp.obj
 0002:00001618       ??_C@_0BC@LGACBGNI@?$CDelse?5after?5?$CDelse@ 004bc618     l_precomp.obj
 0002:00001630       ??_C@_0BB@CPALJMLI@misplaced?5?$CDendif@ 004bc630     l_precomp.obj
 0002:00001644       ??_C@_0BK@PKFCEECE@syntax?5error?5in?5?$CDif?1?$CDelif@ 004bc644     l_precomp.obj
 0002:00001664       ??_C@_07MJAJDDLG@defined@  004bc664     l_precomp.obj
 0002:00001670       ??_C@_0BP@FCIAONAD@undefined?5name?5?$CFs?5in?5?$CDif?1?$CDelif@ 004bc670     l_precomp.obj
 0002:00001698       ??_C@_0CC@OHHFNCNF@defined?5without?5name?5in?5?$CDif?1?$CDel@ 004bc698     l_precomp.obj
 0002:000016c0       ??_C@_0BB@IEFGIMAH@out?5value?5space?6@ 004bc6c0     l_precomp.obj
 0002:000016d4       ??_C@_0BP@FNAPCIDI@defined?5without?5?$CJ?5in?5?$CDif?1?$CDelif@ 004bc6d4     l_precomp.obj
 0002:000016fc       ??_C@_0CC@DNHHPAPI@misplaced?5minus?5sign?5in?5?$CDif?1?$CDel@ 004bc6fc     l_precomp.obj
 0002:00001724       ??_C@_0BJ@FLJMGJFD@too?5many?5?$CJ?5in?5?$CDif?1?$CDelsif@ 004bc724     l_precomp.obj
 0002:00001744       ??_C@_0DA@OGPMIBNF@illigal?5operator?5?$CFs?5on?5floating@ 004bc744     l_precomp.obj
 0002:00001780       ??_C@_0CA@FEDLLKBK@?$CB?5or?5?$HO?5after?5value?5in?5?$CDif?1?$CDelif@ 004bc780     l_precomp.obj
 0002:000017a8       ??_C@_0CI@GGOHGOKI@operator?5?$CFs?5after?5operator?5in?5?$CD@ 004bc7a8     l_precomp.obj
 0002:000017d8       ??_C@_0CB@PFAFLJI@invalid?5operator?5?$CFs?5in?5?$CDif?1?$CDeli@ 004bc7d8     l_precomp.obj
 0002:00001800       ??_C@_0BE@HPOEFGCE@out?5operator?5space?6@ 004bc800     l_precomp.obj
 0002:00001818       ??_C@_0BI@ONNIJHPK@unknown?5?$CFs?5in?5?$CDif?1?$CDelif@ 004bc818     l_precomp.obj
 0002:00001834       ??_C@_0BP@NIBGGAAE@trailing?5operator?5in?5?$CDif?1?$CDelif@ 004bc834     l_precomp.obj
 0002:0000185c       ??_C@_0BI@MJMEGLFD@too?5many?5?$CI?5in?5?$CDif?1?$CDelif@ 004bc85c     l_precomp.obj
 0002:00001878       ??_C@_0BL@BNPPJONA@mising?5values?5in?5?$CDif?1?$CDelif@ 004bc878     l_precomp.obj
 0002:00001898       ??_C@_0BJ@JILHHGIH@?3?5without?5?$DP?5in?5?$CDif?1?$CDelif@ 004bc898     l_precomp.obj
 0002:000018b8       ??_C@_0BH@CHBBNAOH@?$DP?5after?5?$DP?5in?5?$CDif?1?$CDelif@ 004bc8b8     l_precomp.obj
 0002:000018d4       ??_C@_0BJ@GGKGDEMC@no?5value?5after?5?$CDif?1?$CDelif@ 004bc8d4     l_precomp.obj
 0002:000018f4       ??_C@_0BP@GDBMMIIP@can?8t?5evaluate?5?$CFs?0?5not?5defined@ 004bc8f4     l_precomp.obj
 0002:0000191c       ??_C@_0BC@JLPCHENH@can?8t?5evaluate?5?$CFs@ 004bc91c     l_precomp.obj
 0002:00001934       ??_C@_0CH@DDGJDDBD@no?5leading?5?$CI?5after?5$evalint?1$ev@ 004bc934     l_precomp.obj
 0002:00001964       ??_C@_0BE@NEDCJHGJ@nothing?5to?5evaluate@ 004bc964     l_precomp.obj
 0002:0000197c       ??_C@_0BA@OFHILMEG@misplaced?5?$CDelif@ 004bc97c     l_precomp.obj
 0002:00001990       ??_C@_0BO@PLIOJNDH@?$CDline?5directive?5not?5supported@ 004bc990     l_precomp.obj
 0002:000019b4       ??_C@_00CNPNBAHC@@         004bc9b4     l_precomp.obj
 0002:000019b8       ??_C@_0BF@PIGJJAAO@?$CDerror?5directive?3?5?$CFs@ 004bc9b8     l_precomp.obj
 0002:000019d4       ??_C@_0CA@KICMIAFO@?$CDpragma?5directive?5not?5supported@ 004bc9d4     l_precomp.obj
 0002:000019fc       ??_C@_01JOAMLHOP@?9@       004bc9fc     l_precomp.obj
 0002:00001a00       ??_C@_05NBLIHODN@?$CF1?42f@ 004bca00     l_precomp.obj
 0002:00001a08       ??_C@_0BF@PIJDPBJF@found?5?$CD?5without?5name@ 004bca08     l_precomp.obj
 0002:00001a24       ??_C@_0BH@CKLPJCIG@found?5?$CD?5at?5end?5of?5line@ 004bca24     l_precomp.obj
 0002:00001a40       ??_C@_0CB@OMHFNJIL@unknown?5precompiler?5directive?5?$CF@ 004bca40     l_precomp.obj
 0002:00001a68       ??_C@_0BF@GDJCPOIP@found?5$?5without?5name@ 004bca68     l_precomp.obj
 0002:00001a84       ??_C@_0BH@KCNOOMN@found?5$?5at?5end?5of?5line@ 004bca84     l_precomp.obj
 0002:00001aa0       ??_C@_0BK@JEDPJDDM@couldn?8t?5find?5expected?5?$CFs@ 004bcaa0     l_precomp.obj
 0002:00001ac0       ??_C@_0BG@PHOMHNKB@expected?5?$CFs?0?5found?5?$CFs@ 004bcac0     l_precomp.obj
 0002:00001adc       ??_C@_0BN@ECGBICMG@couldn?8t?5read?5expected?5token@ 004bcadc     l_precomp.obj
 0002:00001b00       ??_C@_06ICGJLFIM@string@   004bcb00     l_precomp.obj
 0002:00001b08       ??_C@_07IDLNMGBF@literal@  004bcb08     l_precomp.obj
 0002:00001b14       ??_C@_06EBGNBFIA@number@   004bcb14     l_precomp.obj
 0002:00001b1c       ??_C@_04MEMAJGDJ@name@     004bcb1c     l_precomp.obj
 0002:00001b24       ??_C@_0M@CCLOEHNM@punctuation@ 004bcb24     l_precomp.obj
 0002:00001b34       ??_C@_0BI@DOMAOFAI@expected?5a?5?$CFs?0?5found?5?$CFs@ 004bcb34     l_precomp.obj
 0002:00001b50       ??_C@_07EEKBCPDP@decimal@  004bcb50     l_precomp.obj
 0002:00001b5c       ??_C@_03IJNDAFDK@hex@      004bcb5c     l_precomp.obj
 0002:00001b60       ??_C@_05NANFMDJ@octal@     004bcb60     l_precomp.obj
 0002:00001b68       ??_C@_06FNFBAEBE@binary@   004bcb68     l_precomp.obj
 0002:00001b70       ??_C@_05BOODDNDJ@?5long@   004bcb70     l_precomp.obj
 0002:00001b78       ??_C@_09GBGALIGL@?5unsigned@ 004bcb78     l_precomp.obj
 0002:00001b84       ??_C@_06EOECJFKG@?5float@  004bcb84     l_precomp.obj
 0002:00001b8c       ??_C@_08LLKPIPDF@?5integer@ 004bcb8c     l_precomp.obj
 0002:00001b98       ??_C@_08EFPOOAED@found?5?$CFs@ 004bcb98     l_precomp.obj
 0002:00001ba8       __real@0000000000000000    004bcba8     l_precomp.obj
 0002:00001bb8       __real@3ff0000000000000    004bcbb8     l_precomp.obj
 0002:00001bd0       __xmm@80000000000000008000000000000000 004bcbd0     l_precomp.obj
 0002:00001be4       ??_C@_03IKFCCPFF@?$DO?$DO?$DN@ 004bcbe4     l_script.obj
 0002:00001be8       ??_C@_03CDNPDDLA@?$DM?$DM?$DN@ 004bcbe8     l_script.obj
 0002:00001bec       ??_C@_03KHICJKCI@?4?4?4@   004bcbec     l_script.obj
 0002:00001bf0       ??_C@_02PPKAJPJL@?$CG?$CG@ 004bcbf0     l_script.obj
 0002:00001bf4       ??_C@_02NONPIBCD@?$HM?$HM@ 004bcbf4     l_script.obj
 0002:00001bf8       ??_C@_02EEKDKGMJ@?$DO?$DN@ 004bcbf8     l_script.obj
 0002:00001bfc       ??_C@_02EHCHHCKH@?$DM?$DN@ 004bcbfc     l_script.obj
 0002:00001c00       ??_C@_02EGOFBIJA@?$DN?$DN@ 004bcc00     l_script.obj
 0002:00001c04       ??_C@_02FDNJECIE@?$CB?$DN@ 004bcc04     l_script.obj
 0002:00001c08       ??_C@_02FPIMKNGF@?$CK?$DN@ 004bcc08     l_script.obj
 0002:00001c0c       ??_C@_02FJEHGPIO@?1?$DN@   004bcc0c     l_script.obj
 0002:00001c10       ??_C@_02FENAOKFI@?$CF?$DN@ 004bcc10     l_script.obj
 0002:00001c14       ??_C@_02FOEOMHFC@?$CL?$DN@ 004bcc14     l_script.obj
 0002:00001c18       ??_C@_02FKMDLLOA@?9?$DN@   004bcc18     l_script.obj
 0002:00001c1c       ??_C@_02ECNGHCIF@?$CL?$CL@ 004bcc1c     l_script.obj
 0002:00001c20       ??_C@_02BAABKJLB@?9?9@     004bcc20     l_script.obj
 0002:00001c24       ??_C@_02FGJGFEAB@?$CG?$DN@ 004bcc24     l_script.obj
 0002:00001c28       ??_C@_02DHLNPPGH@?$HM?$DN@ 004bcc28     l_script.obj
 0002:00001c2c       ??_C@_02MHEGNOJ@?$FO?$DN@  004bcc2c     l_script.obj
 0002:00001c30       ??_C@_02GPIOPFAK@?$DO?$DO@ 004bcc30     l_script.obj
 0002:00001c34       ??_C@_02FODMEDOG@?$DM?$DM@ 004bcc34     l_script.obj
 0002:00001c38       ??_C@_02HBOOOICD@?9?$DO@   004bcc38     l_script.obj
 0002:00001c3c       ??_C@_02MOLJINC@?3?3@      004bcc3c     l_script.obj
 0002:00001c40       ??_C@_02FNAGIBCP@?4?$CK@   004bcc40     l_script.obj
 0002:00001c44       ??_C@_01NBENCBCI@?$CK@     004bcc44     l_script.obj
 0002:00001c48       ??_C@_01KMDKNFGN@?1@       004bcc48     l_script.obj
 0002:00001c4c       ??_C@_01FGNFDNOH@?$CF@     004bcc4c     l_script.obj
 0002:00001c50       ??_C@_01MIFGBAGJ@?$CL@     004bcc50     l_script.obj
 0002:00001c54       ??_C@_01NEMOKFLO@?$DN@     004bcc54     l_script.obj
 0002:00001c58       ??_C@_01HNPIGOCE@?$CG@     004bcc58     l_script.obj
 0002:00001c5c       ??_C@_01DNKMNLPK@?$HM@     004bcc5c     l_script.obj
 0002:00001c60       ??_C@_01JKBOJNNK@?$FO@     004bcc60     l_script.obj
 0002:00001c64       ??_C@_01PJKLJHI@?$HO@      004bcc64     l_script.obj
 0002:00001c68       ??_C@_01DCLJPIOD@?$CB@     004bcc68     l_script.obj
 0002:00001c6c       ??_C@_01PPODPGHN@?$DO@     004bcc6c     l_script.obj
 0002:00001c70       ??_C@_01MNNFJEPP@?$DM@     004bcc70     l_script.obj
 0002:00001c74       ??_C@_01ICJEACDI@?$DL@     004bcc74     l_script.obj
 0002:00001c78       ??_C@_01JLIPDDHJ@?3@       004bcc78     l_script.obj
 0002:00001c7c       ??_C@_01OGPIMHDM@?$DP@     004bcc7c     l_script.obj
 0002:00001c80       ??_C@_01HCONENDN@?$HL@     004bcc80     l_script.obj
 0002:00001c84       ??_C@_01CELHOKLL@?$HN@     004bcc84     l_script.obj
 0002:00001c88       ??_C@_01OHGJGJJP@?$FL@     004bcc88     l_script.obj
 0002:00001c8c       ??_C@_01LBDDMOBJ@?$FN@     004bcc8c     l_script.obj
 0002:00001c90       ??_C@_01IPJKGB@?$CD@       004bcc90     l_script.obj
 0002:00001c94       ??_C@_01EPMOAMKG@$@        004bcc94     l_script.obj
 0002:00001c98       ??_C@_0BD@CDGAFDMK@unkown?5punctuation@ 004bcc98     l_script.obj
 0002:00001cb0       ??_C@_0CE@DDEEFDJP@too?5large?5value?5in?5escape?5chara@ 004bccb0     l_script.obj
 0002:00001cdc       ??_C@_0BE@LNBHEDIG@unknown?5escape?5char@ 004bccdc     l_script.obj
 0002:00001cf4       ??_C@_0CC@MBLDNBAM@string?5longer?5than?5MAX_TOKEN?5?$DN?5@ 004bccf4     l_script.obj
 0002:00001d1c       ??_C@_0BH@PEPCDKK@missing?5trailing?5quote@ 004bcd1c     l_script.obj
 0002:00001d38       ??_C@_0BJ@FPJNGGBK@newline?5inside?5string?5?$CFs@ 004bcd38     l_script.obj
 0002:00001d58       ??_C@_0CA@MNDCIFOG@name?5longer?5than?5MAX_TOKEN?5?$DN?5?$CFd@ 004bcd58     l_script.obj
 0002:00001d80       ??_C@_0CO@IEAAEMOC@hexadecimal?5number?5longer?5than?5@ 004bcd80     l_script.obj
 0002:00001db8       ??_C@_0CJ@GOJFKF@binary?5number?5longer?5than?5MAX_T@ 004bcdb8     l_script.obj
 0002:00001dec       ??_C@_0CC@HHKGPIHJ@number?5longer?5than?5MAX_TOKEN?5?$DN?5@ 004bcdec     l_script.obj
 0002:00001e14       ??_C@_0BO@LNDMFPAB@end?5of?5file?5before?5trailing?5?8@ 004bce14     l_script.obj
 0002:00001e38       ??_C@_0CI@KHNHEENA@too?5many?5characters?5in?5literal?0@ 004bce38     l_script.obj
 0002:00001e68       ??_C@_0CL@IOHHDOB@primitive?5token?5longer?5than?5MAX@ 004bce68     l_script.obj
 0002:00001e9c       ??_C@_0BB@HHMOOKCN@can?8t?5read?5token@ 004bce9c     l_script.obj
 0002:00001eb0       ??_C@_0BP@BHDDOFIL@BUG?3?5wrong?5punctuation?5subtype@ 004bceb0     l_script.obj
 0002:00001ed8       ??_C@_0CA@NFDKBKI@expected?5float?5value?0?5found?5?$CFs?6@ 004bced8     l_script.obj
 0002:00001f00       ??_C@_0CC@CKEDEGB@expected?5integer?5value?0?5found?5?$CF@ 004bcf00     l_script.obj
 0002:00001f28       __real@4024000000000000    004bcf28     l_script.obj
 0002:00001f38       __real@bff0000000000000    004bcf38     l_script.obj
 0002:00001f50       __xmm@41f00000000000000000000000000000 004bcf50     l_script.obj
 0002:00002018       ??_C@_0EG@JFCNJADL@d?3?2agent?2_work?23?2s?2src?2vctools?2@ 004bd018     libvcruntimed:std_type_info.obj
 0002:00002070       ??_C@_0EO@OEGLKFCL@d?3?2agent?2_work?23?2s?2src?2vctools?2@ 004bd070     libvcruntimed:per_thread_data.obj
 0002:000020e0       ??_C@_1DM@KHCHBNEB@?$AAa?$AAp?$AAi?$AA?9?$AAm?$AAs?$AA?9?$AAw?$AAi?$AAn?$AA?9?$AAc?$AAo?$AAr?$AAe@ 004bd0e0     libvcruntimed:winapi_downlevel.obj
 0002:00002128       ??_C@_1DK@LPPGFMPP@?$AAa?$AAp?$AAi?$AA?9?$AAm?$AAs?$AA?9?$AAw?$AAi?$AAn?$AA?9?$AAc?$AAo?$AAr?$AAe@ 004bd128     libvcruntimed:winapi_downlevel.obj
 0002:00002170       ??_C@_1BC@GDMECMAK@?$AAk?$AAe?$AAr?$AAn?$AAe?$AAl?$AA3?$AA2@ 004bd170     libvcruntimed:winapi_downlevel.obj
 0002:00002188       ??_C@_17CNPHIMPH@?$AA?$CF?$AAl?$AAs@ 004bd188     libvcruntimed:winapi_downlevel.obj
 0002:00002194       ??_C@_1BA@PFFKHIOG@?$AAa?$AAp?$AAi?$AA?9?$AAm?$AAs?$AA?9@ 004bd194     libvcruntimed:winapi_downlevel.obj
 0002:000021a8       ??_C@_1BA@IAIFMGEF@?$AAe?$AAx?$AAt?$AA?9?$AAm?$AAs?$AA?9@ 004bd1a8     libvcruntimed:winapi_downlevel.obj
 0002:000021c0       ??_C@_1EM@LBIFGLGH@?$AAc?$AAa?$AAc?$AAh?$AAe?$AAd?$AA_?$AAh?$AAa?$AAn?$AAd?$AAl?$AAe?$AA?5?$AA?$DN@ 004bd1c0     libvcruntimed:winapi_downlevel.obj
 0002:00002220       ??_C@_1JO@BBNDOBIB@?$AAd?$AA?3?$AA?2?$AAa?$AAg?$AAe?$AAn?$AAt?$AA?2?$AA_?$AAw?$AAo?$AAr?$AAk?$AA?2@ 004bd220     libvcruntimed:winapi_downlevel.obj
 0002:000022e0       ??_C@_1DI@MAHEDLDB@?$AAc?$AAa?$AAc?$AAh?$AAe?$AAd?$AA_?$AAh?$AAa?$AAn?$AAd?$AAl?$AAe?$AA?5?$AA?$DN@ 004bd2e0     libvcruntimed:winapi_downlevel.obj
 0002:00002328       ??_C@_1FC@IBNCGNKL@?$AAc?$AAa?$AAc?$AAh?$AAe?$AAd?$AA_?$AAf?$AAp?$AA?5?$AA?$DN?$AA?$DN?$AA?5?$AAi?$AAn@ 004bd328     libvcruntimed:winapi_downlevel.obj
 0002:0000238c       ??_C@_1CI@GDJBAGLP@?$AAc?$AAa?$AAc?$AAh?$AAe?$AAd?$AA_?$AAf?$AAp?$AA?5?$AA?$DN?$AA?$DN?$AA?5?$AAn?$AAe@ 004bd38c     libvcruntimed:winapi_downlevel.obj
 0002:000023c8       ??_C@_08KNHFBNJ@FlsAlloc@  004bd3c8     libvcruntimed:winapi_downlevel.obj
 0002:000023e0       ??_C@_07PEJMOBNF@FlsFree@  004bd3e0     libvcruntimed:winapi_downlevel.obj
 0002:000023f8       ??_C@_0M@GDNOONDI@FlsGetValue@ 004bd3f8     libvcruntimed:winapi_downlevel.obj
 0002:00002414       ??_C@_0M@JCPCPOEF@FlsSetValue@ 004bd414     libvcruntimed:winapi_downlevel.obj
 0002:00002430       ??_C@_0BM@HCFOFFN@InitializeCriticalSectionEx@ 004bd430     libvcruntimed:winapi_downlevel.obj
 0002:00002648       ??_C@_08EHJDFFNH@__based?$CI@ 004bd648     libvcruntimed:undname.obj
 0002:00002654       ??_C@_07KOLFKCDI@__cdecl@  004bd654     libvcruntimed:undname.obj
 0002:00002660       ??_C@_08GHMPAG@__pascal@   004bd660     libvcruntimed:undname.obj
 0002:0000266c       ??_C@_09IFJBGAPI@__stdcall@ 004bd66c     libvcruntimed:undname.obj
 0002:00002678       ??_C@_0L@NPHFGOKO@__thiscall@ 004bd678     libvcruntimed:undname.obj
 0002:00002688       ??_C@_0L@JMKHOMEK@__fastcall@ 004bd688     libvcruntimed:undname.obj
 0002:00002698       ??_C@_0N@BCKKPABJ@__vectorcall@ 004bd698     libvcruntimed:undname.obj
 0002:000026a8       ??_C@_09HIJEGCPM@__clrcall@ 004bd6a8     libvcruntimed:undname.obj
 0002:000026b4       ??_C@_06GHPCKEAG@__eabi@   004bd6b4     libvcruntimed:undname.obj
 0002:000026bc       ??_C@_09IOPIDJLG@__swift_1@ 004bd6bc     libvcruntimed:undname.obj
 0002:000026c8       ??_C@_09KFNFGKHF@__swift_2@ 004bd6c8     libvcruntimed:undname.obj
 0002:000026d4       ??_C@_07JOMMBBKO@__ptr64@  004bd6d4     libvcruntimed:undname.obj
 0002:000026e0       ??_C@_0L@PILCLIHE@__restrict@ 004bd6e0     libvcruntimed:undname.obj
 0002:000026f0       ??_C@_0M@GFIIJFMG@__unaligned@ 004bd6f0     libvcruntimed:undname.obj
 0002:00002700       ??_C@_09DHDLOLLB@restrict?$CI@ 004bd700     libvcruntimed:undname.obj
 0002:0000270c       ??_C@_04NIHEBCM@?5new@     004bd70c     libvcruntimed:undname.obj
 0002:00002714       ??_C@_07FPCDHGMM@?5delete@ 004bd714     libvcruntimed:undname.obj
 0002:00002720       ??_C@_02GPECMEKF@?$FL?$FN@ 004bd720     libvcruntimed:undname.obj
 0002:00002724       ??_C@_08LHJFAFGD@operator@ 004bd724     libvcruntimed:undname.obj
 0002:00002730       ??_C@_03MNHNFDLC@?9?$DO?$CK@ 004bd730     libvcruntimed:undname.obj
 0002:00002734       ??_C@_02HCKGKOFO@?$CI?$CJ@ 004bd734     libvcruntimed:undname.obj
 0002:00002738       ??_C@_09IFPLHPGF@?$GAvftable?8@ 004bd738     libvcruntimed:undname.obj
 0002:00002744       ??_C@_09BLBHBJP@?$GAvbtable?8@ 004bd744     libvcruntimed:undname.obj
 0002:00002750       ??_C@_07FEEIOKP@?$GAvcall?8@ 004bd750     libvcruntimed:undname.obj
 0002:0000275c       ??_C@_08LLFFHHDJ@?$GAtypeof?8@ 004bd75c     libvcruntimed:undname.obj
 0002:00002768       ??_C@_0BF@KDPPACIK@?$GAlocal?5static?5guard?8@ 004bd768     libvcruntimed:undname.obj
 0002:00002784       ??_C@_08OBABFOLI@?$GAstring?8@ 004bd784     libvcruntimed:undname.obj
 0002:00002790       ??_C@_0BD@JDLKDPAB@?$GAvbase?5destructor?8@ 004bd790     libvcruntimed:undname.obj
 0002:000027a8       ??_C@_0BN@DEGPLNFK@?$GAvector?5deleting?5destructor?8@ 004bd7a8     libvcruntimed:undname.obj
 0002:000027cc       ??_C@_0BO@OBMKPJIG@?$GAdefault?5constructor?5closure?8@ 004bd7cc     libvcruntimed:undname.obj
 0002:000027f0       ??_C@_0BN@IMDCHIKM@?$GAscalar?5deleting?5destructor?8@ 004bd7f0     libvcruntimed:undname.obj
 0002:00002814       ??_C@_0BO@PFGOCPJJ@?$GAvector?5constructor?5iterator?8@ 004bd814     libvcruntimed:undname.obj
 0002:00002838       ??_C@_0BN@LFPFMEDL@?$GAvector?5destructor?5iterator?8@ 004bd838     libvcruntimed:undname.obj
 0002:0000285c       ??_C@_0CE@IKBNEHA@?$GAvector?5vbase?5constructor?5itera@ 004bd85c     libvcruntimed:undname.obj
 0002:00002888       ??_C@_0BL@NILFHHPC@?$GAvirtual?5displacement?5map?8@ 004bd888     libvcruntimed:undname.obj
 0002:000028a8       ??_C@_0CB@JONCMFFK@?$GAeh?5vector?5constructor?5iterator@ 004bd8a8     libvcruntimed:undname.obj
 0002:000028d0       ??_C@_0CA@GCEOPDGL@?$GAeh?5vector?5destructor?5iterator?8@ 004bd8d0     libvcruntimed:undname.obj
 0002:000028f8       ??_C@_0CH@OOJPLCPH@?$GAeh?5vector?5vbase?5constructor?5it@ 004bd8f8     libvcruntimed:undname.obj
 0002:00002928       ??_C@_0BL@LLKPOHJI@?$GAcopy?5constructor?5closure?8@ 004bd928     libvcruntimed:undname.obj
 0002:00002948       ??_C@_0BA@KBCDOMBN@?$GAudt?5returning?8@ 004bd948     libvcruntimed:undname.obj
 0002:0000295c       ??_C@_03KLGMFNMG@?$GAEH@   004bd95c     libvcruntimed:undname.obj
 0002:00002960       ??_C@_05KHLCHHI@?$GARTTI@  004bd960     libvcruntimed:undname.obj
 0002:00002968       ??_C@_0BA@KKLDJDLB@?$GAlocal?5vftable?8@ 004bd968     libvcruntimed:undname.obj
 0002:0000297c       ??_C@_0CE@IIHCMGGL@?$GAlocal?5vftable?5constructor?5clos@ 004bd97c     libvcruntimed:undname.obj
 0002:000029a8       ??_C@_06FHBGPFGH@?5new?$FL?$FN@ 004bd9a8     libvcruntimed:undname.obj
 0002:000029b0       ??_C@_09LBNFPBCA@?5delete?$FL?$FN@ 004bd9b0     libvcruntimed:undname.obj
 0002:000029bc       ??_C@_0P@HJKNJFNN@?$GAomni?5callsig?8@ 004bd9bc     libvcruntimed:undname.obj
 0002:000029d0       ??_C@_0BL@CNOONJFP@?$GAplacement?5delete?5closure?8@ 004bd9d0     libvcruntimed:undname.obj
 0002:000029f0       ??_C@_0BN@CKNJLHMB@?$GAplacement?5delete?$FL?$FN?5closure?8@ 004bd9f0     libvcruntimed:undname.obj
 0002:00002a14       ??_C@_0CG@CFDHKGGD@?$GAmanaged?5vector?5constructor?5ite@ 004bda14     libvcruntimed:undname.obj
 0002:00002a44       ??_C@_0CF@IMGKMJNO@?$GAmanaged?5vector?5destructor?5iter@ 004bda44     libvcruntimed:undname.obj
 0002:00002a70       ??_C@_0CG@HLDDJMAG@?$GAeh?5vector?5copy?5constructor?5ite@ 004bda70     libvcruntimed:undname.obj
 0002:00002aa0       ??_C@_0CM@FCBBDIGB@?$GAeh?5vector?5vbase?5copy?5construct@ 004bdaa0     libvcruntimed:undname.obj
 0002:00002ad4       ??_C@_0BL@CLIPGLGB@?$GAdynamic?5initializer?5for?5?8@ 004bdad4     libvcruntimed:undname.obj
 0002:00002af4       ??_C@_0CB@PDBIFEP@?$GAdynamic?5atexit?5destructor?5for?5@ 004bdaf4     libvcruntimed:undname.obj
 0002:00002b1c       ??_C@_0CD@CGAJBKEJ@?$GAvector?5copy?5constructor?5iterat@ 004bdb1c     libvcruntimed:undname.obj
 0002:00002b48       ??_C@_0CJ@GJELGAMM@?$GAvector?5vbase?5copy?5constructor?5@ 004bdb48     libvcruntimed:undname.obj
 0002:00002b7c       ??_C@_0CL@FGIJHLCE@?$GAmanaged?5vector?5copy?5constructo@ 004bdb7c     libvcruntimed:undname.obj
 0002:00002bb0       ??_C@_0BM@PMGGMLDN@?$GAlocal?5static?5thread?5guard?8@ 004bdbb0     libvcruntimed:undname.obj
 0002:00002bd4       ??_C@_0N@BDNMDMOL@operator?5?$CC?$CC?5@ 004bdbd4     libvcruntimed:undname.obj
 0002:00002be4       ??_C@_0BC@GGEBGALA@operator?5co_await@ 004bdbe4     libvcruntimed:undname.obj
 0002:00002bfc       ??_C@_0BC@DAFEJGAK@?5Type?5Descriptor?8@ 004bdbfc     libvcruntimed:undname.obj
 0002:00002c14       ??_C@_0BM@LDKODKLH@?5Base?5Class?5Descriptor?5at?5?$CI@ 004bdc14     libvcruntimed:undname.obj
 0002:00002c38       ??_C@_0BD@LGICGFMM@?5Base?5Class?5Array?8@ 004bdc38     libvcruntimed:undname.obj
 0002:00002c50       ??_C@_0BN@MECKDCOJ@?5Class?5Hierarchy?5Descriptor?8@ 004bdc50     libvcruntimed:undname.obj
 0002:00002c74       ??_C@_0BK@CFCOFLF@?5Complete?5Object?5Locator?8@ 004bdc74     libvcruntimed:undname.obj
 0002:00002c94       ??_C@_04HEJADOOB@CV?3?5@   004bdc94     libvcruntimed:undname.obj
 0002:00002c9c       ??_C@_03GDILBHBJ@$$h@      004bdc9c     libvcruntimed:undname.obj
 0002:00002ca0       ??_C@_0BE@JAEOCHPE@template?9parameter?9@ 004bdca0     libvcruntimed:undname.obj
 0002:00002cb8       ??_C@_0O@KHGCOMHP@generic?9type?9@ 004bdcb8     libvcruntimed:undname.obj
 0002:00002cc8       ??_C@_01NLNLIGKH@?$GA@     004bdcc8     libvcruntimed:undname.obj
 0002:00002ccc       ??_C@_01GEODFPGF@?8@       004bdccc     libvcruntimed:undname.obj
 0002:00002cd0       ??_C@_0BG@JNJLAMPM@?$GAanonymous?5namespace?8@ 004bdcd0     libvcruntimed:undname.obj
 0002:00002cec       ??_C@_02OHHJMEON@?8?8@     004bdcec     libvcruntimed:undname.obj
 0002:00002cf0       ??_C@_0BN@IBLMMFAP@?$GAnon?9type?9template?9parameter@ 004bdcf0     libvcruntimed:undname.obj
 0002:00002d14       ??_C@_04GKJNKENE@void@     004bdd14     libvcruntimed:undname.obj
 0002:00002d1c       ??_C@_0BE@EODMJLIF@?$GAtemplate?9parameter@ 004bdd1c     libvcruntimed:undname.obj
 0002:00002d34       ??_C@_04HIBGFPH@NULL@      004bdd34     libvcruntimed:undname.obj
 0002:00002d3c       ??_C@_0BK@IHCCFNEL@?$GAtemplate?9type?9parameter?9@ 004bdd3c     libvcruntimed:undname.obj
 0002:00002d5c       ??_C@_0BK@OFCNNNKO@?$GAgeneric?9class?9parameter?9@ 004bdd5c     libvcruntimed:undname.obj
 0002:00002d7c       ??_C@_0BL@NGJBLFIL@?$GAgeneric?9method?9parameter?9@ 004bdd7c     libvcruntimed:undname.obj
 0002:00002d9c       ??_C@_03OPGICMGF@?$HN?8?5@ 004bdd9c     libvcruntimed:undname.obj
 0002:00002da0       ??_C@_02IGFCGPIL@?$HN?8@   004bdda0     libvcruntimed:undname.obj
 0002:00002da4       ??_C@_0N@CBHHHENL@?$GAvtordispex?$HL@ 004bdda4     libvcruntimed:undname.obj
 0002:00002db4       ??_C@_0L@GHPFDFH@?$GAvtordisp?$HL@ 004bddb4     libvcruntimed:undname.obj
 0002:00002dc4       ??_C@_0L@HNGCOGAE@?$GAadjustor?$HL@ 004bddc4     libvcruntimed:undname.obj
 0002:00002dd4       ??_C@_0CB@KJDOOODE@?$GAlocal?5static?5destructor?5helper@ 004bddd4     libvcruntimed:undname.obj
 0002:00002dfc       ??_C@_0DB@ILEFOCIJ@?$GAtemplate?5static?5data?5member?5co@ 004bddfc     libvcruntimed:undname.obj
 0002:00002e38       ??_C@_0DA@HGFJFBBE@?$GAtemplate?5static?5data?5member?5de@ 004bde38     libvcruntimed:undname.obj
 0002:00002e74       ??_C@_07PGOEDBHP@static?5@ 004bde74     libvcruntimed:undname.obj
 0002:00002e80       ??_C@_08NIEOINHE@virtual?5@ 004bde80     libvcruntimed:undname.obj
 0002:00002e8c       ??_C@_09LAPHOOG@private?3?5@ 004bde8c     libvcruntimed:undname.obj
 0002:00002e98       ??_C@_0M@GAIFPFIP@protected?3?5@ 004bde98     libvcruntimed:undname.obj
 0002:00002ea8       ??_C@_08GPDDCMKI@public?3?5@ 004bdea8     libvcruntimed:undname.obj
 0002:00002eb4       ??_C@_08KJLFOPNE@?$FLthunk?$FN?3@ 004bdeb4     libvcruntimed:undname.obj
 0002:00002ec0       ??_C@_0M@DHNBOJMP@extern?5?$CCC?$CC?5@ 004bdec0     libvcruntimed:undname.obj
 0002:00002ed0       ??_C@_02KCKGHPCA@?$CJ?5@   004bded0     libvcruntimed:undname.obj
 0002:00002ed4       ??_C@_05CIHEBHNO@char?5@   004bded4     libvcruntimed:undname.obj
 0002:00002edc       ??_C@_06EHJMALKF@short?5@  004bdedc     libvcruntimed:undname.obj
 0002:00002ee4       ??_C@_04LAHKHJMA@int?5@    004bdee4     libvcruntimed:undname.obj
 0002:00002eec       ??_C@_05CJIMAING@long?5@   004bdeec     libvcruntimed:undname.obj
 0002:00002ef4       ??_C@_09EBBEKKIH@unsigned?5@ 004bdef4     libvcruntimed:undname.obj
 0002:00002f00       ??_C@_05BEFAKPML@void?5@   004bdf00     libvcruntimed:undname.obj
 0002:00002f08       ??_C@_08PABEKFH@volatile@  004bdf08     libvcruntimed:undname.obj
 0002:00002f14       ??_C@_0BA@LKIJLKPP@std?3?3nullptr_t?5@ 004bdf14     libvcruntimed:undname.obj
 0002:00002f28       ??_C@_0P@GCOCNKDM@std?3?3nullptr_t@ 004bdf28     libvcruntimed:undname.obj
 0002:00002f3c       ??_C@_0L@EGPHHEKN@?$DMellipsis?$DO@ 004bdf3c     libvcruntimed:undname.obj
 0002:00002f4c       ??_C@_04EENFHACM@?0?4?4?4@ 004bdf4c     libvcruntimed:undname.obj
 0002:00002f54       ??_C@_0M@ELJOJFFH@?0?$DMellipsis?$DO@ 004bdf54     libvcruntimed:undname.obj
 0002:00002f64       ??_C@_09DNHFEOJI@?5noexcept@ 004bdf64     libvcruntimed:undname.obj
 0002:00002f70       ??_C@_03PBJBJNON@cpu@      004bdf70     libvcruntimed:undname.obj
 0002:00002f74       ??_C@_03DCBBJBAA@amp@      004bdf74     libvcruntimed:undname.obj
 0002:00002f78       ??_C@_02KEGNLNML@?0?5@     004bdf78     libvcruntimed:undname.obj
 0002:00002f7c       ??_C@_04ENMBGAPA@char@     004bdf7c     libvcruntimed:undname.obj
 0002:00002f84       ??_C@_05BFKKPKCG@short@    004bdf84     libvcruntimed:undname.obj
 0002:00002f8c       ??_C@_03JBIPMCLC@int@      004bdf8c     libvcruntimed:undname.obj
 0002:00002f90       ??_C@_04GOKPGOLB@long@     004bdf90     libvcruntimed:undname.obj
 0002:00002f98       ??_C@_05KNFBNCOH@float@    004bdf98     libvcruntimed:undname.obj
 0002:00002fa0       ??_C@_06BNJCAIGJ@double@   004bdfa0     libvcruntimed:undname.obj
 0002:00002fa8       ??_C@_04DDKJGDCM@bool@     004bdfa8     libvcruntimed:undname.obj
 0002:00002fb0       ??_C@_06EBGKOKIG@__int8@   004bdfb0     libvcruntimed:undname.obj
 0002:00002fb8       ??_C@_07ICFHOGAF@__int16@  004bdfb8     libvcruntimed:undname.obj
 0002:00002fc4       ??_C@_07OFLPPHGP@__int32@  004bdfc4     libvcruntimed:undname.obj
 0002:00002fd0       ??_C@_07LFCOJCAC@__int64@  004bdfd0     libvcruntimed:undname.obj
 0002:00002fdc       ??_C@_08GAHOLHEO@__int128@ 004bdfdc     libvcruntimed:undname.obj
 0002:00002fe8       ??_C@_09EEKGDCPH@?$DMunknown?$DO@ 004bdfe8     libvcruntimed:undname.obj
 0002:00002ff4       ??_C@_08HBIPOFJB@char16_t@ 004bdff4     libvcruntimed:undname.obj
 0002:00003000       ??_C@_08IECNCBKG@char32_t@ 004be000     libvcruntimed:undname.obj
 0002:0000300c       ??_C@_07CLGGIAMF@wchar_t@  004be00c     libvcruntimed:undname.obj
 0002:00003018       ??_C@_06GCICPBLB@__w64?5@  004be018     libvcruntimed:undname.obj
 0002:00003020       ??_C@_07NFANNNEC@UNKNOWN@  004be020     libvcruntimed:undname.obj
 0002:0000302c       ??_C@_07EDHNAJHC@signed?5@ 004be02c     libvcruntimed:undname.obj
 0002:00003038       ??_C@_05BNCCCJPP@const@    004be038     libvcruntimed:undname.obj
 0002:00003040       ??_C@_09EFNPDFFP@?5volatile@ 004be040     libvcruntimed:undname.obj
 0002:0000304c       ??_C@_0P@GCIFDJCJ@?$GAunknown?5ecsu?8@ 004be04c     libvcruntimed:undname.obj
 0002:00003060       ??_C@_06MOJHIBMG@union?5@  004be060     libvcruntimed:undname.obj
 0002:00003068       ??_C@_07DIBCDNGL@struct?5@ 004be068     libvcruntimed:undname.obj
 0002:00003074       ??_C@_06LJBABKPM@class?5@  004be074     libvcruntimed:undname.obj
 0002:0000307c       ??_C@_08KOFANOFK@coclass?5@ 004be07c     libvcruntimed:undname.obj
 0002:00003088       ??_C@_0N@DLIEFKNA@cointerface?5@ 004be088     libvcruntimed:undname.obj
 0002:00003098       ??_C@_05LJGMCFOG@enum?5@   004be098     libvcruntimed:undname.obj
 0002:000030a0       ??_C@_09GAIEOBLP@volatile?5@ 004be0a0     libvcruntimed:undname.obj
 0002:000030ac       ??_C@_06LIJLOJAG@const?5@  004be0ac     libvcruntimed:undname.obj
 0002:000030b4       ??_C@_02KJPKDIBN@?$CG?5@   004be0b4     libvcruntimed:undname.obj
 0002:000030b8       ??_C@_03PCKGMOPB@?$CG?$CG?5@ 004be0b8     libvcruntimed:undname.obj
 0002:000030bc       ??_C@_0M@EALIELKG@cli?3?3array?$DM@ 004be0bc     libvcruntimed:undname.obj
 0002:000030cc       ??_C@_0O@GKABPPIF@cli?3?3pin_ptr?$DM@ 004be0cc     libvcruntimed:undname.obj
 0002:000030dc       ??_C@_02GOGNNPBN@?$CJ?$FL@ 004be0dc     libvcruntimed:undname.obj
 0002:000030e0       ??_C@_06EEGAIFAK@?$HLflat?$HN@ 004be0e0     libvcruntimed:undname.obj
 0002:000030e8       ??_C@_05JIBOFOHK@?$HLfor?5@ 004be0e8     libvcruntimed:undname.obj
 0002:000030f0       ??_C@_02MDINNEEG@s?5@      004be0f0     libvcruntimed:undname.obj
 0002:000030f8       ??_7DNameNode@@6B@         004be0f8     libvcruntimed:undname.obj
 0002:0000310c       ??_7charNode@@6B@          004be10c     libvcruntimed:undname.obj
 0002:00003120       ??_7pcharNode@@6B@         004be120     libvcruntimed:undname.obj
 0002:00003134       ??_7pDNameNode@@6B@        004be134     libvcruntimed:undname.obj
 0002:00003148       ??_7DNameStatusNode@@6B@   004be148     libvcruntimed:undname.obj
 0002:0000315c       ??_7pairNode@@6B@          004be15c     libvcruntimed:undname.obj
 0002:0000316c       ??_C@_04OKOHEJBO@?5?$DP?$DP?5@ 004be16c     libvcruntimed:undname.obj
 0002:00003174       ?nodes@?1??make@DNameStatusNode@@SAPBV2@W4DNameStatus@@@Z@4QBV2@B 004be174     libvcruntimed:undname.obj
 0002:000031b4       ??_7exception@std@@6B@     004be1b4     libvcruntimed:frame.obj
 0002:000031c0       ??_C@_0BC@EOODALEL@Unknown?5exception@ 004be1c0     libvcruntimed:frame.obj
 0002:000031dc       ??_7bad_exception@std@@6B@ 004be1dc     libvcruntimed:frame.obj
 0002:000031e8       ??_C@_0O@DPKOEFFH@bad?5exception@ 004be1e8     libvcruntimed:frame.obj
 0002:000031f8       __pDestructExceptionObject 004be1f8     libvcruntimed:ehhelpers.obj
 0002:00003200       ??_C@_1FK@OACNEHHA@?$AAt?$AAo?$AA?9?$AA?$DO?$AA_?$AAW?$AAh?$AAa?$AAt?$AA?5?$AA?$DN?$AA?$DN?$AA?5?$AAn?$AAu@ 004be200     libvcruntimed:std_exception.obj
 0002:00003270       ??_C@_1IM@JDJIHKNJ@?$AAd?$AA?3?$AA?2?$AAa?$AAg?$AAe?$AAn?$AAt?$AA?2?$AA_?$AAw?$AAo?$AAr?$AAk?$AA?2@ 004be270     libvcruntimed:std_exception.obj
 0002:00003340       ??_C@_17CNPHIMPH@?$AA?$CF?$AAl?$AAs?$AA?$AA@ 004be340     libucrtd:_file.obj
 0002:0000334c       ??_C@_0CP@GDJHIDC@minkernel?2crts?2ucrt?2src?2appcrt?2s@ 004be34c     libucrtd:_file.obj
 0002:00003384       ??_C@_1DC@OGOLMDEL@?$AAp?$AAu?$AAb?$AAl?$AAi?$AAc?$AA_?$AAs?$AAt?$AAr?$AAe?$AAa?$AAm?$AA?5?$AA?$CB?$AA?$DN?$AA?5?$AAn?$AAu?$AAl?$AAl?$AAp?$AAt?$AAr?$AA?$AA@ 004be384     libucrtd:_file.obj
 0002:000033c0       ??_C@_1FO@IEGKHABE@?$AAm?$AAi?$AAn?$AAk?$AAe?$AAr?$AAn?$AAe?$AAl?$AA?2?$AAc?$AAr?$AAt?$AAs?$AA?2?$AAu?$AAc?$AAr?$AAt?$AA?2?$AAs?$AAr?$AAc?$AA?2?$AAa?$AAp?$AAp?$AAc?$AAr?$AAt?$AA?2?$AAs@ 004be3c0     libucrtd:_file.obj
 0002:00003430       ??_C@_1DI@PJGMCDLC@?$AA_?$AAg?$AAe?$AAt?$AA_?$AAs?$AAt?$AAr?$AAe?$AAa?$AAm?$AA_?$AAb?$AAu?$AAf?$AAf?$AAe?$AAr?$AA_?$AAp?$AAo?$AAi?$AAn?$AAt?$AAe?$AAr?$AAs?$AA?$AA@ 004be430     libucrtd:_file.obj
 0002:00003474       ??_C@_1BO@MHPFFFJJ@?$AAs?$AAt?$AAr?$AAe?$AAa?$AAm?$AA?4?$AAv?$AAa?$AAl?$AAi?$AAd?$AA?$CI?$AA?$CJ?$AA?$AA@ 004be474     libucrtd:fclose.obj
 0002:00003498       ??_C@_1GA@DKNOMDCL@?$AAm?$AAi?$AAn?$AAk?$AAe?$AAr?$AAn?$AAe?$AAl?$AA?2?$AAc?$AAr?$AAt?$AAs?$AA?2?$AAu?$AAc?$AAr?$AAt?$AA?2?$AAs?$AAr?$AAc?$AA?2?$AAa?$AAp?$AAp?$AAc?$AAr?$AAt?$AA?2?$AAs@ 004be498     libucrtd:fclose.obj
 0002:0000350c       ??_C@_1O@EGMJNCOI@?$AAf?$AAc?$AAl?$AAo?$AAs?$AAe?$AA?$AA@ 004be50c     libucrtd:fclose.obj
 0002:0000351c       ??_C@_1BO@JINCABEC@?$AA_?$AAf?$AAc?$AAl?$AAo?$AAs?$AAe?$AA_?$AAn?$AAo?$AAl?$AAo?$AAc?$AAk?$AA?$AA@ 004be51c     libucrtd:fclose.obj
 0002:00003540       ??_C@_1CK@LLOEFJJG@?$AAf?$AAi?$AAl?$AAe?$AA_?$AAn?$AAa?$AAm?$AAe?$AA?5?$AA?$CB?$AA?$DN?$AA?5?$AAn?$AAu?$AAl?$AAl?$AAp?$AAt?$AAr?$AA?$AA@ 004be540     libucrtd:fopen.obj
 0002:00003578       ??_C@_1FO@JKHHBFCN@?$AAm?$AAi?$AAn?$AAk?$AAe?$AAr?$AAn?$AAe?$AAl?$AA?2?$AAc?$AAr?$AAt?$AAs?$AA?2?$AAu?$AAc?$AAr?$AAt?$AA?2?$AAs?$AAr?$AAc?$AA?2?$AAa?$AAp?$AAp?$AAc?$AAr?$AAt?$AA?2?$AAs@ 004be578     libucrtd:fopen.obj
 0002:000035e8       ??_C@_1BM@HBDCPLIA@?$AAc?$AAo?$AAm?$AAm?$AAo?$AAn?$AA_?$AAf?$AAs?$AAo?$AAp?$AAe?$AAn?$AA?$AA@ 004be5e8     libucrtd:fopen.obj
 0002:0000360c       ??_C@_1CA@HJKPLBCC@?$AAm?$AAo?$AAd?$AAe?$AA?5?$AA?$CB?$AA?$DN?$AA?5?$AAn?$AAu?$AAl?$AAl?$AAp?$AAt?$AAr?$AA?$AA@ 004be60c     libucrtd:fopen.obj
 0002:00003634       ??_C@_1BG@HEFEIBLN@?$AA?$CK?$AAm?$AAo?$AAd?$AAe?$AA?5?$AA?$CB?$AA?$DN?$AA?5?$AA0?$AA?$AA@ 004be634     libucrtd:fopen.obj
 0002:00003650       ??_C@_1CE@JMFACANE@?$AAr?$AAe?$AAs?$AAu?$AAl?$AAt?$AA?5?$AA?$CB?$AA?$DN?$AA?5?$AAn?$AAu?$AAl?$AAl?$AAp?$AAt?$AAr?$AA?$AA@ 004be650     libucrtd:fopen.obj
 0002:0000367c       ??_C@_1BO@JGGJAKB@?$AAc?$AAo?$AAm?$AAm?$AAo?$AAn?$AA_?$AAf?$AAo?$AAp?$AAe?$AAn?$AA_?$AAs?$AA?$AA@ 004be67c     libucrtd:fopen.obj
 0002:000036a0       ??_C@_1BDG@MKBKGHOH@?$AA?$CI?$AA?5?$AA?$CI?$AA_?$AAS?$AAt?$AAr?$AAe?$AAa?$AAm?$AA?4?$AAi?$AAs?$AA_?$AAs?$AAt?$AAr?$AAi?$AAn?$AAg?$AA_?$AAb?$AAa?$AAc?$AAk?$AAe?$AAd?$AA?$CI?$AA?$CJ?$AA?$CJ?$AA?5?$AA?$HM@ 004be6a0     libucrtd:fputc.obj
 0002:00003814       ??_C@_1CE@JLIJLEKO@?$AAs?$AAt?$AAr?$AAe?$AAa?$AAm?$AA?5?$AA?$CB?$AA?$DN?$AA?5?$AAn?$AAu?$AAl?$AAl?$AAp?$AAt?$AAr?$AA?$AA@ 004be814     libucrtd:fputc.obj
 0002:00003840       ??_C@_1FO@FNOAOMLP@?$AAm?$AAi?$AAn?$AAk?$AAe?$AAr?$AAn?$AAe?$AAl?$AA?2?$AAc?$AAr?$AAt?$AAs?$AA?2?$AAu?$AAc?$AAr?$AAt?$AA?2?$AAs?$AAr?$AAc?$AA?2?$AAa?$AAp?$AAp?$AAc?$AAr?$AAt?$AA?2?$AAs@ 004be840     libucrtd:fputc.obj
 0002:000038b0       ??_C@_1M@OIJMPNCO@?$AAf?$AAp?$AAu?$AAt?$AAc?$AA?$AA@ 004be8b0     libucrtd:fputc.obj
 0002:000038c0       ??_C@_1FO@CIJKACCM@?$AAm?$AAi?$AAn?$AAk?$AAe?$AAr?$AAn?$AAe?$AAl?$AA?2?$AAc?$AAr?$AAt?$AAs?$AA?2?$AAu?$AAc?$AAr?$AAt?$AA?2?$AAs?$AAr?$AAc?$AA?2?$AAa?$AAp?$AAp?$AAc?$AAr?$AAt?$AA?2?$AAs@ 004be8c0     libucrtd:fread.obj
 0002:00003930       ??_C@_1BA@CMLCEIGG@?$AAf?$AAr?$AAe?$AAa?$AAd?$AA_?$AAs?$AA?$AA@ 004be930     libucrtd:fread.obj
 0002:00003944       ??_C@_1CE@MCCHPLBM@?$AAb?$AAu?$AAf?$AAf?$AAe?$AAr?$AA?5?$AA?$CB?$AA?$DN?$AA?5?$AAn?$AAu?$AAl?$AAl?$AAp?$AAt?$AAr?$AA?$AA@ 004be944     libucrtd:fread.obj
 0002:00003970       ??_C@_1CA@IDPOGFL@?$AA_?$AAf?$AAr?$AAe?$AAa?$AAd?$AA_?$AAn?$AAo?$AAl?$AAo?$AAc?$AAk?$AA_?$AAs?$AA?$AA@ 004be970     libucrtd:fread.obj
 0002:00003998       ??_C@_1FG@KLKDPCLL@?$AAe?$AAl?$AAe?$AAm?$AAe?$AAn?$AAt?$AA_?$AAc?$AAo?$AAu?$AAn?$AAt?$AA?5?$AA?$DM?$AA?$DN?$AA?5?$AA?$CI?$AAS?$AAI?$AAZ?$AAE?$AA_?$AAM?$AAA?$AAX?$AA?5?$AA?1?$AA?5?$AAe?$AAl?$AAe@ 004be998     libucrtd:fread.obj
 0002:00003a00       ??_C@_1LG@DCNDJCHK@?$AA?$CI?$AA?$CC?$AAI?$AAn?$AAc?$AAo?$AAn?$AAs?$AAi?$AAs?$AAt?$AAe?$AAn?$AAt?$AA?5?$AAS?$AAt?$AAr?$AAe?$AAa?$AAm?$AA?5?$AAC?$AAo?$AAu?$AAn?$AAt?$AA?4?$AA?5?$AAF?$AAl?$AAu@ 004bea00     libucrtd:fread.obj
 0002:00003adc       ??_C@_1DA@DKEFLDMG@?$AA?$CI?$AA?$CC?$AAb?$AAu?$AAf?$AAf?$AAe?$AAr?$AA?5?$AAt?$AAo?$AAo?$AA?5?$AAs?$AAm?$AAa?$AAl?$AAl?$AA?$CC?$AA?0?$AA?5?$AA0?$AA?$CJ?$AA?$AA@ 004beadc     libucrtd:fread.obj
 0002:00003b18       ??_C@_1FO@KMPAKEKH@?$AAm?$AAi?$AAn?$AAk?$AAe?$AAr?$AAn?$AAe?$AAl?$AA?2?$AAc?$AAr?$AAt?$AAs?$AA?2?$AAu?$AAc?$AAr?$AAt?$AA?2?$AAs?$AAr?$AAc?$AA?2?$AAa?$AAp?$AAp?$AAc?$AAr?$AAt?$AA?2?$AAs@ 004beb18     libucrtd:fseek.obj
 0002:00003b88       ??_C@_1BK@HEPGDNON@?$AAc?$AAo?$AAm?$AAm?$AAo?$AAn?$AA_?$AAf?$AAs?$AAe?$AAe?$AAk?$AA?$AA@ 004beb88     libucrtd:fseek.obj
 0002:00003ba8       ??_C@_1HO@BJGCGJL@?$AAw?$AAh?$AAe?$AAn?$AAc?$AAe?$AA?5?$AA?$DN?$AA?$DN?$AA?5?$AAS?$AAE?$AAE?$AAK?$AA_?$AAS?$AAE?$AAT?$AA?5?$AA?$HM?$AA?$HM?$AA?5?$AAw?$AAh?$AAe?$AAn?$AAc?$AAe?$AA?5?$AA?$DN?$AA?$DN?$AA?5@ 004beba8     libucrtd:fseek.obj
 0002:00003c40       ??_C@_1CO@LBNDLIPC@?$AAs?$AAt?$AAr?$AAe?$AAa?$AAm?$AA?4?$AAp?$AAu?$AAb?$AAl?$AAi?$AAc?$AA_?$AAs?$AAt?$AAr?$AAe?$AAa?$AAm?$AA?$CI?$AA?$CJ?$AA?$AA@ 004bec40     libucrtd:ftell.obj
 0002:00003c78       ??_C@_1FO@JHBALIAM@?$AAm?$AAi?$AAn?$AAk?$AAe?$AAr?$AAn?$AAe?$AAl?$AA?2?$AAc?$AAr?$AAt?$AAs?$AA?2?$AAu?$AAc?$AAr?$AAt?$AA?2?$AAs?$AAr?$AAc?$AA?2?$AAa?$AAp?$AAp?$AAc?$AAr?$AAt?$AA?2?$AAs@ 004bec78     libucrtd:ftell.obj
 0002:00003ce8       ??_C@_1CI@MOKEPKDC@?$AAc?$AAo?$AAm?$AAm?$AAo?$AAn?$AA_?$AAf?$AAt?$AAe?$AAl?$AAl?$AA_?$AAn?$AAo?$AAl?$AAo?$AAc?$AAk?$AA?$AA@ 004bece8     libucrtd:ftell.obj
 0002:00003d18       ??_C@_1GM@EDHJGDLB@?$AA?$CI?$AAb?$AAu?$AAf?$AAf?$AAe?$AAr?$AA_?$AAl?$AAa?$AAs?$AAt?$AA?5?$AA?9?$AA?5?$AAb?$AAu?$AAf?$AAf?$AAe?$AAr?$AA_?$AAf?$AAi?$AAr?$AAs?$AAt?$AA?$CJ?$AA?5?$AA?$CF?$AA?5?$AAs@ 004bed18     libucrtd:ftell.obj
 0002:00003d9c       ??_C@_1BK@CMPCEPOF@?$AAc?$AAo?$AAm?$AAm?$AAo?$AAn?$AA_?$AAf?$AAt?$AAe?$AAl?$AAl?$AA?$AA@ 004bed9c     libucrtd:ftell.obj
 0002:00003dbc       ??_C@_0DI@DNFGFCIK@minkernel?2crts?2ucrt?2inc?2corecrt_@ 004bedbc     libucrtd:unlink.obj
 0002:00003e00       _standard_lookup_table     004bee00     libucrtd:output.obj
 0002:00003e70       _format_validation_lookup_table 004bee70     libucrtd:output.obj
 0002:00003ee0       ??_C@_1GC@LCDLABEA@?$AAm?$AAi?$AAn?$AAk?$AAe?$AAr?$AAn?$AAe?$AAl?$AA?2?$AAc?$AAr?$AAt?$AAs?$AA?2?$AAu?$AAc?$AAr?$AAt?$AA?2?$AAi?$AAn?$AAc?$AA?2?$AAc?$AAo?$AAr?$AAe?$AAc?$AAr?$AAt?$AA_@ 004beee0     libucrtd:output.obj
 0002:00003f58       ??_C@_1II@DIIMCJOK@?$AA_?$AA_?$AAa?$AAc?$AAr?$AAt?$AA_?$AAs?$AAt?$AAd?$AAi?$AAo?$AA_?$AAc?$AAh?$AAa?$AAr?$AA_?$AAt?$AAr?$AAa?$AAi?$AAt?$AAs?$AA?$DM?$AAc?$AAh?$AAa?$AAr?$AA?$DO?$AA?3?$AA?3@ 004bef58     libucrtd:output.obj
 0002:00004000       ??_C@_1GA@MOBAPGIO@?$AAm?$AAi?$AAn?$AAk?$AAe?$AAr?$AAn?$AAe?$AAl?$AA?2?$AAc?$AAr?$AAt?$AAs?$AA?2?$AAu?$AAc?$AAr?$AAt?$AA?2?$AAs?$AAr?$AAc?$AA?2?$AAa?$AAp?$AAp?$AAc?$AAr?$AAt?$AA?2?$AAs@ 004bf000     libucrtd:output.obj
 0002:00004074       ??_C@_1CA@GELIJBMC@?$AAc?$AAo?$AAm?$AAm?$AAo?$AAn?$AA_?$AAv?$AAf?$AAp?$AAr?$AAi?$AAn?$AAt?$AAf?$AA?$AA@ 004bf074     libucrtd:output.obj
 0002:0000409c       ??_C@_1CE@EAKLPBKK@?$AAf?$AAo?$AAr?$AAm?$AAa?$AAt?$AA?5?$AA?$CB?$AA?$DN?$AA?5?$AAn?$AAu?$AAl?$AAl?$AAp?$AAt?$AAr?$AA?$AA@ 004bf09c     libucrtd:output.obj
 0002:000040c8       ??_C@_1CA@PIMGHCEK@?$AAc?$AAo?$AAm?$AAm?$AAo?$AAn?$AA_?$AAv?$AAs?$AAp?$AAr?$AAi?$AAn?$AAt?$AAf?$AA?$AA@ 004bf0c8     libucrtd:output.obj
 0002:000040f0       ??_C@_1EO@EGEEFEFM@?$AAb?$AAu?$AAf?$AAf?$AAe?$AAr?$AA_?$AAc?$AAo?$AAu?$AAn?$AAt?$AA?5?$AA?$DN?$AA?$DN?$AA?5?$AA0?$AA?5?$AA?$HM?$AA?$HM?$AA?5?$AAb?$AAu?$AAf?$AAf?$AAe?$AAr?$AA?5?$AA?$CB?$AA?$DN?$AA?5?$AAn@ 004bf0f0     libucrtd:output.obj
 0002:00004150       ??_C@_1CE@JEILLNB@?$AAc?$AAo?$AAm?$AAm?$AAo?$AAn?$AA_?$AAv?$AAs?$AAp?$AAr?$AAi?$AAn?$AAt?$AAf?$AA_?$AAs?$AA?$AA@ 004bf150     libucrtd:output.obj
 0002:00004180       ??_C@_1EM@OAFHAOLH@?$AAb?$AAu?$AAf?$AAf?$AAe?$AAr?$AA?5?$AA?$CB?$AA?$DN?$AA?5?$AAn?$AAu?$AAl?$AAl?$AAp?$AAt?$AAr?$AA?5?$AA?$CG?$AA?$CG?$AA?5?$AAb?$AAu?$AAf?$AAf?$AAe?$AAr?$AA_?$AAc?$AAo?$AAu?$AAn@ 004bf180     libucrtd:output.obj
 0002:000041dc       ??_C@_1DA@HPBFKMEB@?$AA?$CI?$AA?$CC?$AAB?$AAu?$AAf?$AAf?$AAe?$AAr?$AA?5?$AAt?$AAo?$AAo?$AA?5?$AAs?$AAm?$AAa?$AAl?$AAl?$AA?$CC?$AA?0?$AA?5?$AA0?$AA?$CJ?$AA?$AA@ 004bf1dc     libucrtd:output.obj
 0002:00004218       ??_C@_1CG@LHFJHFBB@?$AAc?$AAo?$AAm?$AAm?$AAo?$AAn?$AA_?$AAv?$AAs?$AAn?$AAp?$AAr?$AAi?$AAn?$AAt?$AAf?$AA_?$AAs?$AA?$AA@ 004bf218     libucrtd:output.obj
 0002:00004248       ??_C@_1CM@JOIJBMEM@?$AA_?$AAf?$AAo?$AAr?$AAm?$AAa?$AAt?$AA_?$AAi?$AAt?$AA?5?$AA?$CB?$AA?$DN?$AA?5?$AAn?$AAu?$AAl?$AAl?$AAp?$AAt?$AAr?$AA?$AA@ 004bf248     libucrtd:output.obj
 0002:00004280       ??_C@_1HA@DMAAKIJP@?$AAm?$AAi?$AAn?$AAk?$AAe?$AAr?$AAn?$AAe?$AAl?$AA?2?$AAc?$AAr?$AAt?$AAs?$AA?2?$AAu?$AAc?$AAr?$AAt?$AA?2?$AAi?$AAn?$AAc?$AA?2?$AAc?$AAo?$AAr?$AAe?$AAc?$AAr?$AAt?$AA_@ 004bf280     libucrtd:output.obj
 0002:00004308       ??_C@_1BNA@OIIAGHJI@?$AA_?$AA_?$AAc?$AAr?$AAt?$AA_?$AAs?$AAt?$AAd?$AAi?$AAo?$AA_?$AAo?$AAu?$AAt?$AAp?$AAu?$AAt?$AA?3?$AA?3?$AAo?$AAu?$AAt?$AAp?$AAu?$AAt?$AA_?$AAp?$AAr?$AAo?$AAc?$AAe@ 004bf308     libucrtd:output.obj
 0002:00004538       ??_C@_1EE@DMAIGNBG@?$AA?$CI?$AA?$CC?$AAI?$AAn?$AAc?$AAo?$AAr?$AAr?$AAe?$AAc?$AAt?$AA?5?$AAf?$AAo?$AAr?$AAm?$AAa?$AAt?$AA?5?$AAs?$AAp?$AAe?$AAc?$AAi?$AAf?$AAi?$AAe?$AAr?$AA?$CC?$AA?0?$AA?5?$AA0@ 004bf538     libucrtd:output.obj
 0002:00004590       ??_C@_1BLI@EGFICANE@?$AA_?$AA_?$AAc?$AAr?$AAt?$AA_?$AAs?$AAt?$AAd?$AAi?$AAo?$AA_?$AAo?$AAu?$AAt?$AAp?$AAu?$AAt?$AA?3?$AA?3?$AAo?$AAu?$AAt?$AAp?$AAu?$AAt?$AA_?$AAp?$AAr?$AAo?$AAc?$AAe@ 004bf590     libucrtd:output.obj
 0002:000047a0       ??_C@_1BLI@IKDKMDHI@?$AA_?$AA_?$AAc?$AAr?$AAt?$AA_?$AAs?$AAt?$AAd?$AAi?$AAo?$AA_?$AAo?$AAu?$AAt?$AAp?$AAu?$AAt?$AA?3?$AA?3?$AAo?$AAu?$AAt?$AAp?$AAu?$AAt?$AA_?$AAp?$AAr?$AAo?$AAc?$AAe@ 004bf7a0     libucrtd:output.obj
 0002:000049b0       ??_C@_1BKA@DNADAJMC@?$AA_?$AA_?$AAc?$AAr?$AAt?$AA_?$AAs?$AAt?$AAd?$AAi?$AAo?$AA_?$AAo?$AAu?$AAt?$AAp?$AAu?$AAt?$AA?3?$AA?3?$AAo?$AAu?$AAt?$AAp?$AAu?$AAt?$AA_?$AAp?$AAr?$AAo?$AAc?$AAe@ 004bf9b0     libucrtd:output.obj
 0002:00004ba8       ??_C@_1BNA@HGLCOOBP@?$AA_?$AA_?$AAc?$AAr?$AAt?$AA_?$AAs?$AAt?$AAd?$AAi?$AAo?$AA_?$AAo?$AAu?$AAt?$AAp?$AAu?$AAt?$AA?3?$AA?3?$AAo?$AAu?$AAt?$AAp?$AAu?$AAt?$AA_?$AAp?$AAr?$AAo?$AAc?$AAe@ 004bfba8     libucrtd:output.obj
 0002:00004dd8       ??_C@_1BLI@FOCNEPKJ@?$AA_?$AA_?$AAc?$AAr?$AAt?$AA_?$AAs?$AAt?$AAd?$AAi?$AAo?$AA_?$AAo?$AAu?$AAt?$AAp?$AAu?$AAt?$AA?3?$AA?3?$AAo?$AAu?$AAt?$AAp?$AAu?$AAt?$AA_?$AAp?$AAr?$AAo?$AAc?$AAe@ 004bfdd8     libucrtd:output.obj
 0002:00004fe8       ??_C@_1BMK@CPBKHDIH@?$AA_?$AA_?$AAc?$AAr?$AAt?$AA_?$AAs?$AAt?$AAd?$AAi?$AAo?$AA_?$AAo?$AAu?$AAt?$AAp?$AAu?$AAt?$AA?3?$AA?3?$AAo?$AAu?$AAt?$AAp?$AAu?$AAt?$AA_?$AAp?$AAr?$AAo?$AAc?$AAe@ 004bffe8     libucrtd:output.obj
 0002:00005210       ??_C@_1BLC@PMCLHHAE@?$AA_?$AA_?$AAc?$AAr?$AAt?$AA_?$AAs?$AAt?$AAd?$AAi?$AAo?$AA_?$AAo?$AAu?$AAt?$AAp?$AAu?$AAt?$AA?3?$AA?3?$AAo?$AAu?$AAt?$AAp?$AAu?$AAt?$AA_?$AAp?$AAr?$AAo?$AAc?$AAe@ 004c0210     libucrtd:output.obj
 0002:00005418       ??_C@_1BLI@EEAAPJD@?$AA_?$AA_?$AAc?$AAr?$AAt?$AA_?$AAs?$AAt?$AAd?$AAi?$AAo?$AA_?$AAo?$AAu?$AAt?$AAp?$AAu?$AAt?$AA?3?$AA?3?$AAo?$AAu?$AAt?$AAp?$AAu?$AAt?$AA_?$AAp?$AAr?$AAo?$AAc?$AAe@ 004c0418     libucrtd:output.obj
 0002:00005628       ??_C@_1BKA@IIAAOGBO@?$AA_?$AA_?$AAc?$AAr?$AAt?$AA_?$AAs?$AAt?$AAd?$AAi?$AAo?$AA_?$AAo?$AAu?$AAt?$AAp?$AAu?$AAt?$AA?3?$AA?3?$AAo?$AAu?$AAt?$AAp?$AAu?$AAt?$AA_?$AAp?$AAr?$AAo?$AAc?$AAe@ 004c0628     libucrtd:output.obj
 0002:00005820       ??_C@_1FG@OBJBDPAC@?$AA?$CI?$AA?$CC?$AAN?$AA?5?$AAl?$AAe?$AAn?$AAg?$AAt?$AAh?$AA?5?$AAm?$AAo?$AAd?$AAi?$AAf?$AAi?$AAe?$AAr?$AA?5?$AAn?$AAo?$AAt?$AA?5?$AAs?$AAp?$AAe?$AAc?$AAi?$AAf?$AAi?$AAe@ 004c0820     libucrtd:output.obj
 0002:00005888       ??_C@_1BOA@BMEGDMHF@?$AA_?$AA_?$AAc?$AAr?$AAt?$AA_?$AAs?$AAt?$AAd?$AAi?$AAo?$AA_?$AAo?$AAu?$AAt?$AAp?$AAu?$AAt?$AA?3?$AA?3?$AAo?$AAu?$AAt?$AAp?$AAu?$AAt?$AA_?$AAp?$AAr?$AAo?$AAc?$AAe@ 004c0888     libucrtd:output.obj
 0002:00005ac8       ??_C@_1EC@GJPNJDCN@?$AA_?$AAl?$AAe?$AAn?$AAg?$AAt?$AAh?$AA?5?$AA?$DN?$AA?$DN?$AA?5?$AAl?$AAe?$AAn?$AAg?$AAt?$AAh?$AA_?$AAm?$AAo?$AAd?$AAi?$AAf?$AAi?$AAe?$AAr?$AA?3?$AA?3?$AAn?$AAo?$AAn?$AAe@ 004c0ac8     libucrtd:output.obj
 0002:00005b18       ??_C@_1DG@CEJKFDMO@?$AAs?$AAt?$AAa?$AAt?$AAe?$AA_?$AAc?$AAa?$AAs?$AAe?$AA_?$AAn?$AAo?$AAr?$AAm?$AAa?$AAl?$AA_?$AAc?$AAo?$AAm?$AAm?$AAo?$AAn?$AA?$CI?$AA?$CJ?$AA?$AA@ 004c0b18     libucrtd:output.obj
 0002:00005b58       ??_C@_1BOE@IPKNNOEE@?$AA_?$AA_?$AAc?$AAr?$AAt?$AA_?$AAs?$AAt?$AAd?$AAi?$AAo?$AA_?$AAo?$AAu?$AAt?$AAp?$AAu?$AAt?$AA?3?$AA?3?$AAo?$AAu?$AAt?$AAp?$AAu?$AAt?$AA_?$AAp?$AAr?$AAo?$AAc?$AAe@ 004c0b58     libucrtd:output.obj
 0002:00005da0       ??_C@_1IC@NLEOMCDL@?$AA_?$AAt?$AAy?$AAp?$AAe?$AA_?$AAi?$AAn?$AAd?$AAe?$AAx?$AA?5?$AA?$DO?$AA?$DN?$AA?5?$AA0?$AA?5?$AA?$CG?$AA?$CG?$AA?5?$AA?$CK?$AAe?$AAn?$AAd?$AA_?$AAp?$AAo?$AAi?$AAn?$AAt?$AAe?$AAr@ 004c0da0     libucrtd:output.obj
 0002:00005e40       ??_C@_1BFK@KNCMELHH@?$AA_?$AA_?$AAc?$AAr?$AAt?$AA_?$AAs?$AAt?$AAd?$AAi?$AAo?$AA_?$AAo?$AAu?$AAt?$AAp?$AAu?$AAt?$AA?3?$AA?3?$AAp?$AAo?$AAs?$AAi?$AAt?$AAi?$AAo?$AAn?$AAa?$AAl?$AA_?$AAp@ 004c0e40     libucrtd:output.obj
 0002:00005fe0       ??_C@_1FK@BCPANIEK@?$AA?$CI?$AA?$CC?$AAM?$AAi?$AAs?$AAs?$AAi?$AAn?$AAg?$AA?5?$AAp?$AAo?$AAs?$AAi?$AAt?$AAi?$AAo?$AAn?$AA?5?$AAi?$AAn?$AA?5?$AAt?$AAh?$AAe?$AA?5?$AAf?$AAo?$AAr?$AAm?$AAa?$AAt@ 004c0fe0     libucrtd:output.obj
 0002:00006050       ??_C@_1BEI@IHLBHMLJ@?$AA_?$AA_?$AAc?$AAr?$AAt?$AA_?$AAs?$AAt?$AAd?$AAi?$AAo?$AA_?$AAo?$AAu?$AAt?$AAp?$AAu?$AAt?$AA?3?$AA?3?$AAp?$AAo?$AAs?$AAi?$AAt?$AAi?$AAo?$AAn?$AAa?$AAl?$AA_?$AAp@ 004c1050     libucrtd:output.obj
 0002:000061e0       ??_C@_1BMI@LKDDDFDL@?$AA_?$AA_?$AAc?$AAr?$AAt?$AA_?$AAs?$AAt?$AAd?$AAi?$AAo?$AA_?$AAo?$AAu?$AAt?$AAp?$AAu?$AAt?$AA?3?$AA?3?$AAo?$AAu?$AAt?$AAp?$AAu?$AAt?$AA_?$AAp?$AAr?$AAo?$AAc?$AAe@ 004c11e0     libucrtd:output.obj
 0002:00006408       ??_C@_1BMM@JGEKEBKL@?$AA_?$AA_?$AAc?$AAr?$AAt?$AA_?$AAs?$AAt?$AAd?$AAi?$AAo?$AA_?$AAo?$AAu?$AAt?$AAp?$AAu?$AAt?$AA?3?$AA?3?$AAo?$AAu?$AAt?$AAp?$AAu?$AAt?$AA_?$AAp?$AAr?$AAo?$AAc?$AAe@ 004c1408     libucrtd:output.obj
 0002:00006630       ??_C@_1BEO@ODGKIOAL@?$AA_?$AA_?$AAc?$AAr?$AAt?$AA_?$AAs?$AAt?$AAd?$AAi?$AAo?$AA_?$AAo?$AAu?$AAt?$AAp?$AAu?$AAt?$AA?3?$AA?3?$AAp?$AAo?$AAs?$AAi?$AAt?$AAi?$AAo?$AAn?$AAa?$AAl?$AA_?$AAp@ 004c1630     libucrtd:output.obj
 0002:000067c0       ??_C@_1BDM@GFCGMNL@?$AA_?$AA_?$AAc?$AAr?$AAt?$AA_?$AAs?$AAt?$AAd?$AAi?$AAo?$AA_?$AAo?$AAu?$AAt?$AAp?$AAu?$AAt?$AA?3?$AA?3?$AAp?$AAo?$AAs?$AAi?$AAt?$AAi?$AAo?$AAn?$AAa?$AAl?$AA_?$AAp@ 004c17c0     libucrtd:output.obj
 0002:00006940       ??_C@_1BMI@KBPJOJJI@?$AA_?$AA_?$AAc?$AAr?$AAt?$AA_?$AAs?$AAt?$AAd?$AAi?$AAo?$AA_?$AAo?$AAu?$AAt?$AAp?$AAu?$AAt?$AA?3?$AA?3?$AAo?$AAu?$AAt?$AAp?$AAu?$AAt?$AA_?$AAp?$AAr?$AAo?$AAc?$AAe@ 004c1940     libucrtd:output.obj
 0002:00006b68       ??_C@_1BMM@PGHHMNDM@?$AA_?$AA_?$AAc?$AAr?$AAt?$AA_?$AAs?$AAt?$AAd?$AAi?$AAo?$AA_?$AAo?$AAu?$AAt?$AAp?$AAu?$AAt?$AA?3?$AA?3?$AAo?$AAu?$AAt?$AAp?$AAu?$AAt?$AA_?$AAp?$AAr?$AAo?$AAc?$AAe@ 004c1b68     libucrtd:output.obj
 0002:00006d90       ??_C@_1CI@DDKMNCPP@?$AA_?$AAc?$AAo?$AAn?$AAt?$AAe?$AAx?$AAt?$AA?5?$AA?$CB?$AA?$DN?$AA?5?$AAn?$AAu?$AAl?$AAl?$AAp?$AAt?$AAr?$AA?$AA@ 004c1d90     libucrtd:output.obj
 0002:00006dc0       ??_C@_1HK@IIPGOADH@?$AA_?$AA_?$AAc?$AAr?$AAt?$AA_?$AAs?$AAt?$AAd?$AAi?$AAo?$AA_?$AAo?$AAu?$AAt?$AAp?$AAu?$AAt?$AA?3?$AA?3?$AAs?$AAt?$AAr?$AAi?$AAn?$AAg?$AA_?$AAo?$AAu?$AAt?$AAp?$AAu@ 004c1dc0     libucrtd:output.obj
 0002:00006e58       ??_C@_1BLA@MEDMHIOH@?$AA_?$AA_?$AAc?$AAr?$AAt?$AA_?$AAs?$AAt?$AAd?$AAi?$AAo?$AA_?$AAo?$AAu?$AAt?$AAp?$AAu?$AAt?$AA?3?$AA?3?$AAo?$AAu?$AAt?$AAp?$AAu?$AAt?$AA_?$AAp?$AAr?$AAo?$AAc?$AAe@ 004c1e58     libucrtd:output.obj
 0002:00007060       ??_C@_1BLE@LCKPBJON@?$AA_?$AA_?$AAc?$AAr?$AAt?$AA_?$AAs?$AAt?$AAd?$AAi?$AAo?$AA_?$AAo?$AAu?$AAt?$AAp?$AAu?$AAt?$AA?3?$AA?3?$AAo?$AAu?$AAt?$AAp?$AAu?$AAt?$AA_?$AAp?$AAr?$AAo?$AAc?$AAe@ 004c2060     libucrtd:output.obj
 0002:00007270       ??_C@_1HE@IACOMEJF@?$AA_?$AA_?$AAc?$AAr?$AAt?$AA_?$AAs?$AAt?$AAd?$AAi?$AAo?$AA_?$AAo?$AAu?$AAt?$AAp?$AAu?$AAt?$AA?3?$AA?3?$AAs?$AAt?$AAr?$AAi?$AAn?$AAg?$AA_?$AAo?$AAu?$AAt?$AAp?$AAu@ 004c2270     libucrtd:output.obj
 0002:00007300       ??_C@_1BOA@CBIEMBEE@?$AA_?$AA_?$AAc?$AAr?$AAt?$AA_?$AAs?$AAt?$AAd?$AAi?$AAo?$AA_?$AAo?$AAu?$AAt?$AAp?$AAu?$AAt?$AA?3?$AA?3?$AAo?$AAu?$AAt?$AAp?$AAu?$AAt?$AA_?$AAp?$AAr?$AAo?$AAc?$AAe@ 004c2300     libucrtd:output.obj
 0002:00007540       ??_C@_1BOE@NLICFINO@?$AA_?$AA_?$AAc?$AAr?$AAt?$AA_?$AAs?$AAt?$AAd?$AAi?$AAo?$AA_?$AAo?$AAu?$AAt?$AAp?$AAu?$AAt?$AA?3?$AA?3?$AAo?$AAu?$AAt?$AAp?$AAu?$AAt?$AA_?$AAp?$AAr?$AAo?$AAc?$AAe@ 004c2540     libucrtd:output.obj
 0002:00007788       ??_C@_1BFK@IOIDDMPJ@?$AA_?$AA_?$AAc?$AAr?$AAt?$AA_?$AAs?$AAt?$AAd?$AAi?$AAo?$AA_?$AAo?$AAu?$AAt?$AAp?$AAu?$AAt?$AA?3?$AA?3?$AAp?$AAo?$AAs?$AAi?$AAt?$AAi?$AAo?$AAn?$AAa?$AAl?$AA_?$AAp@ 004c2788     libucrtd:output.obj
 0002:00007928       ??_C@_1BEI@JNJAFAD@?$AA_?$AA_?$AAc?$AAr?$AAt?$AA_?$AAs?$AAt?$AAd?$AAi?$AAo?$AA_?$AAo?$AAu?$AAt?$AAp?$AAu?$AAt?$AA?3?$AA?3?$AAp?$AAo?$AAs?$AAi?$AAt?$AAi?$AAo?$AAn?$AAa?$AAl?$AA_?$AAp@ 004c2928     libucrtd:output.obj
 0002:00007ab8       ??_C@_1BMI@PKGBOKJK@?$AA_?$AA_?$AAc?$AAr?$AAt?$AA_?$AAs?$AAt?$AAd?$AAi?$AAo?$AA_?$AAo?$AAu?$AAt?$AAp?$AAu?$AAt?$AA?3?$AA?3?$AAo?$AAu?$AAt?$AAp?$AAu?$AAt?$AA_?$AAp?$AAr?$AAo?$AAc?$AAe@ 004c2ab8     libucrtd:output.obj
 0002:00007ce0       ??_C@_1BMM@BLBJDDIA@?$AA_?$AA_?$AAc?$AAr?$AAt?$AA_?$AAs?$AAt?$AAd?$AAi?$AAo?$AA_?$AAo?$AAu?$AAt?$AAp?$AAu?$AAt?$AA?3?$AA?3?$AAo?$AAu?$AAt?$AAp?$AAu?$AAt?$AA_?$AAp?$AAr?$AAo?$AAc?$AAe@ 004c2ce0     libucrtd:output.obj
 0002:00007f08       ??_C@_1BEO@JEHLMMKB@?$AA_?$AA_?$AAc?$AAr?$AAt?$AA_?$AAs?$AAt?$AAd?$AAi?$AAo?$AA_?$AAo?$AAu?$AAt?$AAp?$AAu?$AAt?$AA?3?$AA?3?$AAp?$AAo?$AAs?$AAi?$AAt?$AAi?$AAo?$AAn?$AAa?$AAl?$AA_?$AAp@ 004c2f08     libucrtd:output.obj
 0002:00008098       ??_C@_1BDM@FDOLKCHK@?$AA_?$AA_?$AAc?$AAr?$AAt?$AA_?$AAs?$AAt?$AAd?$AAi?$AAo?$AA_?$AAo?$AAu?$AAt?$AAp?$AAu?$AAt?$AA?3?$AA?3?$AAp?$AAo?$AAs?$AAi?$AAt?$AAi?$AAo?$AAn?$AAa?$AAl?$AA_?$AAp@ 004c3098     libucrtd:output.obj
 0002:00008218       ??_C@_1BNK@ONPHCEAM@?$AA_?$AA_?$AAc?$AAr?$AAt?$AA_?$AAs?$AAt?$AAd?$AAi?$AAo?$AA_?$AAo?$AAu?$AAt?$AAp?$AAu?$AAt?$AA?3?$AA?3?$AAo?$AAu?$AAt?$AAp?$AAu?$AAt?$AA_?$AAp?$AAr?$AAo?$AAc?$AAe@ 004c3218     libucrtd:output.obj
 0002:00008450       ??_C@_1BNO@LMMLJOOJ@?$AA_?$AA_?$AAc?$AAr?$AAt?$AA_?$AAs?$AAt?$AAd?$AAi?$AAo?$AA_?$AAo?$AAu?$AAt?$AAp?$AAu?$AAt?$AA?3?$AA?3?$AAo?$AAu?$AAt?$AAp?$AAu?$AAt?$AA_?$AAp?$AAr?$AAo?$AAc?$AAe@ 004c3450     libucrtd:output.obj
 0002:00008690       ??_C@_1GC@BNMHNGKM@?$AA_?$AAs?$AAt?$AAa?$AAt?$AAe?$AA?5?$AA?$DN?$AA?$DN?$AA?5?$AAs?$AAt?$AAa?$AAt?$AAe?$AA?3?$AA?3?$AAn?$AAo?$AAr?$AAm?$AAa?$AAl?$AA?5?$AA?$HM?$AA?$HM?$AA?5?$AA_?$AAs?$AAt?$AAa?$AAt@ 004c3690     libucrtd:output.obj
 0002:00008708       ??_C@_1BEC@FNIGNBHI@?$AA_?$AA_?$AAc?$AAr?$AAt?$AA_?$AAs?$AAt?$AAd?$AAi?$AAo?$AA_?$AAo?$AAu?$AAt?$AAp?$AAu?$AAt?$AA?3?$AA?3?$AAf?$AAo?$AAr?$AAm?$AAa?$AAt?$AA_?$AAv?$AAa?$AAl?$AAi?$AAd@ 004c3708     libucrtd:output.obj
 0002:00008890       ??_C@_1BMC@DAENMDAD@?$AA_?$AA_?$AAc?$AAr?$AAt?$AA_?$AAs?$AAt?$AAd?$AAi?$AAo?$AA_?$AAo?$AAu?$AAt?$AAp?$AAu?$AAt?$AA?3?$AA?3?$AAo?$AAu?$AAt?$AAp?$AAu?$AAt?$AA_?$AAp?$AAr?$AAo?$AAc?$AAe@ 004c3890     libucrtd:output.obj
 0002:00008ab0       ??_C@_1BMG@KOENKAMB@?$AA_?$AA_?$AAc?$AAr?$AAt?$AA_?$AAs?$AAt?$AAd?$AAi?$AAo?$AA_?$AAo?$AAu?$AAt?$AAp?$AAu?$AAt?$AA?3?$AA?3?$AAo?$AAu?$AAt?$AAp?$AAu?$AAt?$AA_?$AAp?$AAr?$AAo?$AAc?$AAe@ 004c3ab0     libucrtd:output.obj
 0002:00008cd0       ??_C@_1BDG@PLANJEFE@?$AA_?$AA_?$AAc?$AAr?$AAt?$AA_?$AAs?$AAt?$AAd?$AAi?$AAo?$AA_?$AAo?$AAu?$AAt?$AAp?$AAu?$AAt?$AA?3?$AA?3?$AAf?$AAo?$AAr?$AAm?$AAa?$AAt?$AA_?$AAv?$AAa?$AAl?$AAi?$AAd@ 004c3cd0     libucrtd:output.obj
 0002:00008e48       ??_C@_1BMI@DNMDMAAN@?$AA_?$AA_?$AAc?$AAr?$AAt?$AA_?$AAs?$AAt?$AAd?$AAi?$AAo?$AA_?$AAo?$AAu?$AAt?$AAp?$AAu?$AAt?$AA?3?$AA?3?$AAo?$AAu?$AAt?$AAp?$AAu?$AAt?$AA_?$AAp?$AAr?$AAo?$AAc?$AAe@ 004c3e48     libucrtd:output.obj
 0002:00009070       ??_C@_1BMM@JHGFKAND@?$AA_?$AA_?$AAc?$AAr?$AAt?$AA_?$AAs?$AAt?$AAd?$AAi?$AAo?$AA_?$AAo?$AAu?$AAt?$AAp?$AAu?$AAt?$AA?3?$AA?3?$AAo?$AAu?$AAt?$AAp?$AAu?$AAt?$AA_?$AAp?$AAr?$AAo?$AAc?$AAe@ 004c4070     libucrtd:output.obj
 0002:00009298       ??_C@_1CA@ONEGMNAN@?$AA_?$AAs?$AAt?$AAr?$AAe?$AAa?$AAm?$AA?4?$AAv?$AAa?$AAl?$AAi?$AAd?$AA?$CI?$AA?$CJ?$AA?$AA@ 004c4298     libucrtd:output.obj
 0002:000092c0       ??_C@_1HK@MPBCDOK@?$AA_?$AA_?$AAc?$AAr?$AAt?$AA_?$AAs?$AAt?$AAd?$AAi?$AAo?$AA_?$AAo?$AAu?$AAt?$AAp?$AAu?$AAt?$AA?3?$AA?3?$AAs?$AAt?$AAr?$AAe?$AAa?$AAm?$AA_?$AAo?$AAu?$AAt?$AAp?$AAu@ 004c42c0     libucrtd:output.obj
 0002:00009358       ??_C@_1BLA@GJNGKGIK@?$AA_?$AA_?$AAc?$AAr?$AAt?$AA_?$AAs?$AAt?$AAd?$AAi?$AAo?$AA_?$AAo?$AAu?$AAt?$AAp?$AAu?$AAt?$AA?3?$AA?3?$AAo?$AAu?$AAt?$AAp?$AAu?$AAt?$AA_?$AAp?$AAr?$AAo?$AAc?$AAe@ 004c4358     libucrtd:output.obj
 0002:00009560       ??_C@_1BLE@PAACOKDK@?$AA_?$AA_?$AAc?$AAr?$AAt?$AA_?$AAs?$AAt?$AAd?$AAi?$AAo?$AA_?$AAo?$AAu?$AAt?$AAp?$AAu?$AAt?$AA?3?$AA?3?$AAo?$AAu?$AAt?$AAp?$AAu?$AAt?$AA_?$AAp?$AAr?$AAo?$AAc?$AAe@ 004c4560     libucrtd:output.obj
 0002:00009770       ??_C@_1HE@FGKHNBNL@?$AA_?$AA_?$AAc?$AAr?$AAt?$AA_?$AAs?$AAt?$AAd?$AAi?$AAo?$AA_?$AAo?$AAu?$AAt?$AAp?$AAu?$AAt?$AA?3?$AA?3?$AAs?$AAt?$AAr?$AAe?$AAa?$AAm?$AA_?$AAo?$AAu?$AAt?$AAp?$AAu@ 004c4770     libucrtd:output.obj
 0002:00009800       ??_C@_1BEC@NDOOKIMC@?$AA_?$AA_?$AAc?$AAr?$AAt?$AA_?$AAs?$AAt?$AAd?$AAi?$AAo?$AA_?$AAo?$AAu?$AAt?$AAp?$AAu?$AAt?$AA?3?$AA?3?$AAf?$AAo?$AAr?$AAm?$AAa?$AAt?$AA_?$AAv?$AAa?$AAl?$AAi?$AAd@ 004c4800     libucrtd:output.obj
 0002:00009988       ??_C@_1EK@PNGFDECN@?$AA?$CI?$AA?$CC?$AA?8?$AAn?$AA?8?$AA?5?$AAf?$AAo?$AAr?$AAm?$AAa?$AAt?$AA?5?$AAs?$AAp?$AAe?$AAc?$AAi?$AAf?$AAi?$AAe?$AAr?$AA?5?$AAd?$AAi?$AAs?$AAa?$AAb?$AAl?$AAe?$AAd?$AA?$CC@ 004c4988     libucrtd:output.obj
 0002:000099e0       ??_C@_1BNI@OPBGCNOB@?$AA_?$AA_?$AAc?$AAr?$AAt?$AA_?$AAs?$AAt?$AAd?$AAi?$AAo?$AA_?$AAo?$AAu?$AAt?$AAp?$AAu?$AAt?$AA?3?$AA?3?$AAo?$AAu?$AAt?$AAp?$AAu?$AAt?$AA_?$AAp?$AAr?$AAo?$AAc?$AAe@ 004c49e0     libucrtd:output.obj
 0002:00009c18       ??_C@_1EO@GHKFGFKL@?$AA?$CI?$AA?$CC?$AAI?$AAn?$AAv?$AAa?$AAl?$AAi?$AAd?$AA?5?$AAi?$AAn?$AAt?$AAe?$AAg?$AAe?$AAr?$AA?5?$AAl?$AAe?$AAn?$AAg?$AAt?$AAh?$AA?5?$AAm?$AAo?$AAd?$AAi?$AAf?$AAi?$AAe@ 004c4c18     libucrtd:output.obj
 0002:00009c78       ??_C@_1JC@PMCLKCOC@?$AAp?$AAr?$AAe?$AAc?$AAi?$AAs?$AAi?$AAo?$AAn?$AA_?$AAi?$AAn?$AAd?$AAe?$AAx?$AA?5?$AA?$DO?$AA?$DN?$AA?5?$AA0?$AA?5?$AA?$CG?$AA?$CG?$AA?5?$AA?$CK?$AAe?$AAn?$AAd?$AA_?$AAp?$AAo?$AAi@ 004c4c78     libucrtd:output.obj
 0002:00009d28       ??_C@_1BAG@GKCGGKOF@?$AA_?$AA_?$AAc?$AAr?$AAt?$AA_?$AAs?$AAt?$AAd?$AAi?$AAo?$AA_?$AAo?$AAu?$AAt?$AAp?$AAu?$AAt?$AA?3?$AA?3?$AAp?$AAo?$AAs?$AAi?$AAt?$AAi?$AAo?$AAn?$AAa?$AAl?$AA_?$AAp@ 004c4d28     libucrtd:output.obj
 0002:00009e68       ??_C@_1IC@KGDNLBNC@?$AAw?$AAi?$AAd?$AAt?$AAh?$AA_?$AAi?$AAn?$AAd?$AAe?$AAx?$AA?5?$AA?$DO?$AA?$DN?$AA?5?$AA0?$AA?5?$AA?$CG?$AA?$CG?$AA?5?$AA?$CK?$AAe?$AAn?$AAd?$AA_?$AAp?$AAo?$AAi?$AAn?$AAt?$AAe?$AAr@ 004c4e68     libucrtd:output.obj
 0002:00009f08       ??_C@_1BAK@CDLANFGA@?$AA_?$AA_?$AAc?$AAr?$AAt?$AA_?$AAs?$AAt?$AAd?$AAi?$AAo?$AA_?$AAo?$AAu?$AAt?$AAp?$AAu?$AAt?$AA?3?$AA?3?$AAp?$AAo?$AAs?$AAi?$AAt?$AAi?$AAo?$AAn?$AAa?$AAl?$AA_?$AAp@ 004c4f08     libucrtd:output.obj
 0002:0000a048       ??_C@_1BDG@KOLEFKPF@?$AA_?$AA_?$AAc?$AAr?$AAt?$AA_?$AAs?$AAt?$AAd?$AAi?$AAo?$AA_?$AAo?$AAu?$AAt?$AAp?$AAu?$AAt?$AA?3?$AA?3?$AAf?$AAo?$AAr?$AAm?$AAa?$AAt?$AA_?$AAv?$AAa?$AAl?$AAi?$AAd@ 004c5048     libucrtd:output.obj
 0002:0000a1c0       ??_C@_1BMA@CBPCAOAB@?$AA_?$AA_?$AAc?$AAr?$AAt?$AA_?$AAs?$AAt?$AAd?$AAi?$AAo?$AA_?$AAo?$AAu?$AAt?$AAp?$AAu?$AAt?$AA?3?$AA?3?$AAo?$AAu?$AAt?$AAp?$AAu?$AAt?$AA_?$AAp?$AAr?$AAo?$AAc?$AAe@ 004c51c0     libucrtd:output.obj
 0002:0000a3e0       ??_C@_1PK@KBJLALII@?$AA_?$AA_?$AAc?$AAr?$AAt?$AA_?$AAs?$AAt?$AAd?$AAi?$AAo?$AA_?$AAo?$AAu?$AAt?$AAp?$AAu?$AAt?$AA?3?$AA?3?$AAp?$AAo?$AAs?$AAi?$AAt?$AAi?$AAo?$AAn?$AAa?$AAl?$AA_?$AAp@ 004c53e0     libucrtd:output.obj
 0002:0000a510       ??_C@_1PO@PODEJAGE@?$AA_?$AA_?$AAc?$AAr?$AAt?$AA_?$AAs?$AAt?$AAd?$AAi?$AAo?$AA_?$AAo?$AAu?$AAt?$AAp?$AAu?$AAt?$AA?3?$AA?3?$AAp?$AAo?$AAs?$AAi?$AAt?$AAi?$AAo?$AAn?$AAa?$AAl?$AA_?$AAp@ 004c5510     libucrtd:output.obj
 0002:0000a640       ??_C@_1BMA@IHIBOLMD@?$AA_?$AA_?$AAc?$AAr?$AAt?$AA_?$AAs?$AAt?$AAd?$AAi?$AAo?$AA_?$AAo?$AAu?$AAt?$AAp?$AAu?$AAt?$AA?3?$AA?3?$AAo?$AAu?$AAt?$AAp?$AAu?$AAt?$AA_?$AAp?$AAr?$AAo?$AAc?$AAe@ 004c5640     libucrtd:output.obj
 0002:0000a860       ??_C@_1BKI@CJEIGDAI@?$AA_?$AA_?$AAc?$AAr?$AAt?$AA_?$AAs?$AAt?$AAd?$AAi?$AAo?$AA_?$AAo?$AAu?$AAt?$AAp?$AAu?$AAt?$AA?3?$AA?3?$AAo?$AAu?$AAt?$AAp?$AAu?$AAt?$AA_?$AAp?$AAr?$AAo?$AAc?$AAe@ 004c5860     libucrtd:output.obj
 0002:0000aa60       ??_C@_1BNI@IMOCDBNE@?$AA_?$AA_?$AAc?$AAr?$AAt?$AA_?$AAs?$AAt?$AAd?$AAi?$AAo?$AA_?$AAo?$AAu?$AAt?$AAp?$AAu?$AAt?$AA?3?$AA?3?$AAo?$AAu?$AAt?$AAp?$AAu?$AAt?$AA_?$AAp?$AAr?$AAo?$AAc?$AAe@ 004c5a60     libucrtd:output.obj
 0002:0000ac98       ??_C@_1BAG@DOFNHDMF@?$AA_?$AA_?$AAc?$AAr?$AAt?$AA_?$AAs?$AAt?$AAd?$AAi?$AAo?$AA_?$AAo?$AAu?$AAt?$AAp?$AAu?$AAt?$AA?3?$AA?3?$AAp?$AAo?$AAs?$AAi?$AAt?$AAi?$AAo?$AAn?$AAa?$AAl?$AA_?$AAp@ 004c5c98     libucrtd:output.obj
 0002:0000add8       ??_C@_1BAK@DALINHHB@?$AA_?$AA_?$AAc?$AAr?$AAt?$AA_?$AAs?$AAt?$AAd?$AAi?$AAo?$AA_?$AAo?$AAu?$AAt?$AAp?$AAu?$AAt?$AA?3?$AA?3?$AAp?$AAo?$AAs?$AAi?$AAt?$AAi?$AAo?$AAn?$AAa?$AAl?$AA_?$AAp@ 004c5dd8     libucrtd:output.obj
 0002:0000af18       ??_C@_1BMA@GACGPGHN@?$AA_?$AA_?$AAc?$AAr?$AAt?$AA_?$AAs?$AAt?$AAd?$AAi?$AAo?$AA_?$AAo?$AAu?$AAt?$AAp?$AAu?$AAt?$AA?3?$AA?3?$AAo?$AAu?$AAt?$AAp?$AAu?$AAt?$AA_?$AAp?$AAr?$AAo?$AAc?$AAe@ 004c5f18     libucrtd:output.obj
 0002:0000b138       ??_C@_1PK@KBJECIEM@?$AA_?$AA_?$AAc?$AAr?$AAt?$AA_?$AAs?$AAt?$AAd?$AAi?$AAo?$AA_?$AAo?$AAu?$AAt?$AAp?$AAu?$AAt?$AA?3?$AA?3?$AAp?$AAo?$AAs?$AAi?$AAt?$AAi?$AAo?$AAn?$AAa?$AAl?$AA_?$AAp@ 004c6138     libucrtd:output.obj
 0002:0000b268       ??_C@_1PO@LKIIANED@?$AA_?$AA_?$AAc?$AAr?$AAt?$AA_?$AAs?$AAt?$AAd?$AAi?$AAo?$AA_?$AAo?$AAu?$AAt?$AAp?$AAu?$AAt?$AA?3?$AA?3?$AAp?$AAo?$AAs?$AAi?$AAt?$AAi?$AAo?$AAn?$AAa?$AAl?$AA_?$AAp@ 004c6268     libucrtd:output.obj
 0002:0000b398       ??_C@_1BNC@DONELHFF@?$AA_?$AA_?$AAc?$AAr?$AAt?$AA_?$AAs?$AAt?$AAd?$AAi?$AAo?$AA_?$AAo?$AAu?$AAt?$AAp?$AAu?$AAt?$AA?3?$AA?3?$AAo?$AAu?$AAt?$AAp?$AAu?$AAt?$AA_?$AAp?$AAr?$AAo?$AAc?$AAe@ 004c6398     libucrtd:output.obj
 0002:0000b5c8       ??_C@_1BLK@BGFMMAPO@?$AA_?$AA_?$AAc?$AAr?$AAt?$AA_?$AAs?$AAt?$AAd?$AAi?$AAo?$AA_?$AAo?$AAu?$AAt?$AAp?$AAu?$AAt?$AA?3?$AA?3?$AAo?$AAu?$AAt?$AAp?$AAu?$AAt?$AA_?$AAp?$AAr?$AAo?$AAc?$AAe@ 004c65c8     libucrtd:output.obj
 0002:0000b7e0       ??_C@_1BMA@PGOJAHFP@?$AA_?$AA_?$AAc?$AAr?$AAt?$AA_?$AAs?$AAt?$AAd?$AAi?$AAo?$AA_?$AAo?$AAu?$AAt?$AAp?$AAu?$AAt?$AA?3?$AA?3?$AAo?$AAu?$AAt?$AAp?$AAu?$AAt?$AA_?$AAp?$AAr?$AAo?$AAc?$AAe@ 004c67e0     libucrtd:output.obj
 0002:0000ba00       ??_C@_1BKI@NDKBCDGP@?$AA_?$AA_?$AAc?$AAr?$AAt?$AA_?$AAs?$AAt?$AAd?$AAi?$AAo?$AA_?$AAo?$AAu?$AAt?$AAp?$AAu?$AAt?$AA?3?$AA?3?$AAo?$AAu?$AAt?$AAp?$AAu?$AAt?$AA_?$AAp?$AAr?$AAo?$AAc?$AAe@ 004c6a00     libucrtd:output.obj
 0002:0000bbfc       ??_C@_1O@CEDCILHN@?$AA?$CI?$AAn?$AAu?$AAl?$AAl?$AA?$CJ?$AA?$AA@ 004c6bfc     libucrtd:output.obj
 0002:0000bc0c       ??_C@_06OJHGLDPL@?$CInull?$CJ?$AA@ 004c6c0c     libucrtd:output.obj
 0002:0000bc18       ??_C@_1BOE@LIBLDKPN@?$AA_?$AA_?$AAc?$AAr?$AAt?$AA_?$AAs?$AAt?$AAd?$AAi?$AAo?$AA_?$AAo?$AAu?$AAt?$AAp?$AAu?$AAt?$AA?3?$AA?3?$AAo?$AAu?$AAt?$AAp?$AAu?$AAt?$AA_?$AAp?$AAr?$AAo?$AAc?$AAe@ 004c6c18     libucrtd:output.obj
 0002:0000be60       ??_C@_1LO@HECDHMMI@?$AAi?$AAs?$AA_?$AAp?$AAo?$AAs?$AAi?$AAt?$AAi?$AAo?$AAn?$AAa?$AAl?$AA_?$AAp?$AAa?$AAr?$AAa?$AAm?$AAe?$AAt?$AAe?$AAr?$AA_?$AAr?$AAe?$AAa?$AAp?$AAp?$AAe?$AAa?$AAr@ 004c6e60     libucrtd:output.obj
 0002:0000bf48       ??_C@_1BCI@OBMMNJKK@?$AA_?$AA_?$AAc?$AAr?$AAt?$AA_?$AAs?$AAt?$AAd?$AAi?$AAo?$AA_?$AAo?$AAu?$AAt?$AAp?$AAu?$AAt?$AA?3?$AA?3?$AAp?$AAo?$AAs?$AAi?$AAt?$AAi?$AAo?$AAn?$AAa?$AAl?$AA_?$AAp@ 004c6f48     libucrtd:output.obj
 0002:0000c0b0       ??_C@_1FE@IAFJEKN@?$AA_?$AAt?$AAy?$AAp?$AAe?$AA_?$AAi?$AAn?$AAd?$AAe?$AAx?$AA?5?$AA?$DO?$AA?$DN?$AA?5?$AA0?$AA?5?$AA?$CG?$AA?$CG?$AA?5?$AA_?$AAt?$AAy?$AAp?$AAe?$AA_?$AAi?$AAn?$AAd?$AAe?$AAx?$AA?5@ 004c70b0     libucrtd:output.obj
 0002:0000c118       ??_C@_1BCC@GJLKCHIG@?$AA_?$AA_?$AAc?$AAr?$AAt?$AA_?$AAs?$AAt?$AAd?$AAi?$AAo?$AA_?$AAo?$AAu?$AAt?$AAp?$AAu?$AAt?$AA?3?$AA?3?$AAp?$AAo?$AAs?$AAi?$AAt?$AAi?$AAo?$AAn?$AAa?$AAl?$AA_?$AAp@ 004c7118     libucrtd:output.obj
 0002:0000c278       ??_C@_1BMM@KBPMKFBC@?$AA_?$AA_?$AAc?$AAr?$AAt?$AA_?$AAs?$AAt?$AAd?$AAi?$AAo?$AA_?$AAo?$AAu?$AAt?$AAp?$AAu?$AAt?$AA?3?$AA?3?$AAo?$AAu?$AAt?$AAp?$AAu?$AAt?$AA_?$AAp?$AAr?$AAo?$AAc?$AAe@ 004c7278     libucrtd:output.obj
 0002:0000c4a0       ??_C@_1CK@LGDCECDH@?$AA_?$AAf?$AAo?$AAr?$AAm?$AAa?$AAt?$AA_?$AAc?$AAh?$AAa?$AAr?$AA?5?$AA?$CB?$AA?$DN?$AA?5?$AA?8?$AA?2?$AA0?$AA?8?$AA?$AA@ 004c74a0     libucrtd:output.obj
 0002:0000c4d8       ??_C@_1BNI@EDCGAPJB@?$AA_?$AA_?$AAc?$AAr?$AAt?$AA_?$AAs?$AAt?$AAd?$AAi?$AAo?$AA_?$AAo?$AAu?$AAt?$AAp?$AAu?$AAt?$AA?3?$AA?3?$AAo?$AAu?$AAt?$AAp?$AAu?$AAt?$AA_?$AAp?$AAr?$AAo?$AAc?$AAe@ 004c74d8     libucrtd:output.obj
 0002:0000c710       ??_C@_1BBM@CBBAFMPJ@?$AA_?$AA_?$AAc?$AAr?$AAt?$AA_?$AAs?$AAt?$AAd?$AAi?$AAo?$AA_?$AAo?$AAu?$AAt?$AAp?$AAu?$AAt?$AA?3?$AA?3?$AAp?$AAo?$AAs?$AAi?$AAt?$AAi?$AAo?$AAn?$AAa?$AAl?$AA_?$AAp@ 004c7710     libucrtd:output.obj
 0002:0000c868       ??_C@_1BBG@KIHCHFIM@?$AA_?$AA_?$AAc?$AAr?$AAt?$AA_?$AAs?$AAt?$AAd?$AAi?$AAo?$AA_?$AAo?$AAu?$AAt?$AAp?$AAu?$AAt?$AA?3?$AA?3?$AAp?$AAo?$AAs?$AAi?$AAt?$AAi?$AAo?$AAn?$AAa?$AAl?$AA_?$AAp@ 004c7868     libucrtd:output.obj
 0002:0000c9b8       ??_C@_1BMM@MBMBCJIF@?$AA_?$AA_?$AAc?$AAr?$AAt?$AA_?$AAs?$AAt?$AAd?$AAi?$AAo?$AA_?$AAo?$AAu?$AAt?$AAp?$AAu?$AAt?$AA?3?$AA?3?$AAo?$AAu?$AAt?$AAp?$AAu?$AAt?$AA_?$AAp?$AAr?$AAo?$AAc?$AAe@ 004c79b8     libucrtd:output.obj
 0002:0000cbe0       ??_C@_1BLE@IFBJPNFE@?$AA_?$AA_?$AAc?$AAr?$AAt?$AA_?$AAs?$AAt?$AAd?$AAi?$AAo?$AA_?$AAo?$AAu?$AAt?$AAp?$AAu?$AAt?$AA?3?$AA?3?$AAo?$AAu?$AAt?$AAp?$AAu?$AAt?$AA_?$AAp?$AAr?$AAo?$AAc?$AAe@ 004c7be0     libucrtd:output.obj
 0002:0000cdf0       ??_C@_1BMA@FANDDEHK@?$AA_?$AA_?$AAc?$AAr?$AAt?$AA_?$AAs?$AAt?$AAd?$AAi?$AAo?$AA_?$AAo?$AAu?$AAt?$AAp?$AAu?$AAt?$AA?3?$AA?3?$AAo?$AAu?$AAt?$AAp?$AAu?$AAt?$AA_?$AAp?$AAr?$AAo?$AAc?$AAe@ 004c7df0     libucrtd:output.obj
 0002:0000d010       ??_C@_1BOE@OMDELMGH@?$AA_?$AA_?$AAc?$AAr?$AAt?$AA_?$AAs?$AAt?$AAd?$AAi?$AAo?$AA_?$AAo?$AAu?$AAt?$AAp?$AAu?$AAt?$AA?3?$AA?3?$AAo?$AAu?$AAt?$AAp?$AAu?$AAt?$AA_?$AAp?$AAr?$AAo?$AAc?$AAe@ 004c8010     libucrtd:output.obj
 0002:0000d258       ??_C@_1BCI@ILAANKJG@?$AA_?$AA_?$AAc?$AAr?$AAt?$AA_?$AAs?$AAt?$AAd?$AAi?$AAo?$AA_?$AAo?$AAu?$AAt?$AAp?$AAu?$AAt?$AA?3?$AA?3?$AAp?$AAo?$AAs?$AAi?$AAt?$AAi?$AAo?$AAn?$AAa?$AAl?$AA_?$AAp@ 004c8258     libucrtd:output.obj
 0002:0000d3c0       ??_C@_1BCC@PDNLFIHK@?$AA_?$AA_?$AAc?$AAr?$AAt?$AA_?$AAs?$AAt?$AAd?$AAi?$AAo?$AA_?$AAo?$AAu?$AAt?$AAp?$AAu?$AAt?$AA?3?$AA?3?$AAp?$AAo?$AAs?$AAi?$AAt?$AAi?$AAo?$AAn?$AAa?$AAl?$AA_?$AAp@ 004c83c0     libucrtd:output.obj
 0002:0000d520       ??_C@_1BMM@CMKPNHDJ@?$AA_?$AA_?$AAc?$AAr?$AAt?$AA_?$AAs?$AAt?$AAd?$AAi?$AAo?$AA_?$AAo?$AAu?$AAt?$AAp?$AAu?$AAt?$AA?3?$AA?3?$AAo?$AAu?$AAt?$AAp?$AAu?$AAt?$AA_?$AAp?$AAr?$AAo?$AAc?$AAe@ 004c8520     libucrtd:output.obj
 0002:0000d748       ??_C@_1BNI@EJPCEBAG@?$AA_?$AA_?$AAc?$AAr?$AAt?$AA_?$AAs?$AAt?$AAd?$AAi?$AAo?$AA_?$AAo?$AAu?$AAt?$AAp?$AAu?$AAt?$AA?3?$AA?3?$AAo?$AAu?$AAt?$AAp?$AAu?$AAt?$AA_?$AAp?$AAr?$AAo?$AAc?$AAe@ 004c8748     libucrtd:output.obj
 0002:0000d980       ??_C@_1BBM@LLHBCDAF@?$AA_?$AA_?$AAc?$AAr?$AAt?$AA_?$AAs?$AAt?$AAd?$AAi?$AAo?$AA_?$AAo?$AAu?$AAt?$AAp?$AAu?$AAt?$AA?3?$AA?3?$AAp?$AAo?$AAs?$AAi?$AAt?$AAi?$AAo?$AAn?$AAa?$AAl?$AA_?$AAp@ 004c8980     libucrtd:output.obj
 0002:0000dad8       ??_C@_1BBG@JLLDGFML@?$AA_?$AA_?$AAc?$AAr?$AAt?$AA_?$AAs?$AAt?$AAd?$AAi?$AAo?$AA_?$AAo?$AAu?$AAt?$AAp?$AAu?$AAt?$AA?3?$AA?3?$AAp?$AAo?$AAs?$AAi?$AAt?$AAi?$AAo?$AAn?$AAa?$AAl?$AA_?$AAp@ 004c8ad8     libucrtd:output.obj
 0002:0000dc28       ??_C@_1BNO@ILHNHKFA@?$AA_?$AA_?$AAc?$AAr?$AAt?$AA_?$AAs?$AAt?$AAd?$AAi?$AAo?$AA_?$AAo?$AAu?$AAt?$AAp?$AAu?$AAt?$AA?3?$AA?3?$AAo?$AAu?$AAt?$AAp?$AAu?$AAt?$AA_?$AAp?$AAr?$AAo?$AAc?$AAe@ 004c8c28     libucrtd:output.obj
 0002:0000de68       ??_C@_1BMG@JJPLEEHI@?$AA_?$AA_?$AAc?$AAr?$AAt?$AA_?$AAs?$AAt?$AAd?$AAi?$AAo?$AA_?$AAo?$AAu?$AAt?$AAp?$AAu?$AAt?$AA?3?$AA?3?$AAo?$AAu?$AAt?$AAp?$AAu?$AAt?$AA_?$AAp?$AAr?$AAo?$AAc?$AAe@ 004c8e68     libucrtd:output.obj
 0002:0000e088       ??_C@_1BNC@BAMNIOCM@?$AA_?$AA_?$AAc?$AAr?$AAt?$AA_?$AAs?$AAt?$AAd?$AAi?$AAo?$AA_?$AAo?$AAu?$AAt?$AAp?$AAu?$AAt?$AA?3?$AA?3?$AAo?$AAu?$AAt?$AAp?$AAu?$AAt?$AA_?$AAp?$AAr?$AAo?$AAc?$AAe@ 004c9088     libucrtd:output.obj
 0002:0000e2b8       ??_C@_1BMM@KANDEEGK@?$AA_?$AA_?$AAc?$AAr?$AAt?$AA_?$AAs?$AAt?$AAd?$AAi?$AAo?$AA_?$AAo?$AAu?$AAt?$AAp?$AAu?$AAt?$AA?3?$AA?3?$AAo?$AAu?$AAt?$AAp?$AAu?$AAt?$AA_?$AAp?$AAr?$AAo?$AAc?$AAe@ 004c92b8     libucrtd:output.obj
 0002:0000e4e0       ??_C@_1BLE@MHLEAOID@?$AA_?$AA_?$AAc?$AAr?$AAt?$AA_?$AAs?$AAt?$AAd?$AAi?$AAo?$AA_?$AAo?$AAu?$AAt?$AAp?$AAu?$AAt?$AA?3?$AA?3?$AAo?$AAu?$AAt?$AAp?$AAu?$AAt?$AA_?$AAp?$AAr?$AAo?$AAc?$AAe@ 004c94e0     libucrtd:output.obj
 0002:0000e6f0       ??_C@_1BMA@MEBEEDJE@?$AA_?$AA_?$AAc?$AAr?$AAt?$AA_?$AAs?$AAt?$AAd?$AAi?$AAo?$AA_?$AAo?$AAu?$AAt?$AAp?$AAu?$AAt?$AA?3?$AA?3?$AAo?$AAu?$AAt?$AAp?$AAu?$AAt?$AA_?$AAp?$AAr?$AAo?$AAc?$AAe@ 004c96f0     libucrtd:output.obj
 0002:0000e910       ??_C@_1BCA@HCPCJFGA@?$AA_?$AA_?$AAc?$AAr?$AAt?$AA_?$AAs?$AAt?$AAd?$AAi?$AAo?$AA_?$AAo?$AAu?$AAt?$AAp?$AAu?$AAt?$AA?3?$AA?3?$AAp?$AAo?$AAs?$AAi?$AAt?$AAi?$AAo?$AAn?$AAa?$AAl?$AA_?$AAp@ 004c9910     libucrtd:output.obj
 0002:0000ea6c       ??_C@_0DI@KIFBHMNO@minkernel?2crts?2ucrt?2inc?2corecrt_@ 004c9a6c     libucrtd:output.obj
 0002:0000eab0       ??_C@_1BBE@IBPNPIIM@?$AA_?$AA_?$AAc?$AAr?$AAt?$AA_?$AAs?$AAt?$AAd?$AAi?$AAo?$AA_?$AAo?$AAu?$AAt?$AAp?$AAu?$AAt?$AA?3?$AA?3?$AAp?$AAo?$AAs?$AAi?$AAt?$AAi?$AAo?$AAn?$AAa?$AAl?$AA_?$AAp@ 004c9ab0     libucrtd:output.obj
 0002:0000ec00       ??_C@_1BCA@FCGNBIN@?$AA_?$AA_?$AAc?$AAr?$AAt?$AA_?$AAs?$AAt?$AAd?$AAi?$AAo?$AA_?$AAo?$AAu?$AAt?$AAp?$AAu?$AAt?$AA?3?$AA?3?$AAp?$AAo?$AAs?$AAi?$AAt?$AAi?$AAo?$AAn?$AAa?$AAl?$AA_?$AAp@ 004c9c00     libucrtd:output.obj
 0002:0000ed60       ??_C@_1BBE@FLKADCDA@?$AA_?$AA_?$AAc?$AAr?$AAt?$AA_?$AAs?$AAt?$AAd?$AAi?$AAo?$AA_?$AAo?$AAu?$AAt?$AAp?$AAu?$AAt?$AA?3?$AA?3?$AAp?$AAo?$AAs?$AAi?$AAt?$AAi?$AAo?$AAn?$AAa?$AAl?$AA_?$AAp@ 004c9d60     libucrtd:output.obj
 0002:0000eeb0       ??_C@_1BMK@JGIBNIA@?$AA_?$AA_?$AAc?$AAr?$AAt?$AA_?$AAs?$AAt?$AAd?$AAi?$AAo?$AA_?$AAo?$AAu?$AAt?$AAp?$AAu?$AAt?$AA?3?$AA?3?$AAo?$AAu?$AAt?$AAp?$AAu?$AAt?$AA_?$AAp?$AAr?$AAo?$AAc?$AAe@ 004c9eb0     libucrtd:output.obj
 0002:0000f0d8       ??_C@_1BLC@INKIGOCN@?$AA_?$AA_?$AAc?$AAr?$AAt?$AA_?$AAs?$AAt?$AAd?$AAi?$AAo?$AA_?$AAo?$AAu?$AAt?$AAp?$AAu?$AAt?$AA?3?$AA?3?$AAo?$AAu?$AAt?$AAp?$AAu?$AAt?$AA_?$AAp?$AAr?$AAo?$AAc?$AAe@ 004ca0d8     libucrtd:output.obj
 0002:0000f2e0       ??_C@_1BNK@KHNJGCCP@?$AA_?$AA_?$AAc?$AAr?$AAt?$AA_?$AAs?$AAt?$AAd?$AAi?$AAo?$AA_?$AAo?$AAu?$AAt?$AAp?$AAu?$AAt?$AA?3?$AA?3?$AAo?$AAu?$AAt?$AAp?$AAu?$AAt?$AA_?$AAp?$AAr?$AAo?$AAc?$AAe@ 004ca2e0     libucrtd:output.obj
 0002:0000f518       ??_C@_1BNO@OHFFMOOJ@?$AA_?$AA_?$AAc?$AAr?$AAt?$AA_?$AAs?$AAt?$AAd?$AAi?$AAo?$AA_?$AAo?$AAu?$AAt?$AAp?$AAu?$AAt?$AA?3?$AA?3?$AAo?$AAu?$AAt?$AAp?$AAu?$AAt?$AA_?$AAp?$AAr?$AAo?$AAc?$AAe@ 004ca518     libucrtd:output.obj
 0002:0000f758       ??_C@_1BMC@FAGJFBLI@?$AA_?$AA_?$AAc?$AAr?$AAt?$AA_?$AAs?$AAt?$AAd?$AAi?$AAo?$AA_?$AAo?$AAu?$AAt?$AAp?$AAu?$AAt?$AA?3?$AA?3?$AAo?$AAu?$AAt?$AAp?$AAu?$AAt?$AA_?$AAp?$AAr?$AAo?$AAc?$AAe@ 004ca758     libucrtd:output.obj
 0002:0000f978       ??_C@_1BMG@CGPDIFDK@?$AA_?$AA_?$AAc?$AAr?$AAt?$AA_?$AAs?$AAt?$AAd?$AAi?$AAo?$AA_?$AAo?$AAu?$AAt?$AAp?$AAu?$AAt?$AA?3?$AA?3?$AAo?$AAu?$AAt?$AAp?$AAu?$AAt?$AA_?$AAp?$AAr?$AAo?$AAc?$AAe@ 004ca978     libucrtd:output.obj
 0002:0000fb98       ??_C@_1BNC@OHPDPPJK@?$AA_?$AA_?$AAc?$AAr?$AAt?$AA_?$AAs?$AAt?$AAd?$AAi?$AAo?$AA_?$AAo?$AAu?$AAt?$AAp?$AAu?$AAt?$AA?3?$AA?3?$AAo?$AAu?$AAt?$AAp?$AAu?$AAt?$AA_?$AAp?$AAr?$AAo?$AAc?$AAe@ 004cab98     libucrtd:output.obj
 0002:0000fdc8       ??_C@_1BLK@FOLFMPJH@?$AA_?$AA_?$AAc?$AAr?$AAt?$AA_?$AAs?$AAt?$AAd?$AAi?$AAo?$AA_?$AAo?$AAu?$AAt?$AAp?$AAu?$AAt?$AA?3?$AA?3?$AAo?$AAu?$AAt?$AAp?$AAu?$AAt?$AA_?$AAp?$AAr?$AAo?$AAc?$AAe@ 004cadc8     libucrtd:output.obj
 0002:0000ffe0       ??_C@_1BNO@NAODCKFA@?$AA_?$AA_?$AAc?$AAr?$AAt?$AA_?$AAs?$AAt?$AAd?$AAi?$AAo?$AA_?$AAo?$AAu?$AAt?$AAp?$AAu?$AAt?$AA?3?$AA?3?$AAo?$AAu?$AAt?$AAp?$AAu?$AAt?$AA_?$AAp?$AAr?$AAo?$AAc?$AAe@ 004cafe0     libucrtd:output.obj
 0002:00010220       ??_C@_1BMG@BBEFGBID@?$AA_?$AA_?$AAc?$AAr?$AAt?$AA_?$AAs?$AAt?$AAd?$AAi?$AAo?$AA_?$AAo?$AAu?$AAt?$AAp?$AAu?$AAt?$AA?3?$AA?3?$AAo?$AAu?$AAt?$AAp?$AAu?$AAt?$AA_?$AAp?$AAr?$AAo?$AAc?$AAe@ 004cb220     libucrtd:output.obj
 0002:00010440       ??_C@_1BNC@JPKLPOHO@?$AA_?$AA_?$AAc?$AAr?$AAt?$AA_?$AAs?$AAt?$AAd?$AAi?$AAo?$AA_?$AAo?$AAu?$AAt?$AAp?$AAu?$AAt?$AA?3?$AA?3?$AAo?$AAu?$AAt?$AAp?$AAu?$AAt?$AA_?$AAp?$AAr?$AAo?$AAc?$AAe@ 004cb440     libucrtd:output.obj
 0002:00010670       _RtlNtPathSeperatorString  004cb670     libucrtd:exit.obj
 0002:0001067c       ??_C@_13FPGAJAPJ@?$AA?2?$AA?$AA@ 004cb67c     libucrtd:exit.obj
 0002:00010680       _RtlDosPathSeperatorsString 004cb680     libucrtd:exit.obj
 0002:0001068c       ??_C@_15MNCACJLI@?$AA?2?$AA?1?$AA?$AA@ 004cb68c     libucrtd:exit.obj
 0002:00010694       _RtlAlternateDosPathSeperatorString 004cb694     libucrtd:exit.obj
 0002:000106a0       ??_C@_13CGOKJPIL@?$AA?1?$AA?$AA@ 004cb6a0     libucrtd:exit.obj
 0002:000106a4       ??_C@_1BI@BGOHAHKC@?$AAm?$AAs?$AAc?$AAo?$AAr?$AAe?$AAe?$AA?4?$AAd?$AAl?$AAl?$AA?$AA@ 004cb6a4     libucrtd:exit.obj
 0002:000106c0       ??_C@_0P@MIGLKIOC@CorExitProcess?$AA@ 004cb6c0     libucrtd:exit.obj
 0002:000106d8       ??_C@_1EO@MBPFOEIP@?$AAb?$AAu?$AAf?$AAf?$AAe?$AAr?$AA?5?$AA?$CB?$AA?$DN?$AA?5?$AAn?$AAu?$AAl?$AAl?$AAp?$AAt?$AAr?$AA?5?$AA?$CG?$AA?$CG?$AA?5?$AAs?$AAi?$AAz?$AAe?$AA_?$AAi?$AAn?$AA_?$AAc?$AAh?$AAa@ 004cb6d8     libucrtd:ctime.obj
 0002:00010738       ??_C@_1FM@GNABIEEL@?$AAm?$AAi?$AAn?$AAk?$AAe?$AAr?$AAn?$AAe?$AAl?$AA?2?$AAc?$AAr?$AAt?$AAs?$AA?2?$AAu?$AAc?$AAr?$AAt?$AA?2?$AAs?$AAr?$AAc?$AA?2?$AAa?$AAp?$AAp?$AAc?$AAr?$AAt?$AA?2?$AAt@ 004cb738     libucrtd:ctime.obj
 0002:000107a8       ??_C@_1BO@IFLJMBPJ@?$AAc?$AAo?$AAm?$AAm?$AAo?$AAn?$AA_?$AAc?$AAt?$AAi?$AAm?$AAe?$AA_?$AAs?$AA?$AA@ 004cb7a8     libucrtd:ctime.obj
 0002:000107cc       ??_C@_1CI@DCHHDOEB@?$AAs?$AAi?$AAz?$AAe?$AA_?$AAi?$AAn?$AA_?$AAc?$AAh?$AAa?$AAr?$AAs?$AA?5?$AA?$DO?$AA?$DN?$AA?5?$AA2?$AA6?$AA?$AA@ 004cb7cc     libucrtd:ctime.obj
 0002:000107fc       ??_C@_1DA@FIGBFGOM@?$AAt?$AAi?$AAm?$AAe?$AA_?$AAt?$AA_?$AAv?$AAa?$AAl?$AAu?$AAe?$AA?5?$AA?$CB?$AA?$DN?$AA?5?$AAn?$AAu?$AAl?$AAl?$AAp?$AAt?$AAr?$AA?$AA@ 004cb7fc     libucrtd:ctime.obj
 0002:00010838       ??_C@_1BK@FFKKLBJF@?$AAc?$AAo?$AAm?$AAm?$AAo?$AAn?$AA_?$AAc?$AAt?$AAi?$AAm?$AAe?$AA?$AA@ 004cb838     libucrtd:ctime.obj
 0002:00010858       ??_C@_1BM@DGNILAKJ@?$AAt?$AAs?$AA?5?$AA?$CB?$AA?$DN?$AA?5?$AAn?$AAu?$AAl?$AAl?$AAp?$AAt?$AAr?$AA?$AA@ 004cb858     libucrtd:time.obj
 0002:00010880       ??_C@_1FK@PHFCCLNI@?$AAm?$AAi?$AAn?$AAk?$AAe?$AAr?$AAn?$AAe?$AAl?$AA?2?$AAc?$AAr?$AAt?$AAs?$AA?2?$AAu?$AAc?$AAr?$AAt?$AA?2?$AAs?$AAr?$AAc?$AA?2?$AAa?$AAp?$AAp?$AAc?$AAr?$AAt?$AA?2?$AAt@ 004cb880     libucrtd:time.obj
 0002:000108ec       ??_C@_1CI@PADPINCL@?$AAc?$AAo?$AAm?$AAm?$AAo?$AAn?$AA_?$AAt?$AAi?$AAm?$AAe?$AAs?$AAp?$AAe?$AAc?$AA_?$AAg?$AAe?$AAt?$AA?$AA@ 004cb8ec     libucrtd:time.obj
 0002:00010a38       ??_C@_03KHJOGHMM@exp?$AA@  004cba38     libucrtd:fpexcept.obj
 0002:00010a3c       ??_C@_03JGHBODFD@pow?$AA@  004cba3c     libucrtd:fpexcept.obj
 0002:00010a40       ??_C@_03MGHMBJCF@log?$AA@  004cba40     libucrtd:fpexcept.obj
 0002:00010a44       ??_C@_05HGHHAHAP@log10?$AA@ 004cba44     libucrtd:fpexcept.obj
 0002:00010a4c       ??_C@_04COOMCNPB@sinh?$AA@ 004cba4c     libucrtd:fpexcept.obj
 0002:00010a54       ??_C@_04HPJJNFIM@cosh?$AA@ 004cba54     libucrtd:fpexcept.obj
 0002:00010a5c       ??_C@_04FJHINJAO@tanh?$AA@ 004cba5c     libucrtd:fpexcept.obj
 0002:00010a64       ??_C@_04FIHNOPOL@asin?$AA@ 004cba64     libucrtd:fpexcept.obj
 0002:00010a6c       ??_C@_04PDIFKINK@acos?$AA@ 004cba6c     libucrtd:fpexcept.obj
 0002:00010a74       ??_C@_04MLLJIGOK@atan?$AA@ 004cba74     libucrtd:fpexcept.obj
 0002:00010a7c       ??_C@_05KNGEOGJB@atan2?$AA@ 004cba7c     libucrtd:fpexcept.obj
 0002:00010a84       ??_C@_04EIAKFFMI@sqrt?$AA@ 004cba84     libucrtd:fpexcept.obj
 0002:00010a8c       ??_C@_03BLEJJJBH@sin?$AA@  004cba8c     libucrtd:fpexcept.obj
 0002:00010a90       ??_C@_03LALBNOCG@cos?$AA@  004cba90     libucrtd:fpexcept.obj
 0002:00010a94       ??_C@_03IIINPABG@tan?$AA@  004cba94     libucrtd:fpexcept.obj
 0002:00010a98       ??_C@_04GFPJNGEK@ceil?$AA@ 004cba98     libucrtd:fpexcept.obj
 0002:00010aa0       ??_C@_05PBJFFIGL@floor?$AA@ 004cbaa0     libucrtd:fpexcept.obj
 0002:00010aa8       ??_C@_04ODHECPBC@fabs?$AA@ 004cbaa8     libucrtd:fpexcept.obj
 0002:00010ab0       ??_C@_04EHEDPDJG@modf?$AA@ 004cbab0     libucrtd:fpexcept.obj
 0002:00010ab8       ??_C@_05CEJMAHNP@ldexp?$AA@ 004cbab8     libucrtd:fpexcept.obj
 0002:00010ac0       ??_C@_05KBKMEMPO@_cabs?$AA@ 004cbac0     libucrtd:fpexcept.obj
 0002:00010ac8       ??_C@_06MEIMCGCF@_hypot?$AA@ 004cbac8     libucrtd:fpexcept.obj
 0002:00010ad0       ??_C@_04KEPJIHGP@fmod?$AA@ 004cbad0     libucrtd:fpexcept.obj
 0002:00010ad8       ??_C@_05GKKHEGJL@frexp?$AA@ 004cbad8     libucrtd:fpexcept.obj
 0002:00010ae0       ??_C@_03MJLDFKDL@_y0?$AA@  004cbae0     libucrtd:fpexcept.obj
 0002:00010ae4       ??_C@_03NAKIGLHK@_y1?$AA@  004cbae4     libucrtd:fpexcept.obj
 0002:00010ae8       ??_C@_03ONILCKOB@_yn?$AA@  004cbae8     libucrtd:fpexcept.obj
 0002:00010aec       ??_C@_05JGDBENOH@_logb?$AA@ 004cbaec     libucrtd:fpexcept.obj
 0002:00010af4       ??_C@_0L@KDOEJCKC@_nextafter?$AA@ 004cbaf4     libucrtd:fpexcept.obj
 0002:00010b08       ___acrt_exception_action_table 004cbb08     libucrtd:exception_filter.obj
 0002:00010bb4       ___acrt_signal_action_table_count 004cbbb4     libucrtd:exception_filter.obj
 0002:00010bb8       ___acrt_signal_action_table_size 004cbbb8     libucrtd:exception_filter.obj
 0002:00010bbc       ___acrt_signal_action_first_fpe_index 004cbbbc     libucrtd:exception_filter.obj
 0002:00010bc0       ___acrt_signal_action_fpe_count 004cbbc0     libucrtd:exception_filter.obj
 0002:00010bc8       ??_C@_1IC@DCNEKBE@?$AAm?$AAi?$AAn?$AAk?$AAe?$AAr?$AAn?$AAe?$AAl?$AA?2?$AAc?$AAr?$AAt?$AAs?$AA?2?$AAu?$AAc?$AAr?$AAt?$AA?2?$AAs?$AAr?$AAc?$AA?2?$AAa?$AAp?$AAp?$AAc?$AAr?$AAt?$AA?2?$AAi@ 004cbbc8     libucrtd:report_runtime_error.obj
 0002:00010c64       ??_C@_1DI@BLFJHKKP@?$AA_?$AA_?$AAa?$AAc?$AAr?$AAt?$AA_?$AAr?$AAe?$AAp?$AAo?$AAr?$AAt?$AA_?$AAr?$AAu?$AAn?$AAt?$AAi?$AAm?$AAe?$AA_?$AAe?$AAr?$AAr?$AAo?$AAr?$AA?$AA@ 004cbc64     libucrtd:report_runtime_error.obj
 0002:00010ca8       ??_C@_1LE@MHPGJGKE@?$AAw?$AAc?$AAs?$AAc?$AAp?$AAy?$AA_?$AAs?$AA?$CI?$AAo?$AAu?$AAt?$AAm?$AAs?$AAg?$AA?0?$AA?5?$AA?$CI?$AAs?$AAi?$AAz?$AAe?$AAo?$AAf?$AA?$CI?$AA?$CK?$AA_?$AA_?$AAc?$AAo?$AAu?$AAn@ 004cbca8     libucrtd:report_runtime_error.obj
 0002:00010d80       ??_C@_1DE@JNGNBFGO@?$AAR?$AAu?$AAn?$AAt?$AAi?$AAm?$AAe?$AA?5?$AAE?$AAr?$AAr?$AAo?$AAr?$AA?$CB?$AA?6?$AA?6?$AAP?$AAr?$AAo?$AAg?$AAr?$AAa?$AAm?$AA?3?$AA?5?$AA?$AA@ 004cbd80     libucrtd:report_runtime_error.obj
 0002:00010dc0       ??_C@_1HK@FJJNAABO@?$AAw?$AAc?$AAs?$AAc?$AAp?$AAy?$AA_?$AAs?$AA?$CI?$AAp?$AAr?$AAo?$AAg?$AAn?$AAa?$AAm?$AAe?$AA?0?$AA?5?$AAp?$AAr?$AAo?$AAg?$AAn?$AAa?$AAm?$AAe?$AA_?$AAs?$AAi?$AAz?$AAe@ 004cbdc0     libucrtd:report_runtime_error.obj
 0002:00010e54       ??_C@_1CO@EAEJAADC@?$AA?$DM?$AAp?$AAr?$AAo?$AAg?$AAr?$AAa?$AAm?$AA?5?$AAn?$AAa?$AAm?$AAe?$AA?5?$AAu?$AAn?$AAk?$AAn?$AAo?$AAw?$AAn?$AA?$DO?$AA?$AA@ 004cbe54     libucrtd:report_runtime_error.obj
 0002:00010e90       ??_C@_1HI@FLHKGEBE@?$AAw?$AAc?$AAs?$AAn?$AAc?$AAp?$AAy?$AA_?$AAs?$AA?$CI?$AAp?$AAc?$AAh?$AA?0?$AA?5?$AAp?$AAr?$AAo?$AAg?$AAn?$AAa?$AAm?$AAe?$AA_?$AAs?$AAi?$AAz?$AAe?$AA?5?$AA?9?$AA?5?$AA?$CI@ 004cbe90     libucrtd:report_runtime_error.obj
 0002:00010f20       ??_C@_17LGKOMLJ@?$AA?4?$AA?4?$AA?4?$AA?$AA@ 004cbf20     libucrtd:report_runtime_error.obj
 0002:00010f30       ??_C@_1IG@MNNKBLBI@?$AAw?$AAc?$AAs?$AAc?$AAa?$AAt?$AA_?$AAs?$AA?$CI?$AAo?$AAu?$AAt?$AAm?$AAs?$AAg?$AA?0?$AA?5?$AA?$CI?$AAs?$AAi?$AAz?$AAe?$AAo?$AAf?$AA?$CI?$AA?$CK?$AA_?$AA_?$AAc?$AAo?$AAu?$AAn@ 004cbf30     libucrtd:report_runtime_error.obj
 0002:00010fd0       ??_C@_15IABLJNFO@?$AA?6?$AA?6?$AA?$AA@ 004cbfd0     libucrtd:report_runtime_error.obj
 0002:00010fd8       ??_C@_1IG@DFBBBDAN@?$AAw?$AAc?$AAs?$AAc?$AAa?$AAt?$AA_?$AAs?$AA?$CI?$AAo?$AAu?$AAt?$AAm?$AAs?$AAg?$AA?0?$AA?5?$AA?$CI?$AAs?$AAi?$AAz?$AAe?$AAo?$AAf?$AA?$CI?$AA?$CK?$AA_?$AA_?$AAc?$AAo?$AAu?$AAn@ 004cbfd8     libucrtd:report_runtime_error.obj
 0002:00011078       ??_C@_1EK@MBDPDCGA@?$AAM?$AAi?$AAc?$AAr?$AAo?$AAs?$AAo?$AAf?$AAt?$AA?5?$AAV?$AAi?$AAs?$AAu?$AAa?$AAl?$AA?5?$AAC?$AA?$CL?$AA?$CL?$AA?5?$AAR?$AAu?$AAn?$AAt?$AAi?$AAm?$AAe?$AA?5?$AAL?$AAi?$AAb@ 004cc078     libucrtd:report_runtime_error.obj
 0002:000110d0       ??_C@_0DI@KNDIGDEP@minkernel?2crts?2ucrt?2src?2appcrt?2s@ 004cc0d0     libucrtd:argv_parsing.obj
 0002:00011118       ??_C@_1JO@PGBIJBAM@?$AAm?$AAo?$AAd?$AAe?$AA?5?$AA?$DN?$AA?$DN?$AA?5?$AA_?$AAc?$AAr?$AAt?$AA_?$AAa?$AAr?$AAg?$AAv?$AA_?$AAe?$AAx?$AAp?$AAa?$AAn?$AAd?$AAe?$AAd?$AA_?$AAa?$AAr?$AAg?$AAu?$AAm@ 004cc118     libucrtd:argv_parsing.obj
 0002:000111d8       ??_C@_1HA@JMLCANEE@?$AAm?$AAi?$AAn?$AAk?$AAe?$AAr?$AAn?$AAe?$AAl?$AA?2?$AAc?$AAr?$AAt?$AAs?$AA?2?$AAu?$AAc?$AAr?$AAt?$AA?2?$AAs?$AAr?$AAc?$AA?2?$AAa?$AAp?$AAp?$AAc?$AAr?$AAt?$AA?2?$AAs@ 004cc1d8     libucrtd:argv_parsing.obj
 0002:00011260       ??_C@_1CM@LHOJELIC@?$AAc?$AAo?$AAm?$AAm?$AAo?$AAn?$AA_?$AAc?$AAo?$AAn?$AAf?$AAi?$AAg?$AAu?$AAr?$AAe?$AA_?$AAa?$AAr?$AAg?$AAv?$AA?$AA@ 004cc260     libucrtd:argv_parsing.obj
 0002:00011298       ??_C@_0EG@LEHKHOEH@minkernel?2crts?2ucrt?2src?2desktopc@ 004cc298     libucrtd:environment_initialization.obj
 0002:000112f0       ??_C@_1IM@IMOFFPLG@?$AAm?$AAi?$AAn?$AAk?$AAe?$AAr?$AAn?$AAe?$AAl?$AA?2?$AAc?$AAr?$AAt?$AAs?$AA?2?$AAu?$AAc?$AAr?$AAt?$AA?2?$AAs?$AAr?$AAc?$AA?2?$AAd?$AAe?$AAs?$AAk?$AAt?$AAo?$AAp?$AAc@ 004cc2f0     libucrtd:environment_initialization.obj
 0002:00011398       ??_C@_1CG@MNNNBNAK@?$AAc?$AAr?$AAe?$AAa?$AAt?$AAe?$AA_?$AAe?$AAn?$AAv?$AAi?$AAr?$AAo?$AAn?$AAm?$AAe?$AAn?$AAt?$AA?$AA@ 004cc398     libucrtd:environment_initialization.obj
 0002:000113c8       ??_C@_1HI@OOPIFFGA@?$AAt?$AAr?$AAa?$AAi?$AAt?$AAs?$AA?3?$AA?3?$AAt?$AAc?$AAs?$AAc?$AAp?$AAy?$AA_?$AAs?$AA?$CI?$AAv?$AAa?$AAr?$AAi?$AAa?$AAb?$AAl?$AAe?$AA?4?$AAg?$AAe?$AAt?$AA?$CI?$AA?$CJ?$AA?0@ 004cc3c8     libucrtd:environment_initialization.obj
 0002:00011458       ??_C@_1MI@PNMMBOIN@?$AAm?$AAo?$AAd?$AAe?$AA?5?$AA?$DN?$AA?$DN?$AA?5?$AA_?$AAO?$AA_?$AAT?$AAE?$AAX?$AAT?$AA?5?$AA?$HM?$AA?$HM?$AA?5?$AAm?$AAo?$AAd?$AAe?$AA?5?$AA?$DN?$AA?$DN?$AA?5?$AA_?$AAO?$AA_?$AAB?$AAI@ 004cc458     libucrtd:setmode.obj
 0002:00011548       ??_C@_1GC@CIJNGKLD@?$AAm?$AAi?$AAn?$AAk?$AAe?$AAr?$AAn?$AAe?$AAl?$AA?2?$AAc?$AAr?$AAt?$AAs?$AA?2?$AAu?$AAc?$AAr?$AAt?$AA?2?$AAs?$AAr?$AAc?$AA?2?$AAa?$AAp?$AAp?$AAc?$AAr?$AAt?$AA?2?$AAl@ 004cc548     libucrtd:setmode.obj
 0002:000115c0       ??_C@_1BC@JBGGJDCM@?$AA_?$AAs?$AAe?$AAt?$AAm?$AAo?$AAd?$AAe?$AA?$AA@ 004cc5c0     libucrtd:setmode.obj
 0002:000115d8       ??_C@_1FO@LPCLHKGE@?$AA?$CI?$AAf?$AAh?$AA?5?$AA?$DO?$AA?$DN?$AA?5?$AA0?$AA?5?$AA?$CG?$AA?$CG?$AA?5?$AA?$CI?$AAu?$AAn?$AAs?$AAi?$AAg?$AAn?$AAe?$AAd?$AA?$CJ?$AAf?$AAh?$AA?5?$AA?$DM?$AA?5?$AA?$CI?$AAu?$AAn?$AAs?$AAi@ 004cc5d8     libucrtd:setmode.obj
 0002:00011648       ??_C@_1CM@OKGMMMDH@?$AA?$CI?$AA_?$AAo?$AAs?$AAf?$AAi?$AAl?$AAe?$AA?$CI?$AAf?$AAh?$AA?$CJ?$AA?5?$AA?$CG?$AA?5?$AAF?$AAO?$AAP?$AAE?$AAN?$AA?$CJ?$AA?$AA@ 004cc648     libucrtd:setmode.obj
 0002:00011680       ??_C@_1JE@ECKHFIFP@?$AA?$CI?$AA?$CC?$AAI?$AAn?$AAv?$AAa?$AAl?$AAi?$AAd?$AA?5?$AAf?$AAi?$AAl?$AAe?$AA?5?$AAd?$AAe?$AAs?$AAc?$AAr?$AAi?$AAp?$AAt?$AAo?$AAr?$AA?4?$AA?5?$AAF?$AAi?$AAl?$AAe?$AA?5@ 004cc680     libucrtd:setmode.obj
 0002:00011738       ??_C@_1HC@GNDCDMJL@?$AAm?$AAo?$AAd?$AAe?$AA?5?$AA?$DN?$AA?$DN?$AA?5?$AA_?$AAO?$AA_?$AAT?$AAE?$AAX?$AAT?$AA?5?$AA?$HM?$AA?$HM?$AA?5?$AAm?$AAo?$AAd?$AAe?$AA?5?$AA?$DN?$AA?$DN?$AA?5?$AA_?$AAO?$AA_?$AAB?$AAI@ 004cc738     libucrtd:setmode.obj
 0002:000117c0       ??_C@_1BG@IEEHLOCL@?$AA_?$AAs?$AAe?$AAt?$AA_?$AAf?$AAm?$AAo?$AAd?$AAe?$AA?$AA@ 004cc7c0     libucrtd:setmode.obj
 0002:000117dc       ??_C@_1CC@ODGEBJBO@?$AAp?$AAM?$AAo?$AAd?$AAe?$AA?5?$AA?$CB?$AA?$DN?$AA?5?$AAn?$AAu?$AAl?$AAl?$AAp?$AAt?$AAr?$AA?$AA@ 004cc7dc     libucrtd:setmode.obj
 0002:00011804       ??_C@_1BG@CKGMPOFH@?$AA_?$AAg?$AAe?$AAt?$AA_?$AAf?$AAm?$AAo?$AAd?$AAe?$AA?$AA@ 004cc804     libucrtd:setmode.obj
 0002:00011820       ??_C@_1GK@EMNILMBI@?$AAm?$AAi?$AAn?$AAk?$AAe?$AAr?$AAn?$AAe?$AAl?$AA?2?$AAc?$AAr?$AAt?$AAs?$AA?2?$AAu?$AAc?$AAr?$AAt?$AA?2?$AAs?$AAr?$AAc?$AA?2?$AAa?$AAp?$AAp?$AAc?$AAr?$AAt?$AA?2?$AAs@ 004cc820     libucrtd:argv_data.obj
 0002:000118a0       ??_C@_1BK@PNLDCCDP@?$AA_?$AAg?$AAe?$AAt?$AA_?$AAw?$AAp?$AAg?$AAm?$AAp?$AAt?$AAr?$AA?$AA@ 004cc8a0     libucrtd:argv_data.obj
 0002:000118c0       ??_C@_1CI@ENCADPBF@?$AA_?$AAw?$AAp?$AAg?$AAm?$AAp?$AAt?$AAr?$AA?5?$AA?$CB?$AA?$DN?$AA?5?$AAn?$AAu?$AAl?$AAl?$AAp?$AAt?$AAr?$AA?$AA@ 004cc8c0     libucrtd:argv_data.obj
 0002:000118f0       ??_C@_1BI@COAAPHJK@?$AA_?$AAg?$AAe?$AAt?$AA_?$AAp?$AAg?$AAm?$AAp?$AAt?$AAr?$AA?$AA@ 004cc8f0     libucrtd:argv_data.obj
 0002:0001190c       ??_C@_1CG@CKJHPBDG@?$AA_?$AAp?$AAg?$AAm?$AAp?$AAt?$AAr?$AA?5?$AA?$CB?$AA?$DN?$AA?5?$AAn?$AAu?$AAl?$AAl?$AAp?$AAt?$AAr?$AA?$AA@ 004cc90c     libucrtd:argv_data.obj
 0002:000119d8       ___lc_category             004cc9d8     libucrtd:wsetlocale.obj
 0002:00011a30       ??_C@_1O@GIFLHMA@?$AAL?$AAC?$AA_?$AAA?$AAL?$AAL?$AA?$AA@ 004cca30     libucrtd:wsetlocale.obj
 0002:00011a40       ??_C@_1BG@PPOMIBNJ@?$AAL?$AAC?$AA_?$AAC?$AAO?$AAL?$AAL?$AAA?$AAT?$AAE?$AA?$AA@ 004cca40     libucrtd:wsetlocale.obj
 0002:00011a5c       ??_C@_1BC@FFJGAPJM@?$AAL?$AAC?$AA_?$AAC?$AAT?$AAY?$AAP?$AAE?$AA?$AA@ 004cca5c     libucrtd:wsetlocale.obj
 0002:00011a74       ??_C@_1BI@PCKFNJFB@?$AAL?$AAC?$AA_?$AAM?$AAO?$AAN?$AAE?$AAT?$AAA?$AAR?$AAY?$AA?$AA@ 004cca74     libucrtd:wsetlocale.obj
 0002:00011a90       ??_C@_1BG@ENIEDKID@?$AAL?$AAC?$AA_?$AAN?$AAU?$AAM?$AAE?$AAR?$AAI?$AAC?$AA?$AA@ 004cca90     libucrtd:wsetlocale.obj
 0002:00011aac       ??_C@_1BA@HAAOMIIG@?$AAL?$AAC?$AA_?$AAT?$AAI?$AAM?$AAE?$AA?$AA@ 004ccaac     libucrtd:wsetlocale.obj
 0002:00011ac0       ??_C@_1GA@LDEGDKD@?$AA?$CI?$AA?$CC?$AAI?$AAn?$AAv?$AAa?$AAl?$AAi?$AAd?$AA?5?$AAp?$AAa?$AAr?$AAa?$AAm?$AAe?$AAt?$AAe?$AAr?$AA?5?$AAf?$AAo?$AAr?$AA?5?$AA_?$AAc?$AAo?$AAn?$AAf?$AAi?$AAg?$AAt@ 004ccac0     libucrtd:wsetlocale.obj
 0002:00011b38       ??_C@_1GK@DPKNLBIE@?$AAm?$AAi?$AAn?$AAk?$AAe?$AAr?$AAn?$AAe?$AAl?$AA?2?$AAc?$AAr?$AAt?$AAs?$AA?2?$AAu?$AAc?$AAr?$AAt?$AA?2?$AAs?$AAr?$AAc?$AA?2?$AAa?$AAp?$AAp?$AAc?$AAr?$AAt?$AA?2?$AAl@ 004ccb38     libucrtd:wsetlocale.obj
 0002:00011bb8       ??_C@_1CI@FGIONOJM@?$AA_?$AAc?$AAo?$AAn?$AAf?$AAi?$AAg?$AAt?$AAh?$AAr?$AAe?$AAa?$AAd?$AAl?$AAo?$AAc?$AAa?$AAl?$AAe?$AA?$AA@ 004ccbb8     libucrtd:wsetlocale.obj
 0002:00011be8       ??_C@_0DF@MKMHJGEJ@minkernel?2crts?2ucrt?2src?2appcrt?2l@ 004ccbe8     libucrtd:wsetlocale.obj
 0002:00011c28       ??_C@_1FG@OHLFEKMC@?$AAL?$AAC?$AA_?$AAM?$AAI?$AAN?$AA?5?$AA?$DM?$AA?$DN?$AA?5?$AA_?$AAc?$AAa?$AAt?$AAe?$AAg?$AAo?$AAr?$AAy?$AA?5?$AA?$CG?$AA?$CG?$AA?5?$AA_?$AAc?$AAa?$AAt?$AAe?$AAg?$AAo?$AAr?$AAy@ 004ccc28     libucrtd:wsetlocale.obj
 0002:00011c90       ??_C@_1BI@KJNPAEHL@?$AA_?$AAw?$AAs?$AAe?$AAt?$AAl?$AAo?$AAc?$AAa?$AAl?$AAe?$AA?$AA@ 004ccc90     libucrtd:wsetlocale.obj
 0002:00011cac       ??_C@_15NBPDDFIP@?$AA?$DN?$AA?$DL?$AA?$AA@ 004cccac     libucrtd:wsetlocale.obj
 0002:00011cb4       ??_C@_13PJJBFPED@?$AA?$DL?$AA?$AA@ 004cccb4     libucrtd:wsetlocale.obj
 0002:00011cb8       ??_C@_1CG@DKJCBBPP@?$AA_?$AAw?$AAs?$AAe?$AAt?$AAl?$AAo?$AAc?$AAa?$AAl?$AAe?$AA_?$AAn?$AAo?$AAl?$AAo?$AAc?$AAk?$AA?$AA@ 004cccb8     libucrtd:wsetlocale.obj
 0002:00011ce8       ??_C@_1IG@NGDCPCDE@?$AAw?$AAc?$AAs?$AAn?$AAc?$AAp?$AAy?$AA_?$AAs?$AA?$CI?$AAl?$AAc?$AAt?$AAe?$AAm?$AAp?$AA?0?$AA?5?$AA?$CI?$AAs?$AAi?$AAz?$AAe?$AAo?$AAf?$AA?$CI?$AA?$CK?$AA_?$AA_?$AAc?$AAo?$AAu@ 004ccce8     libucrtd:wsetlocale.obj
 0002:00011d88       ??_C@_1CI@ODOPEMNJ@?$AA_?$AAw?$AAs?$AAe?$AAt?$AAl?$AAo?$AAc?$AAa?$AAl?$AAe?$AA_?$AAs?$AAe?$AAt?$AA_?$AAc?$AAa?$AAt?$AA?$AA@ 004ccd88     libucrtd:wsetlocale.obj
 0002:00011db8       ??_C@_1EM@MHOCNIAA@?$AAw?$AAc?$AAs?$AAc?$AAp?$AAy?$AA_?$AAs?$AA?$CI?$AAp?$AAc?$AAh?$AA_?$AAc?$AAa?$AAt?$AA_?$AAl?$AAo?$AAc?$AAa?$AAl?$AAe?$AA?0?$AA?5?$AAc?$AAc?$AAh?$AA?0?$AA?5?$AAl?$AAc@ 004ccdb8     libucrtd:wsetlocale.obj
 0002:00011e14       ??_C@_13NMPKAAJP@?$AA?$DN?$AA?$AA@ 004cce14     libucrtd:wsetlocale.obj
 0002:00011e18       ??_C@_1CI@LKOPFFBD@?$AA_?$AAw?$AAs?$AAe?$AAt?$AAl?$AAo?$AAc?$AAa?$AAl?$AAe?$AA_?$AAg?$AAe?$AAt?$AA_?$AAa?$AAl?$AAl?$AA?$AA@ 004cce18     libucrtd:wsetlocale.obj
 0002:00011e48       ??_C@_1DC@HMLJMODP@?$AAw?$AAc?$AAs?$AAc?$AAa?$AAt?$AA_?$AAs?$AA?$CI?$AAp?$AAc?$AAh?$AA?0?$AA?5?$AAc?$AAc?$AAh?$AA?0?$AA?5?$AAL?$AA?$CC?$AA?$DL?$AA?$CC?$AA?$CJ?$AA?$AA@ 004cce48     libucrtd:wsetlocale.obj
 0002:00011e84       ??_C@_1BM@OIIBLEFG@?$AA_?$AAe?$AAx?$AAp?$AAa?$AAn?$AAd?$AAl?$AAo?$AAc?$AAa?$AAl?$AAe?$AA?$AA@ 004cce84     libucrtd:wsetlocale.obj
 0002:00011ea8       ??_C@_1BCM@BOFLACKH@?$AAw?$AAc?$AAs?$AAn?$AAc?$AAp?$AAy?$AA_?$AAs?$AA?$CI?$AAl?$AAo?$AAc?$AAa?$AAl?$AAe?$AAN?$AAa?$AAm?$AAe?$AAO?$AAu?$AAt?$AAp?$AAu?$AAt?$AA?0?$AA?5?$AAl?$AAo?$AAc?$AAa@ 004ccea8     libucrtd:wsetlocale.obj
 0002:00012010       ??_C@_1EI@OCINLCHN@?$AAw?$AAc?$AAs?$AAc?$AAp?$AAy?$AA_?$AAs?$AA?$CI?$AAo?$AAu?$AAt?$AAp?$AAu?$AAt?$AA?0?$AA?5?$AAs?$AAi?$AAz?$AAe?$AAI?$AAn?$AAC?$AAh?$AAa?$AAr?$AAs?$AA?0?$AA?5?$AAL?$AA?$CC@ 004cd010     libucrtd:wsetlocale.obj
 0002:00012068       ??_C@_13FHBKNHDA@?$AAC?$AA?$AA@ 004cd068     libucrtd:wsetlocale.obj
 0002:00012070       ??_C@_1MO@NNCNEOAP@?$AAw?$AAc?$AAs?$AAn?$AAc?$AAp?$AAy?$AA_?$AAs?$AA?$CI?$AAl?$AAo?$AAc?$AAa?$AAl?$AAe?$AAN?$AAa?$AAm?$AAe?$AAO?$AAu?$AAt?$AAp?$AAu?$AAt?$AA?0?$AA?5?$AAl?$AAo?$AAc?$AAa@ 004cd070     libucrtd:wsetlocale.obj
 0002:00012168       ??_C@_19MPDNHKDG@?$AAu?$AAt?$AAf?$AA8?$AA?$AA@ 004cd168     libucrtd:wsetlocale.obj
 0002:00012174       ??_C@_1M@FPEIIFAM@?$AAu?$AAt?$AAf?$AA?9?$AA8?$AA?$AA@ 004cd174     libucrtd:wsetlocale.obj
 0002:00012188       ??_C@_1BDK@DHHMOMPJ@?$AAw?$AAc?$AAs?$AAn?$AAc?$AAp?$AAy?$AA_?$AAs?$AA?$CI?$AA_?$AAp?$AAs?$AAe?$AAt?$AAl?$AAo?$AAc?$AA_?$AAd?$AAa?$AAt?$AAa?$AA?9?$AA?$DO?$AA_?$AAc?$AAa?$AAc?$AAh?$AAe?$AAL@ 004cd188     libucrtd:wsetlocale.obj
 0002:00012300       ??_C@_1IG@MKDIEKFD@?$AAw?$AAc?$AAs?$AAn?$AAc?$AAp?$AAy?$AA_?$AAs?$AA?$CI?$AAc?$AAa?$AAc?$AAh?$AAe?$AAo?$AAu?$AAt?$AA?0?$AA?5?$AAc?$AAa?$AAc?$AAh?$AAe?$AAo?$AAu?$AAt?$AAL?$AAe?$AAn?$AA?0@ 004cd300     libucrtd:wsetlocale.obj
 0002:000123a0       ??_C@_1KK@KMIFPBBC@?$AAw?$AAc?$AAs?$AAn?$AAc?$AAp?$AAy?$AA_?$AAs?$AA?$CI?$AAl?$AAo?$AAc?$AAa?$AAl?$AAe?$AAN?$AAa?$AAm?$AAe?$AAO?$AAu?$AAt?$AAp?$AAu?$AAt?$AA?0?$AA?5?$AAl?$AAo?$AAc?$AAa@ 004cd3a0     libucrtd:wsetlocale.obj
 0002:00012470       ??_C@_1BDG@HFEFKOM@?$AAw?$AAc?$AAs?$AAn?$AAc?$AAp?$AAy?$AA_?$AAs?$AA?$CI?$AA_?$AAp?$AAs?$AAe?$AAt?$AAl?$AAo?$AAc?$AA_?$AAd?$AAa?$AAt?$AAa?$AA?9?$AA?$DO?$AA_?$AAc?$AAa?$AAc?$AAh?$AAe?$AAL@ 004cd470     libucrtd:wsetlocale.obj
 0002:000125e8       ??_C@_1IC@FCCDBGLL@?$AAw?$AAc?$AAs?$AAn?$AAc?$AAp?$AAy?$AA_?$AAs?$AA?$CI?$AAc?$AAa?$AAc?$AAh?$AAe?$AAi?$AAn?$AA?0?$AA?5?$AAc?$AAa?$AAc?$AAh?$AAe?$AAi?$AAn?$AAL?$AAe?$AAn?$AA?0?$AA?5?$AAe@ 004cd5e8     libucrtd:wsetlocale.obj
 0002:00012688       ??_C@_1FA@HOOAAHFF@?$AAw?$AAc?$AAs?$AAc?$AAp?$AAy?$AA_?$AAs?$AA?$CI?$AAo?$AAu?$AAt?$AAp?$AAu?$AAt?$AA?0?$AA?5?$AAs?$AAi?$AAz?$AAe?$AAI?$AAn?$AAC?$AAh?$AAa?$AAr?$AAs?$AA?0?$AA?5?$AAc?$AAa@ 004cd688     libucrtd:wsetlocale.obj
 0002:000126e8       ??_C@_1BC@LEOKFFML@?$AA_?$AAw?$AAc?$AAs?$AAc?$AAa?$AAt?$AAs?$AA?$AA@ 004cd6e8     libucrtd:wsetlocale.obj
 0002:00012700       ??_C@_1BHK@BGMBCJOP@?$AAw?$AAc?$AAs?$AAc?$AAa?$AAt?$AA_?$AAs?$AA?$CI?$AAo?$AAu?$AAt?$AAs?$AAt?$AAr?$AA?0?$AA?5?$AAn?$AAu?$AAm?$AAb?$AAe?$AAr?$AAO?$AAf?$AAE?$AAl?$AAe?$AAm?$AAe?$AAn?$AAt@ 004cd700     libucrtd:wsetlocale.obj
 0002:000128c8       ??_C@_1BK@GNCHCGCN@?$AA_?$AA_?$AAl?$AAc?$AA_?$AAw?$AAc?$AAs?$AAt?$AAo?$AAl?$AAc?$AA?$AA@ 004cd8c8     libucrtd:wsetlocale.obj
 0002:000128e8       ??_C@_1MI@MGHKCMFH@?$AAw?$AAc?$AAs?$AAn?$AAc?$AAp?$AAy?$AA_?$AAs?$AA?$CI?$AAn?$AAa?$AAm?$AAe?$AAs?$AA?9?$AA?$DO?$AAs?$AAz?$AAC?$AAo?$AAd?$AAe?$AAP?$AAa?$AAg?$AAe?$AA?0?$AA?5?$AA?$CI?$AAs?$AAi@ 004cd8e8     libucrtd:wsetlocale.obj
 0002:000129d8       ??_C@_17MBJJLFDM@?$AA_?$AA?4?$AA?0?$AA?$AA@ 004cd9d8     libucrtd:wsetlocale.obj
 0002:000129e8       ??_C@_1LO@GGCCDNLJ@?$AAw?$AAc?$AAs?$AAn?$AAc?$AAp?$AAy?$AA_?$AAs?$AA?$CI?$AAn?$AAa?$AAm?$AAe?$AAs?$AA?9?$AA?$DO?$AAs?$AAz?$AAL?$AAa?$AAn?$AAg?$AAu?$AAa?$AAg?$AAe?$AA?0?$AA?5?$AA?$CI?$AAs?$AAi@ 004cd9e8     libucrtd:wsetlocale.obj
 0002:00012ad0       ??_C@_1LK@JOIOCOID@?$AAw?$AAc?$AAs?$AAn?$AAc?$AAp?$AAy?$AA_?$AAs?$AA?$CI?$AAn?$AAa?$AAm?$AAe?$AAs?$AA?9?$AA?$DO?$AAs?$AAz?$AAC?$AAo?$AAu?$AAn?$AAt?$AAr?$AAy?$AA?0?$AA?5?$AA?$CI?$AAs?$AAi?$AAz@ 004cdad0     libucrtd:wsetlocale.obj
 0002:00012bb0       ??_C@_1LO@OJICFEP@?$AAw?$AAc?$AAs?$AAn?$AAc?$AAp?$AAy?$AA_?$AAs?$AA?$CI?$AAn?$AAa?$AAm?$AAe?$AAs?$AA?9?$AA?$DO?$AAs?$AAz?$AAC?$AAo?$AAd?$AAe?$AAP?$AAa?$AAg?$AAe?$AA?0?$AA?5?$AA?$CI?$AAs?$AAi@ 004cdbb0     libucrtd:wsetlocale.obj
 0002:00012c94       ??_C@_1BK@HEBMGPEK@?$AA_?$AA_?$AAl?$AAc?$AA_?$AAl?$AAc?$AAt?$AAo?$AAw?$AAc?$AAs?$AA?$AA@ 004cdc94     libucrtd:wsetlocale.obj
 0002:00012cb8       ??_C@_1GM@FOFMGOEK@?$AAw?$AAc?$AAs?$AAc?$AAp?$AAy?$AA_?$AAs?$AA?$CI?$AAl?$AAo?$AAc?$AAa?$AAl?$AAe?$AA?0?$AA?5?$AAn?$AAu?$AAm?$AAb?$AAe?$AAr?$AAO?$AAf?$AAE?$AAl?$AAe?$AAm?$AAe?$AAn?$AAt@ 004cdcb8     libucrtd:wsetlocale.obj
 0002:00012d3c       ??_C@_13ENNFDPBH@?$AA_?$AA?$AA@ 004cdd3c     libucrtd:wsetlocale.obj
 0002:00012d40       ??_C@_13JOFGPIOO@?$AA?4?$AA?$AA@ 004cdd40     libucrtd:wsetlocale.obj
 0002:00012d44       ??_C@_1DA@BBIOOKDN@?$AA_?$AA_?$AAa?$AAc?$AAr?$AAt?$AA_?$AAc?$AAo?$AAp?$AAy?$AA_?$AAl?$AAo?$AAc?$AAa?$AAl?$AAe?$AA_?$AAn?$AAa?$AAm?$AAe?$AA?$AA@ 004cdd44     libucrtd:wsetlocale.obj
 0002:00012d80       ??_C@_1GI@HBNMCKGD@?$AAw?$AAc?$AAs?$AAn?$AAc?$AAp?$AAy?$AA_?$AAs?$AA?$CI?$AAl?$AAo?$AAc?$AAa?$AAl?$AAe?$AAN?$AAa?$AAm?$AAe?$AAC?$AAo?$AAp?$AAy?$AA?0?$AA?5?$AAc?$AAc?$AAh?$AA?$CL?$AA1?$AA?0@ 004cdd80     libucrtd:wsetlocale.obj
 0002:00012dfc       ??_C@_1CO@JKFLNGDK@?$AAm?$AAo?$AAd?$AAe?$AA?5?$AA?$DN?$AA?$DN?$AA?5?$AA0?$AA?5?$AA?$HM?$AA?$HM?$AA?5?$AAm?$AAo?$AAd?$AAe?$AA?5?$AA?$DN?$AA?$DN?$AA?5?$AA1?$AA?$AA@ 004cddfc     libucrtd:new_mode.obj
 0002:00012e38       ??_C@_1GC@PJMKBHEK@?$AAm?$AAi?$AAn?$AAk?$AAe?$AAr?$AAn?$AAe?$AAl?$AA?2?$AAc?$AAr?$AAt?$AAs?$AA?2?$AAu?$AAc?$AAr?$AAt?$AA?2?$AAs?$AAr?$AAc?$AA?2?$AAa?$AAp?$AAp?$AAc?$AAr?$AAt?$AA?2?$AAh@ 004cde38     libucrtd:new_mode.obj
 0002:00012eb0       ??_C@_1BM@PDPAKJNF@?$AA_?$AAs?$AAe?$AAt?$AA_?$AAn?$AAe?$AAw?$AA_?$AAm?$AAo?$AAd?$AAe?$AA?$AA@ 004cdeb0     libucrtd:new_mode.obj
 0002:00012ed4       ??_C@_0DC@NBHMIIKL@minkernel?2crts?2ucrt?2src?2appcrt?2s@ 004cded4     libucrtd:onexit.obj
 0002:00012fac       ??_C@_1DG@JNDMIEJL@?$AA?$CI?$AA?$CC?$AAI?$AAn?$AAv?$AAa?$AAl?$AAi?$AAd?$AA?5?$AAi?$AAn?$AAp?$AAu?$AAt?$AA?5?$AAv?$AAa?$AAl?$AAu?$AAe?$AA?$CC?$AA?0?$AA?5?$AA0?$AA?$CJ?$AA?$AA@ 004cdfac     libucrtd:contrlfp.obj
 0002:00012ff0       ??_C@_1FO@HHLKCIKB@?$AAm?$AAi?$AAn?$AAk?$AAe?$AAr?$AAn?$AAe?$AAl?$AA?2?$AAc?$AAr?$AAt?$AAs?$AA?2?$AAu?$AAc?$AAr?$AAt?$AA?2?$AAs?$AAr?$AAc?$AA?2?$AAa?$AAp?$AAp?$AAc?$AAr?$AAt?$AA?2?$AAt@ 004cdff0     libucrtd:contrlfp.obj
 0002:00013060       ??_C@_1BK@CDOALEA@?$AA_?$AAc?$AAo?$AAn?$AAt?$AAr?$AAo?$AAl?$AAf?$AAp?$AA_?$AAs?$AA?$AA@ 004ce060     libucrtd:contrlfp.obj
 0002:00013098       ??_C@_04HJMOFLDF@Free?$AA@ 004ce098     libucrtd:debug_heap.obj
 0002:000130a0       ??_C@_06EFAGIKOH@Normal?$AA@ 004ce0a0     libucrtd:debug_heap.obj
 0002:000130a8       ??_C@_03OGPFLFLO@CRT?$AA@  004ce0a8     libucrtd:debug_heap.obj
 0002:000130ac       ??_C@_06KMEJCCGM@Ignore?$AA@ 004ce0ac     libucrtd:debug_heap.obj
 0002:000130b4       ??_C@_06PJIGMIJB@Client?$AA@ 004ce0b4     libucrtd:debug_heap.obj
 0002:000130bc       ??_C@_1CE@LJFEPPMP@?$AA_?$AAC?$AAr?$AAt?$AAC?$AAh?$AAe?$AAc?$AAk?$AAM?$AAe?$AAm?$AAo?$AAr?$AAy?$AA?$CI?$AA?$CJ?$AA?$AA@ 004ce0bc     libucrtd:debug_heap.obj
 0002:000130e8       ??_C@_1GG@OCLHPJPK@?$AAm?$AAi?$AAn?$AAk?$AAe?$AAr?$AAn?$AAe?$AAl?$AA?2?$AAc?$AAr?$AAt?$AAs?$AA?2?$AAu?$AAc?$AAr?$AAt?$AA?2?$AAs?$AAr?$AAc?$AA?2?$AAa?$AAp?$AAp?$AAc?$AAr?$AAt?$AA?2?$AAh@ 004ce0e8     libucrtd:debug_heap.obj
 0002:00013164       ??_C@_0DF@BBEGIFEK@Client?5hook?5allocation?5failure?5a@ 004ce164     libucrtd:debug_heap.obj
 0002:000131a4       ??_C@_0CB@CCLOLAHO@Client?5hook?5allocation?5failure?4?6@ 004ce1a4     libucrtd:debug_heap.obj
 0002:000131cc       ??_C@_02DKCKIIND@?$CFs?$AA@ 004ce1cc     libucrtd:debug_heap.obj
 0002:000131d0       ??_C@_0DC@JEMAGEKG@Error?3?5memory?5allocation?3?5bad?5me@ 004ce1d0     libucrtd:debug_heap.obj
 0002:0001320c       ??_C@_0DI@KKJPDPGM@Client?5hook?5re?9allocation?5failur@ 004ce20c     libucrtd:debug_heap.obj
 0002:00013250       ??_C@_0CE@DOFMDOL@Client?5hook?5re?9allocation?5failur@ 004ce250     libucrtd:debug_heap.obj
 0002:00013280       ??_C@_0FA@EFEIGJKG@Error?3?5memory?5allocation?3?5bad?5me@ 004ce280     libucrtd:debug_heap.obj
 0002:000132e0       ??_C@_0EM@LGFLMAGJ@The?5Block?5at?50x?$CFp?5was?5allocated?5@ 004ce2e0     libucrtd:debug_heap.obj
 0002:0001333c       ??_C@_1DM@DEDLGNML@?$AA_?$AAC?$AAr?$AAt?$AAI?$AAs?$AAV?$AAa?$AAl?$AAi?$AAd?$AAH?$AAe?$AAa?$AAp?$AAP?$AAo?$AAi?$AAn?$AAt?$AAe?$AAr?$AA?$CI?$AAb?$AAl?$AAo?$AAc?$AAk?$AA?$CJ?$AA?$AA@ 004ce33c     libucrtd:debug_heap.obj
 0002:00013388       ??_C@_1PC@MCGKJLN@?$AAo?$AAl?$AAd?$AA_?$AAh?$AAe?$AAa?$AAd?$AA?9?$AA?$DO?$AA_?$AAl?$AAi?$AAn?$AAe?$AA_?$AAn?$AAu?$AAm?$AAb?$AAe?$AAr?$AA?5?$AA?$DN?$AA?$DN?$AA?5?$AAl?$AAi?$AAn?$AAe?$AA_?$AAn@ 004ce388     libucrtd:debug_heap.obj
 0002:000134ac       ??_C@_0DA@HFBKENN@Error?3?5possible?5heap?5corruption?5@ 004ce4ac     libucrtd:debug_heap.obj
 0002:000134e8       ??_C@_1JM@MCMEPJEP@?$AAr?$AAe?$AAa?$AAl?$AAl?$AAo?$AAc?$AAa?$AAt?$AAi?$AAo?$AAn?$AA_?$AAi?$AAs?$AA_?$AAa?$AAl?$AAl?$AAo?$AAw?$AAe?$AAd?$AA?5?$AA?$HM?$AA?$HM?$AA?5?$AA?$CI?$AA?$CB?$AAr?$AAe?$AAa@ 004ce4e8     libucrtd:debug_heap.obj
 0002:000135a4       ??_C@_1DM@LNOPKAIJ@?$AA_?$AA_?$AAa?$AAc?$AAr?$AAt?$AA_?$AAl?$AAa?$AAs?$AAt?$AA_?$AAb?$AAl?$AAo?$AAc?$AAk?$AA?5?$AA?$DN?$AA?$DN?$AA?5?$AAo?$AAl?$AAd?$AA_?$AAh?$AAe?$AAa?$AAd?$AA?$AA@ 004ce5a4     libucrtd:debug_heap.obj
 0002:000135ec       ??_C@_1DO@HABCJBHO@?$AA_?$AA_?$AAa?$AAc?$AAr?$AAt?$AA_?$AAf?$AAi?$AAr?$AAs?$AAt?$AA_?$AAb?$AAl?$AAo?$AAc?$AAk?$AA?5?$AA?$DN?$AA?$DN?$AA?5?$AAo?$AAl?$AAd?$AA_?$AAh?$AAe?$AAa?$AAd?$AA?$AA@ 004ce5ec     libucrtd:debug_heap.obj
 0002:00013638       ??_C@_1CC@CKEAHJPH@?$AAb?$AAl?$AAo?$AAc?$AAk?$AA?5?$AA?$CB?$AA?$DN?$AA?5?$AAn?$AAu?$AAl?$AAl?$AAp?$AAt?$AAr?$AA?$AA@ 004ce638     libucrtd:debug_heap.obj
 0002:00013660       ??_C@_1BI@HAPNGHDP@?$AA_?$AAe?$AAx?$AAp?$AAa?$AAn?$AAd?$AA_?$AAd?$AAb?$AAg?$AA?$AA@ 004ce660     libucrtd:debug_heap.obj
 0002:00013680       ??_C@_0EJ@HEIBCIMJ@The?5Block?5at?50x?$CFp?5was?5allocated?5@ 004ce680     libucrtd:debug_heap.obj
 0002:000136d8       ??_C@_0BL@KEIPLFAC@Client?5hook?5free?5failure?4?6?$AA@ 004ce6d8     libucrtd:debug_heap.obj
 0002:000136f8       ??_C@_1FA@KDNEBILF@?$AAi?$AAs?$AA_?$AAb?$AAl?$AAo?$AAc?$AAk?$AA_?$AAt?$AAy?$AAp?$AAe?$AA_?$AAv?$AAa?$AAl?$AAi?$AAd?$AA?$CI?$AAh?$AAe?$AAa?$AAd?$AAe?$AAr?$AA?9?$AA?$DO?$AA_?$AAb?$AAl?$AAo@ 004ce6f8     libucrtd:debug_heap.obj
 0002:00013758       ??_C@_0KI@JGFOHMEB@HEAP?5CORRUPTION?5DETECTED?3?5before@ 004ce758     libucrtd:debug_heap.obj
 0002:00013828       ??_C@_0IK@PJCGLBOB@HEAP?5CORRUPTION?5DETECTED?3?5before@ 004ce828     libucrtd:debug_heap.obj
 0002:000138d0       ??_C@_0KE@MBMNHHHN@HEAP?5CORRUPTION?5DETECTED?3?5after?5@ 004ce8d0     libucrtd:debug_heap.obj
 0002:00013998       ??_C@_0IG@LEMBDCJK@HEAP?5CORRUPTION?5DETECTED?3?5after?5@ 004ce998     libucrtd:debug_heap.obj
 0002:00013a38       ??_C@_1OK@GFEOEJAF@?$AAh?$AAe?$AAa?$AAd?$AAe?$AAr?$AA?9?$AA?$DO?$AA_?$AAl?$AAi?$AAn?$AAe?$AA_?$AAn?$AAu?$AAm?$AAb?$AAe?$AAr?$AA?5?$AA?$DN?$AA?$DN?$AA?5?$AAl?$AAi?$AAn?$AAe?$AA_?$AAn?$AAu?$AAm@ 004cea38     libucrtd:debug_heap.obj
 0002:00013b50       ??_C@_1ME@GFALMLNA@?$AAh?$AAe?$AAa?$AAd?$AAe?$AAr?$AA?9?$AA?$DO?$AA_?$AAb?$AAl?$AAo?$AAc?$AAk?$AA_?$AAu?$AAs?$AAe?$AA?5?$AA?$DN?$AA?$DN?$AA?5?$AAb?$AAl?$AAo?$AAc?$AAk?$AA_?$AAu?$AAs?$AAe?$AA?5@ 004ceb50     libucrtd:debug_heap.obj
 0002:00013c3c       ??_C@_1DI@ILNOPEPI@?$AA_?$AA_?$AAa?$AAc?$AAr?$AAt?$AA_?$AAl?$AAa?$AAs?$AAt?$AA_?$AAb?$AAl?$AAo?$AAc?$AAk?$AA?5?$AA?$DN?$AA?$DN?$AA?5?$AAh?$AAe?$AAa?$AAd?$AAe?$AAr?$AA?$AA@ 004cec3c     libucrtd:debug_heap.obj
 0002:00013c80       ??_C@_1DK@KEHFGDIJ@?$AA_?$AA_?$AAa?$AAc?$AAr?$AAt?$AA_?$AAf?$AAi?$AAr?$AAs?$AAt?$AA_?$AAb?$AAl?$AAo?$AAc?$AAk?$AA?5?$AA?$DN?$AA?$DN?$AA?5?$AAh?$AAe?$AAa?$AAd?$AAe?$AAr?$AA?$AA@ 004cec80     libucrtd:debug_heap.obj
 0002:00013cc8       ??_C@_1BG@MBKOGDLD@?$AA_?$AAm?$AAs?$AAi?$AAz?$AAe?$AA_?$AAd?$AAb?$AAg?$AA?$AA@ 004cecc8     libucrtd:debug_heap.obj
 0002:00013ce4       ??_C@_07OHKEFPKJ@DAMAGED?$AA@ 004cece4     libucrtd:debug_heap.obj
 0002:00013cf0       ??_C@_0KA@IHNJJKPL@HEAP?5CORRUPTION?5DETECTED?3?5on?5top@ 004cecf0     libucrtd:debug_heap.obj
 0002:00013db0       ??_C@_0IC@BBJIOOJH@HEAP?5CORRUPTION?5DETECTED?3?5on?5top@ 004cedb0     libucrtd:debug_heap.obj
 0002:00013e50       ??_C@_0EG@DGJMPDBH@?$CFhs?5located?5at?50x?$CFp?5is?5?$CFIu?5bytes@ 004cee50     libucrtd:debug_heap.obj
 0002:00013ea4       ??_C@_0CI@JMLBEDHJ@?$CFhs?5located?5at?50x?$CFp?5is?5?$CFIu?5bytes@ 004ceea4     libucrtd:debug_heap.obj
 0002:00013ed8       ??_C@_0EG@GPFHANHO@Cycle?5in?5block?5list?5detected?5whi@ 004ceed8     libucrtd:debug_heap.obj
 0002:00013f2c       ??_C@_0BJ@ELMAOCAJ@Heap?5validation?5failed?4?6?$AA@ 004cef2c     libucrtd:debug_heap.obj
 0002:00013f50       ??_C@_1IE@BBIFDGEB@?$AAn?$AAe?$AAw?$AA_?$AAb?$AAi?$AAt?$AAs?$AA?5?$AA?$DN?$AA?$DN?$AA?5?$AA_?$AAC?$AAR?$AAT?$AAD?$AAB?$AAG?$AA_?$AAR?$AAE?$AAP?$AAO?$AAR?$AAT?$AA_?$AAF?$AAL?$AAA?$AAG?$AA?5@ 004cef50     libucrtd:debug_heap.obj
 0002:00013ff0       ??_C@_1BO@GJFDNMNF@?$AA_?$AAC?$AAr?$AAt?$AAS?$AAe?$AAt?$AAD?$AAb?$AAg?$AAF?$AAl?$AAa?$AAg?$AA?$AA@ 004ceff0     libucrtd:debug_heap.obj
 0002:00014014       ??_C@_1CI@CEIBPAIA@?$AAc?$AAa?$AAl?$AAl?$AAb?$AAa?$AAc?$AAk?$AA?5?$AA?$CB?$AA?$DN?$AA?5?$AAn?$AAu?$AAl?$AAl?$AAp?$AAt?$AAr?$AA?$AA@ 004cf014     libucrtd:debug_heap.obj
 0002:00014044       ??_C@_1DE@GJCKCKEC@?$AA_?$AAC?$AAr?$AAt?$AAD?$AAo?$AAF?$AAo?$AAr?$AAA?$AAl?$AAl?$AAC?$AAl?$AAi?$AAe?$AAn?$AAt?$AAO?$AAb?$AAj?$AAe?$AAc?$AAt?$AAs?$AA?$AA@ 004cf044     libucrtd:debug_heap.obj
 0002:00014084       ??_C@_1CC@BBKMONGA@?$AAs?$AAt?$AAa?$AAt?$AAe?$AA?5?$AA?$CB?$AA?$DN?$AA?5?$AAn?$AAu?$AAl?$AAl?$AAp?$AAt?$AAr?$AA?$AA@ 004cf084     libucrtd:debug_heap.obj
 0002:000140ac       ??_C@_1CE@NJJKELF@?$AA_?$AAC?$AAr?$AAt?$AAM?$AAe?$AAm?$AAC?$AAh?$AAe?$AAc?$AAk?$AAp?$AAo?$AAi?$AAn?$AAt?$AA?$AA@ 004cf0ac     libucrtd:debug_heap.obj
 0002:000140d8       ??_C@_0DP@LEFMFBOD@Bad?5memory?5block?5found?5at?50x?$CFp?4?6@ 004cf0d8     libucrtd:debug_heap.obj
 0002:00014124       ??_C@_0CB@EAAIGELO@Bad?5memory?5block?5found?5at?50x?$CFp?4?6@ 004cf124     libucrtd:debug_heap.obj
 0002:0001414c       ??_C@_1CE@PDIENACM@?$AA_?$AAC?$AAr?$AAt?$AAM?$AAe?$AAm?$AAD?$AAi?$AAf?$AAf?$AAe?$AAr?$AAe?$AAn?$AAc?$AAe?$AA?$AA@ 004cf14c     libucrtd:debug_heap.obj
 0002:00014178       ??_C@_1CK@FFKLBHMD@?$AAo?$AAl?$AAd?$AA_?$AAs?$AAt?$AAa?$AAt?$AAe?$AA?5?$AA?$CB?$AA?$DN?$AA?5?$AAn?$AAu?$AAl?$AAl?$AAp?$AAt?$AAr?$AA?$AA@ 004cf178     libucrtd:debug_heap.obj
 0002:000141ac       ??_C@_1CK@NJPPHDJP@?$AAn?$AAe?$AAw?$AA_?$AAs?$AAt?$AAa?$AAt?$AAe?$AA?5?$AA?$CB?$AA?$DN?$AA?5?$AAn?$AAu?$AAl?$AAl?$AAp?$AAt?$AAr?$AA?$AA@ 004cf1ac     libucrtd:debug_heap.obj
 0002:000141e0       ??_C@_05MKKEDADM@?$CF?42X?5?$AA@ 004cf1e0     libucrtd:debug_heap.obj
 0002:000141e8       ??_C@_1CC@DIJAHFFJ@?$AAp?$AAr?$AAi?$AAn?$AAt?$AA_?$AAb?$AAl?$AAo?$AAc?$AAk?$AA_?$AAd?$AAa?$AAt?$AAa?$AA?$AA@ 004cf1e8     libucrtd:debug_heap.obj
 0002:00014210       ??_C@_1BI@KALLJECN@?$AA?$CI?$AA?$CK?$AA_?$AAe?$AAr?$AAr?$AAn?$AAo?$AA?$CI?$AA?$CJ?$AA?$CJ?$AA?$AA@ 004cf210     libucrtd:debug_heap.obj
 0002:0001422c       ??_C@_0BA@HJBKCELP@?5Data?3?5?$DM?$CFs?$DO?5?$CFs?6?$AA@ 004cf22c     libucrtd:debug_heap.obj
 0002:00014240       ??_C@_0BE@KCIPKCIA@Dumping?5objects?5?9?$DO?6?$AA@ 004cf240     libucrtd:debug_heap.obj
 0002:00014258       ??_C@_0BE@OIEFNFL@?$CDFile?5Error?$CD?$CI?$CFd?$CJ?5?3?5?$AA@ 004cf258     libucrtd:debug_heap.obj
 0002:00014270       ??_C@_0L@JMEFFCCJ@?$CFhs?$CI?$CFd?$CJ?5?3?5?$AA@ 004cf270     libucrtd:debug_heap.obj
 0002:00014280       ??_C@_06PKLGBFGM@?$HL?$CFld?$HN?5?$AA@ 004cf280     libucrtd:debug_heap.obj
 0002:00014288       ??_C@_0DD@GHNAAKBB@client?5block?5at?50x?$CFp?0?5subtype?5?$CFx@ 004cf288     libucrtd:debug_heap.obj
 0002:000142c8       ??_C@_0CH@FAGDDGPN@normal?5block?5at?50x?$CFp?0?5?$CFIu?5bytes?5@ 004cf2c8     libucrtd:debug_heap.obj
 0002:000142f8       ??_C@_0DA@MDLBNIBM@crt?5block?5at?50x?$CFp?0?5subtype?5?$CFx?0?5?$CF@ 004cf2f8     libucrtd:debug_heap.obj
 0002:00014334       ??_C@_0BH@GFGKJDCO@Object?5dump?5complete?4?6?$AA@ 004cf334     libucrtd:debug_heap.obj
 0002:00014350       ??_C@_0BI@JBFPOEJA@Detected?5memory?5leaks?$CB?6?$AA@ 004cf350     libucrtd:debug_heap.obj
 0002:0001436c       ??_C@_1CM@MPNIBKGK@?$AA_?$AAC?$AAr?$AAt?$AAM?$AAe?$AAm?$AAD?$AAu?$AAm?$AAp?$AAS?$AAt?$AAa?$AAt?$AAi?$AAs?$AAt?$AAi?$AAc?$AAs?$AA?$AA@ 004cf36c     libucrtd:debug_heap.obj
 0002:000143a0       ??_C@_0BO@DACNIABB@?$CFId?5bytes?5in?5?$CFId?5?$CFhs?5Blocks?4?6?$AA@ 004cf3a0     libucrtd:debug_heap.obj
 0002:000143c4       ??_C@_0CB@BLHDAFNE@Largest?5number?5used?3?5?$CFId?5bytes?4?6@ 004cf3c4     libucrtd:debug_heap.obj
 0002:000143ec       ??_C@_0BP@DEDHGGGI@Total?5allocations?3?5?$CFId?5bytes?4?6?$AA@ 004cf3ec     libucrtd:debug_heap.obj
 0002:00014414       ??_C@_1CM@JKMDHENJ@?$AAI?$AAS?$AA_?$AA2?$AA_?$AAP?$AAO?$AAW?$AA_?$AAN?$AA?$CI?$AAa?$AAl?$AAi?$AAg?$AAn?$AAm?$AAe?$AAn?$AAt?$AA?$CJ?$AA?$AA@ 004cf414     libucrtd:debug_heap.obj
 0002:00014448       ??_C@_1DG@DONCJBBJ@?$AA_?$AAa?$AAl?$AAi?$AAg?$AAn?$AAe?$AAd?$AA_?$AAo?$AAf?$AAf?$AAs?$AAe?$AAt?$AA_?$AAm?$AAa?$AAl?$AAl?$AAo?$AAc?$AA_?$AAd?$AAb?$AAg?$AA?$AA@ 004cf448     libucrtd:debug_heap.obj
 0002:00014488       ??_C@_1DK@LFLKFPDA@?$AAo?$AAf?$AAf?$AAs?$AAe?$AAt?$AA?5?$AA?$DN?$AA?$DN?$AA?5?$AA0?$AA?5?$AA?$HM?$AA?$HM?$AA?5?$AAo?$AAf?$AAf?$AAs?$AAe?$AAt?$AA?5?$AA?$DM?$AA?5?$AAs?$AAi?$AAz?$AAe?$AA?$AA@ 004cf488     libucrtd:debug_heap.obj
 0002:000144d0       ??_C@_0EI@NDNJMAJK@The?5block?5at?50x?$CFp?5was?5not?5alloca@ 004cf4d0     libucrtd:debug_heap.obj
 0002:00014528       ??_C@_0DL@PGHMMKNE@Damage?5before?50x?$CFp?5which?5was?5all@ 004cf528     libucrtd:debug_heap.obj
 0002:00014570       ??_C@_1DI@NINIKFFK@?$AA_?$AAa?$AAl?$AAi?$AAg?$AAn?$AAe?$AAd?$AA_?$AAo?$AAf?$AAf?$AAs?$AAe?$AAt?$AA_?$AAr?$AAe?$AAa?$AAl?$AAl?$AAo?$AAc?$AA_?$AAd?$AAb?$AAg?$AA?$AA@ 004cf570     libucrtd:debug_heap.obj
